(lp0
F1358982193.469999
a(dp1
S'__channel_count__'
p2
I262
sS'__search_dictionary__'
p3
(dp4
V\u0442\u043d\u0432
p5
c__builtin__
set
p6
((lp7
I106
atp8
Rp9
sV\u0434\u0440\u0430\u0439\u0432
p10
g6
((lp11
I192
atp12
Rp13
sV\u0438\u043d\u0442\u0435\u0440
p14
g6
((lp15
I4
aI22
atp16
Rp17
sVsci
p18
g6
((lp19
I43
atp20
Rp21
sV\u0434\u043e\u0436\u0434\u044c
p22
g6
((lp23
I142
atp24
Rp25
sVeuronews
p26
g6
((lp27
I53
atp28
Rp29
sVzee
p30
g6
((lp31
I163
atp32
Rp33
sV\u043a\u0438\u043d\u043e\u043b\u044e\u043a\u0441
p34
g6
((lp35
I228
atp36
Rp37
sVmusicbo
p38
g6
((lp39
I171
aI174
atp40
Rp41
sVmlive
p42
g6
((lp43
I251
atp44
Rp45
sVtop
p46
g6
((lp47
I168
atp48
Rp49
sV\u043f\u0441\u0438
p50
g6
((lp51
I140
atp52
Rp53
sV\u0437\u0430\u0433\u043e\u0440\u043e\u0434\u043d\u0430\u044f
p54
g6
((lp55
I161
atp56
Rp57
sV\u043f\u0440\u0435\u043c\u044c\u0435\u0440\u0430
p58
g6
((lp59
I93
atp60
Rp61
sVgulli
p62
g6
((lp63
I117
atp64
Rp65
sV1_1
p66
g6
((lp67
I3
atp68
Rp69
sV\u043c\u0435\u0442\u0435\u043e
p70
g6
((lp71
I149
atp72
Rp73
sVviasat
p74
g6
((lp75
I72
aI155
aI132
aI71
atp76
Rp77
sV\u043c\u043d\u043e\u0433\u043e
p78
g6
((lp79
I222
atp80
Rp81
sVfine
p82
g6
((lp83
I261
atp84
Rp85
sV\u043a1
p86
g6
((lp87
I30
atp88
Rp89
sV\u043d\u0435\u0434\u0432\u0438\u0436\u0438\u043c\u043e\u0441\u0442\u044c
p90
g6
((lp91
I179
atp92
Rp93
sV24
p94
g6
((lp95
I112
aI145
aI232
aI29
aI39
atp96
Rp97
sV\u0440\u0435\u043d
p98
g6
((lp99
I0
atp100
Rp101
sVstyle
p102
g6
((lp103
I147
atp104
Rp105
sVvinci
p106
g6
((lp107
I114
atp108
Rp109
sV21
p110
g6
((lp111
I259
aI140
atp112
Rp113
sVtv
p114
g6
((lp115
I163
aI21
atp116
Rp117
sV\u0448\u0430\u043d\u0441\u043e\u043d
p118
g6
((lp119
I205
atp120
Rp121
sV\u0436\u0438\u0432\u043e\u0442\u043d\u044b\u0435
p122
g6
((lp123
I118
atp124
Rp125
sVjimjam
p126
g6
((lp127
I122
atp128
Rp129
sVrtvi
p130
g6
((lp131
I111
atp132
Rp133
sV0
p134
g6
((lp135
I188
atp136
Rp137
sVtiji
p138
g6
((lp139
I172
atp140
Rp141
sVlu
p142
g6
((lp143
I162
aI68
atp144
Rp145
sV\u0441\u0442\u0440\u0430\u043d\u0430
p146
g6
((lp147
I121
atp148
Rp149
sV\u0442\u0432i
p150
g6
((lp151
I17
atp152
Rp153
sV\u0440\u0442\u0432
p154
g6
((lp155
I165
aI167
atp156
Rp157
sV\u0438
p158
g6
((lp159
I156
aI187
aI92
aI86
atp160
Rp161
sV\u043d\u044f
p162
g6
((lp163
I224
atp164
Rp165
sV\u0441\u0442\u0440\u0430\u0448\u043d\u043e\u0435
p166
g6
((lp167
I88
atp168
Rp169
sVtb
p170
g6
((lp171
I205
atp172
Rp173
sV\u043e\u043b\u043e\u0433\u0438\u044f
p174
g6
((lp175
I140
atp176
Rp177
sVtreme
p178
g6
((lp179
I55
atp180
Rp181
sVcee
p182
g6
((lp183
I132
atp184
Rp185
sVnat
p186
g6
((lp187
I241
aI133
atp188
Rp189
sV\u0432\u0441\u0435\u0433\u0434\u0430
p190
g6
((lp191
I157
atp192
Rp193
sV\u0432\u043e\u043f\u0440\u043e\u0441\u044b
p194
g6
((lp195
I156
atp196
Rp197
sV\u043d\u043e
p198
g6
((lp199
I39
atp200
Rp201
sVmgm
p202
g6
((lp203
I60
atp204
Rp205
sVda
p206
g6
((lp207
I114
atp208
Rp209
sV\u043e2\u0442\u0432
p210
g6
((lp211
I109
atp212
Rp213
sV\u0444\u0443\u0442\u0431\u043e\u043b
p214
g6
((lp215
I135
aI211
aI213
aI25
aI218
aI27
atp216
Rp217
sV\u043a\u043e\u043c\u0435\u0434\u0438
p218
g6
((lp219
I125
atp220
Rp221
sV\u0434\u043e\u043d\u0431\u0430\u0441\u0441
p222
g6
((lp223
I26
atp224
Rp225
sV\u0442\u0435\u0442
p226
g6
((lp227
I24
atp228
Rp229
sVworld
p230
g6
((lp231
I73
aI50
aI52
aI217
atp232
Rp233
sV\u043e\u0442\u0430
p234
g6
((lp235
I92
atp236
Rp237
sVgeo
p238
g6
((lp239
I241
aI133
atp240
Rp241
sV\u0441\u043f\u043e\u0440\u0442
p242
g6
((lp243
I100
aI230
aI233
aI209
aI212
aI214
aI58
aI190
atp244
Rp245
sV\u043b\u044e\u0431\u0438\u043c\u043e\u0435
p246
g6
((lp247
I165
atp248
Rp249
sVmdance
p250
g6
((lp251
I175
atp252
Rp253
sV\u0442\u0435\u043b\u0435\u043a\u0430\u043d\u0430\u043b
p254
g6
((lp255
I259
aI28
atp256
Rp257
sV\u0437\u0434\u043e\u0440\u043e\u0432\u043e\u0435
p258
g6
((lp259
I193
atp260
Rp261
sVt\u0432
p262
g6
((lp263
I42
atp264
Rp265
sV\u0434\u0435\u0432\u044f\u0442\u044b\u0439
p266
g6
((lp267
I255
atp268
Rp269
sV\u043a\u0443
p270
g6
((lp271
I224
atp272
Rp273
sVnickelodeon
p274
g6
((lp275
I62
aI199
atp276
Rp277
sV\u0442\u0435
p278
g6
((lp279
I39
atp280
Rp281
sV\u043a\u043f
p282
g6
((lp283
I256
atp284
Rp285
sV\u043a\u0438\u043d\u043e
p286
g6
((lp287
I66
aI165
aI167
aI138
aI108
aI78
aI85
aI89
aI90
atp288
Rp289
sV\u044d\u0433\u043e\u0438\u0441\u0442
p290
g6
((lp291
I238
atp292
Rp293
sV\u0442\u0432
p294
g6
((lp295
I0
aI256
aI260
aI238
aI164
aI37
aI180
aI193
aI194
aI79
aI81
aI219
aI221
aI222
aI223
aI224
aI99
aI105
aI110
aI239
aI242
aI249
aI250
aI125
atp296
Rp297
sV\u0441\u0435\u0440\u0438\u0430\u043b\u0430
p298
g6
((lp299
I130
atp300
Rp301
sVx
p302
g6
((lp303
I32
aI224
aI162
aI67
aI68
aI197
aI39
aI236
aI171
aI43
aI140
aI174
aI115
aI116
aI85
aI55
aI153
aI71
aI187
aI92
aI245
atp304
Rp305
sV\u0442\u0443\u0440\u0438\u043d\u0444\u043e
p306
g6
((lp307
I204
atp308
Rp309
sVqtv
p310
g6
((lp311
I35
atp312
Rp313
sV\u0430\u0441\u0442\u0440\u043e
p314
g6
((lp315
I260
atp316
Rp317
sVtv1000
p318
g6
((lp319
I65
aI66
aI150
atp320
Rp321
sV\u043a\u0438\u043d\u043e\u043a\u043b\u0443\u0431
p322
g6
((lp323
I82
atp324
Rp325
sVespn
p326
g6
((lp327
I51
atp328
Rp329
sV\u0438\u043d\u0434\u0438\u044f
p330
g6
((lp331
I81
atp332
Rp333
sV\u0440\u0435\u0442\u0440\u043e
p334
g6
((lp335
I194
atp336
Rp337
sV\u0437\u043e\u043e
p338
g6
((lp339
I79
atp340
Rp341
sVnational
p342
g6
((lp343
I185
aI61
atp344
Rp345
sV\u0438\u043d\u0442\u0435\u0440\u0435\u0441\u043d\u043e\u0435
p346
g6
((lp347
I221
atp348
Rp349
sV\u0442\u043e\u043d\u0438\u0441
p350
g6
((lp351
I15
atp352
Rp353
sVeuropa
p354
g6
((lp355
I207
atp356
Rp357
sV\u043c\u0438\u043d\u043e\u0440
p358
g6
((lp359
I258
atp360
Rp361
sVsport
p362
g6
((lp363
I155
atp364
Rp365
sV\u043c\u0443\u043b\u044c\u0442\u0438\u043c\u0430\u043d\u0438\u044f
p366
g6
((lp367
I136
atp368
Rp369
sVman
p370
g6
((lp371
I128
atp372
Rp373
sV\u043c\u0430\u0442\u044c
p374
g6
((lp375
I86
atp376
Rp377
sV\u0442\u043e\u0431\u043e\u0439
p378
g6
((lp379
I157
atp380
Rp381
sVnetwork
p382
g6
((lp383
I45
aI261
atp384
Rp385
sV\u0437\u043d\u0430\u043d\u0438\u0435
p386
g6
((lp387
I206
atp388
Rp389
sVma\u043a\u0441i
p390
g6
((lp391
I42
atp392
Rp393
sV+
p394
g6
((lp395
I225
aI3
aI214
aI259
aI138
aI108
aI14
aI80
aI209
aI211
aI212
aI213
aI22
aI215
aI216
aI218
aI27
atp396
Rp397
sVstv
p398
g6
((lp399
I257
atp400
Rp401
sVsyfy
p402
g6
((lp403
I64
atp404
Rp405
sV\u0440\u043e\u0441\u0441\u0438\u044f
p406
g6
((lp407
I36
aI29
atp408
Rp409
sVinvestigation
p410
g6
((lp411
I120
atp412
Rp413
sV\u043d\u043e\u0441\u0442\u0430\u043b\u044c\u0433\u0438\u044f
p414
g6
((lp415
I91
atp416
Rp417
sVcnn
p418
g6
((lp419
I46
atp420
Rp421
sVinternational
p422
g6
((lp423
I33
aI37
atp424
Rp425
sV\u043b
p426
g6
((lp427
I197
atp428
Rp429
sV365
p430
g6
((lp431
I227
atp432
Rp433
sV\u043b\u044f
p434
g6
((lp435
I258
atp436
Rp437
sV\u0440\u0430\u0434\u043e\u0441\u0442\u044c
p438
g6
((lp439
I94
atp440
Rp441
sVdiscovery
p442
g6
((lp443
I48
aI49
aI50
aI203
aI120
atp444
Rp445
sVtdk
p446
g6
((lp447
I170
atp448
Rp449
sV\u0434\u0438\u0442\u044f
p450
g6
((lp451
I86
atp452
Rp453
sVbridge
p454
g6
((lp455
I246
atp456
Rp457
sV\u0442\u0438\u043d
p458
g6
((lp459
I105
atp460
Rp461
sVbusiness
p462
g6
((lp463
I231
atp464
Rp465
sVnature
p466
g6
((lp467
I132
atp468
Rp469
sVtv5
p470
g6
((lp471
I69
atp472
Rp473
sVbo
p474
g6
((lp475
I236
atp476
Rp477
sV\u0434\u0435\u043b\u043e\u0432\u043e\u0439
p478
g6
((lp479
I23
atp480
Rp481
sV\u043c\u0435\u0434\u0438\u0430
p482
g6
((lp483
I148
atp484
Rp485
sVoutdoor
p486
g6
((lp487
I208
atp488
Rp489
sVmmusic
p490
g6
((lp491
I237
atp492
Rp493
sV\u0444\u0438\u043b\u044c\u043c
p494
g6
((lp495
I20
atp496
Rp497
sV\u0440\u0430\u0437
p498
g6
((lp499
I242
atp500
Rp501
sV\u0440\u044b\u0431\u0430\u043b\u043a\u0430
p502
g6
((lp503
I92
atp504
Rp505
sV\u044d\u043a\u0441\u043f\u0435\u0440\u0442
p506
g6
((lp507
I110
atp508
Rp509
sV\u0441\u043e\u044e\u0437
p510
g6
((lp511
I253
aI230
atp512
Rp513
sV\u043d\u0430\u0448
p514
g6
((lp515
I211
atp516
Rp517
sV\u0442\u0431\u043d
p518
g6
((lp519
I252
atp520
Rp521
sVc
p522
g6
((lp523
I134
atp524
Rp525
sV\u043c\u0435\u0433\u0430
p526
g6
((lp527
I16
atp528
Rp529
sV\u043e\u0442\u043a\u0440\u044b\u0442\u044b\u0439
p530
g6
((lp531
I189
atp532
Rp533
sV\u0438\u0442
p534
g6
((lp535
I85
atp536
Rp537
sV\u0443\u0441\u0430\u0434\u044c\u0431\u0430
p538
g6
((lp539
I107
atp540
Rp541
sV\u043a\u0442\u043e_\u043a\u0442\u043e
p542
g6
((lp543
I159
atp544
Rp545
sVo
p546
g6
((lp547
I21
atp548
Rp549
sV34
p550
g6
((lp551
I28
atp552
Rp553
sVtlc
p554
g6
((lp555
I182
atp556
Rp557
sV\u0447\u043f
p558
g6
((lp559
I151
atp560
Rp561
sV\u043e\u0440\u0443\u0436\u0438\u0435
p562
g6
((lp563
I158
atp564
Rp565
sV\u0432\u0441\u0435
p566
g6
((lp567
I244
atp568
Rp569
sV\u043f\u0435\u0440\u0432\u043e\u0433\u043e
p570
g6
((lp571
I103
atp572
Rp573
sV\u043e\u043d\u043b\u0430\u0439\u043d
p574
g6
((lp575
I214
atp576
Rp577
sV\u043a\u0442\u043e
p578
g6
((lp579
I159
atp580
Rp581
sVaction
p582
g6
((lp583
I150
atp584
Rp585
sVru
p586
g6
((lp587
I184
aI171
atp588
Rp589
sV\u0440\u0431\u043a
p590
g6
((lp591
I95
atp592
Rp593
sV\u043a\u0438\u043d\u043e\u043c\u0430\u043d\u0438\u044f
p594
g6
((lp595
I124
atp596
Rp597
sV\u0440\u0443\u0441\u0441\u043a\u0438\u0439
p598
g6
((lp599
I96
aI97
aI229
atp600
Rp601
sV\u0435\u0441\u0442\u044c
p602
g6
((lp603
I159
atp604
Rp605
sV\u0437\u0430\u043a\u043e\u043d
p606
g6
((lp607
I249
atp608
Rp609
sVmoteurs
p610
g6
((lp611
I40
atp612
Rp613
sV\u0434\u043e\u043c\u0430\u0448\u043d\u0438\u0435
p614
g6
((lp615
I118
atp616
Rp617
sVrusong
p618
g6
((lp619
I195
atp620
Rp621
sVrussia
p622
g6
((lp623
I144
atp624
Rp625
sVvh1
p626
g6
((lp627
I154
aI210
atp628
Rp629
sV\u043a\u0438\u043d\u043e\u0441\u043e\u044e\u0437
p630
g6
((lp631
I84
atp632
Rp633
sVpop
p634
g6
((lp635
I166
atp636
Rp637
sVone
p638
g6
((lp639
I186
atp640
Rp641
sV\u043f\u0435\u0440\u0432\u044b\u0439
p642
g6
((lp643
I34
aI11
aI19
aI149
aI183
aI23
atp644
Rp645
sVab
p646
g6
((lp647
I40
atp648
Rp649
sV\u0438\u043b\u043b\u044e\u0437\u0438\u043e\u043d
p650
g6
((lp651
I80
aI96
atp652
Rp653
sVmyzen
p654
g6
((lp655
I176
atp656
Rp657
sVfrance
p658
g6
((lp659
I145
atp660
Rp661
sVx_x
p662
g6
((lp663
I67
atp664
Rp665
sV\u0437\u0430\u0433\u043e\u0440\u043e\u0434\u043d\u044b\u0439
p666
g6
((lp667
I160
atp668
Rp669
sVmezzo
p670
g6
((lp671
I129
aI59
atp672
Rp673
sV\u0442\u043e\u043d\u0443\u0441
p674
g6
((lp675
I164
atp676
Rp677
sVeurosport
p678
g6
((lp679
I248
aI196
aI54
atp680
Rp681
sV\u0440\u0430\u0437\u0432\u043b\u0435\u0447\u0435\u043d\u0438\u0439
p682
g6
((lp683
I139
atp684
Rp685
sV\u043c\u0443\u0436\u0441\u043a\u043e\u0439
p686
g6
((lp687
I131
atp688
Rp689
sVbaby
p690
g6
((lp691
I173
atp692
Rp693
sV\u0442\u0440\u043e
p694
g6
((lp695
I247
atp696
Rp697
sV2_2
p698
g6
((lp699
I14
atp700
Rp701
sVclassic
p702
g6
((lp703
I154
aI51
atp704
Rp705
sVbbc
p706
g6
((lp707
I113
aI52
atp708
Rp709
sV\u043e\u043a\u043a\u0435\u0439
p710
g6
((lp711
I32
atp712
Rp713
sV\u0431\u0435\u043b\u0430\u0440\u0443\u0441\u044c
p714
g6
((lp715
I232
atp716
Rp717
sVsports
p718
g6
((lp719
I55
atp720
Rp721
sV\u0442\u0435\u043b\u0435\u043a\u0430\u0444\u0435
p722
g6
((lp723
I101
atp724
Rp725
sV\u043a\u0430\u043d\u0430\u043b
p726
g6
((lp727
I8
aI220
aI7
atp728
Rp729
sVlive
p730
g6
((lp731
I129
atp732
Rp733
sV2
p734
g6
((lp735
I218
aI188
aI54
aI14
aI127
atp736
Rp737
sVmusic
p738
g6
((lp739
I217
aI134
atp740
Rp741
sVliving
p742
g6
((lp743
I261
atp744
Rp745
sV\u0442\u0435\u043b\u0435\u0432\u0438\u0434\u0435\u043d\u0438\u0435
p746
g6
((lp747
I88
atp748
Rp749
sV\u043f\u043b\u0430\u043d\u0435\u0442\u0430
p750
g6
((lp751
I36
aI87
atp752
Rp753
sVtoday
p754
g6
((lp755
I144
atp756
Rp757
sV\u043e
p758
g6
((lp759
I187
aI92
atp760
Rp761
sV\u0436\u0438\u0432\u0438!
p762
g6
((lp763
I200
atp764
Rp765
sV\u0441\u0435\u043a\u0440\u0435\u0442\u043d\u043e
p766
g6
((lp767
I169
atp768
Rp769
sVlife
p770
g6
((lp771
I41
aI226
aI116
aI245
atp772
Rp773
sV\u0436\u0438\u0437\u043d\u044c
p774
g6
((lp775
I161
atp776
Rp777
sV\u0443\u0441\u043f\u0435
p778
g6
((lp779
I153
atp780
Rp781
sV\u0443\u043a\u0440\u0430\u0438\u043d\u0430
p782
g6
((lp783
I2
aI11
aI10
atp784
Rp785
sVictv
p786
g6
((lp787
I6
atp788
Rp789
sVclub
p790
g6
((lp791
I141
atp792
Rp793
sV\u0441\u043f\u0430\u0441
p794
g6
((lp795
I99
atp796
Rp797
sV\u043a\u0430\u0440\u0443\u0441\u0435\u043b\u044c
p798
g6
((lp799
I146
atp800
Rp801
sV\u043c\u043e\u044f
p802
g6
((lp803
I94
aI87
atp804
Rp805
sV\u0430\u0432\u0442\u043e
p806
g6
((lp807
I225
atp808
Rp809
sV8
p810
g6
((lp811
I220
atp812
Rp813
sVrussian
p814
g6
((lp815
I143
atp816
Rp817
sV\u0434\u043e\u043c
p818
g6
((lp819
I78
atp820
Rp821
sV\u043f\u0440\u043e\u0441\u0432\u0435\u0449\u0435\u043d\u0438\u0435
p822
g6
((lp823
I243
atp824
Rp825
sVzoo\u043f\u0430\u0440\u043a
p826
g6
((lp827
I191
atp828
Rp829
sV\u0434\u043e\u043a
p830
g6
((lp831
I112
atp832
Rp833
sVinfo
p834
g6
((lp835
I151
atp836
Rp837
sV\u043a\u0438\u043d\u043e\u043f\u043e\u043a\u0430\u0437
p838
g6
((lp839
I83
aI126
aI127
atp840
Rp841
sV\u043a\u043e\u043c\u0435\u0434\u0438\u044f
p842
g6
((lp843
I223
atp844
Rp845
sV\u044e\u043d\u0438\u043e\u043d
p846
g6
((lp847
I31
atp848
Rp849
sVnewsone
p850
g6
((lp851
I181
atp852
Rp853
sVscience
p854
g6
((lp855
I49
atp856
Rp857
sV\u043e\u0431\u0440\u0430\u0437\u043e\u0432\u0430\u0442\u0435\u043b\u044c\u043d\u044b\u0439
p858
g6
((lp859
I183
atp860
Rp861
sVn
p862
g6
((lp863
I43
atp864
Rp865
sVplanet
p866
g6
((lp867
I13
atp868
Rp869
sV\u0431\u0430\u0441\u043a\u0435\u0442\u0431\u043e\u043b
p870
g6
((lp871
I215
atp872
Rp873
sV+_+
p874
g6
((lp875
I209
atp876
Rp877
sV\u044d\u043a\u0441\u0442\u0440\u0438\u043c
p878
g6
((lp879
I97
atp880
Rp881
sV\u0440\u0443\u0441\u0441\u043a\u043e\u0435
p882
g6
((lp883
I66
atp884
Rp885
sVwild
p886
g6
((lp887
I241
aI133
atp888
Rp889
sVguide
p890
g6
((lp891
I143
atp892
Rp893
sVmhits
p894
g6
((lp895
I177
atp896
Rp897
sVhistory
p898
g6
((lp899
I72
atp900
Rp901
sV\u0432\u0440\u0435\u043c\u044f
p902
g6
((lp903
I75
atp904
Rp905
sVcnbc
p906
g6
((lp907
I137
atp908
Rp909
sVfashion
p910
g6
((lp911
I240
aI57
aI2
aI73
atp912
Rp913
sV\u0435\u0432\u0440\u043e\u043a\u0438\u043d\u043e
p914
g6
((lp915
I119
atp916
Rp917
sV\u043c1
p918
g6
((lp919
I12
atp920
Rp921
sVint
p922
g6
((lp923
I146
atp924
Rp925
sV\u043a
p926
g6
((lp927
I197
atp928
Rp929
sVuniversal
p930
g6
((lp931
I202
aI70
atp932
Rp933
sV\u0446\u0435\u043d\u0442\u0440
p934
g6
((lp935
I37
atp936
Rp937
sVmotors
p938
g6
((lp939
I234
atp940
Rp941
sVmcm
p942
g6
((lp943
I168
aI166
atp944
Rp945
sVpro
p946
g6
((lp947
I244
aI231
atp948
Rp949
sVplorer
p950
g6
((lp951
I71
atp952
Rp953
sV\u043c\u0443\u0437
p954
g6
((lp955
I180
atp956
Rp957
sV\u043a\u0438\u0435\u0432
p958
g6
((lp959
I18
atp960
Rp961
sV\u043e\u0442\u0432\u0435\u0442\u044b
p962
g6
((lp963
I156
atp964
Rp965
sVmeuropean
p966
g6
((lp967
I254
atp968
Rp969
sV\u0430\u0432\u0442\u043e\u043c\u043e\u0431\u0438\u043b\u044c\u043d\u044b\u0439
p970
g6
((lp971
I19
atp972
Rp973
sV\u0440\u0435\u0431\u0435\u043d\u043a\u0430
p974
g6
((lp975
I152
atp976
Rp977
sV\u0440\u043e\u043c\u0430\u043d
p978
g6
((lp979
I229
atp980
Rp981
sV\u044e\u043c\u043e\u0440
p982
g6
((lp983
I236
atp984
Rp985
sV\u0434\u0435\u0442\u0441\u043a\u0438\u0439
p986
g6
((lp987
I76
aI77
atp988
Rp989
sV\u043d\u0430\u0441\u0442\u043e\u044f\u0449\u0435\u0435
p990
g6
((lp991
I88
atp992
Rp993
sV\u0442\u0435\u043b\u0435\u043a\u043b\u0443\u0431
p994
g6
((lp995
I102
atp996
Rp997
sVtravel
p998
g6
((lp999
I143
atp1000
Rp1001
sVkidsco
p1002
g6
((lp1003
I123
atp1004
Rp1005
sV-
p1006
g6
((lp1007
I258
aI20
aI21
aI163
aI36
aI165
aI38
aI167
aI42
aI43
aI186
aI205
aI209
aI211
aI212
aI213
aI214
aI215
aI216
aI164
aI218
aI37
aI232
aI110
aI239
aI249
aI126
aI127
atp1008
Rp1009
sV\u0443\u043b\u044b\u0431\u043a\u0430
p1010
g6
((lp1011
I152
atp1012
Rp1013
sV\u043d\u0430\u0443\u043a\u0430
p1014
g6
((lp1015
I188
atp1016
Rp1017
sV1
p1018
g6
((lp1019
I233
aI3
aI100
aI126
atp1020
Rp1021
sV\u0441\u0442\u0431
p1022
g6
((lp1023
I5
atp1024
Rp1025
sVamazing
p1026
g6
((lp1027
I41
atp1028
Rp1029
sV5
p1030
g6
((lp1031
I8
atp1032
Rp1033
sVurban
p1034
g6
((lp1035
I235
atp1036
Rp1037
sVanimal
p1038
g6
((lp1039
I13
atp1040
Rp1041
sV\u0441\u0430\u0440\u0430\u0444\u0430\u043d
p1042
g6
((lp1043
I98
atp1044
Rp1045
sVplus
p1046
g6
((lp1047
I207
atp1048
Rp1049
sV\u0444\u0435\u043d\u0438\u043a\u0441
p1050
g6
((lp1051
I108
atp1052
Rp1053
sV\u0442\u0435\u043b\u0435\u043f\u0443\u0442\u0435\u0448\u0435\u0441\u0442\u0432\u0438\u044f
p1054
g6
((lp1055
I104
aI201
atp1056
Rp1057
sVchannel
p1058
g6
((lp1059
I48
aI73
aI208
aI70
aI217
atp1060
Rp1061
sVeuropean
p1062
g6
((lp1063
I210
atp1064
Rp1065
sV\u0441
p1066
g6
((lp1067
I157
atp1068
Rp1069
sV\u0441\u0442\u0441
p1070
g6
((lp1071
I33
atp1072
Rp1073
sV\u043d\u0430\u043d\u043e
p1074
g6
((lp1075
I250
atp1076
Rp1077
sV\u043f\u0430\u0440\u043a
p1078
g6
((lp1079
I139
atp1080
Rp1081
sVtrace
p1082
g6
((lp1083
I235
atp1084
Rp1085
sVukrainian
p1086
g6
((lp1087
I2
atp1088
Rp1089
sV\u0441\u043e\u0432\u0435\u0440\u0448\u0435\u043d\u043d\u043e
p1090
g6
((lp1091
I169
atp1092
Rp1093
sVenglish
p1094
g6
((lp1095
I141
atp1096
Rp1097
sVdiva
p1098
g6
((lp1099
I202
atp1100
Rp1101
sV\u043c\u0443\u0437\u044b\u043a\u0430
p1102
g6
((lp1103
I103
atp1104
Rp1105
sV\u0440\u044b\u0431\u043e\u043b\u043e\u0432
p1106
g6
((lp1107
I187
atp1108
Rp1109
sV\u0430\u0433\u0440\u043e
p1110
g6
((lp1111
I239
atp1112
Rp1113
sV\u0431\u043e\u0435\u0446
p1114
g6
((lp1115
I74
atp1116
Rp1117
sVbloomberg
p1118
g6
((lp1119
I44
atp1120
Rp1121
sVwelle
p1122
g6
((lp1123
I56
atp1124
Rp1125
sVfi
p1126
g6
((lp1127
I43
atp1128
Rp1129
sVcartoon
p1130
g6
((lp1131
I45
atp1132
Rp1133
sVfo
p1134
g6
((lp1135
I115
aI116
aI245
atp1136
Rp1137
sVa
p1138
g6
((lp1139
I186
aI43
atp1140
Rp1141
sV\u043d\u0442\u043d
p1142
g6
((lp1143
I9
atp1144
Rp1145
sVmrocks
p1146
g6
((lp1147
I178
atp1148
Rp1149
sVe
p1150
g6
((lp1151
I162
aI71
aI68
aI55
atp1152
Rp1153
sV\u0442\u0435\u043d\u043d\u0438\u0441
p1154
g6
((lp1155
I216
atp1156
Rp1157
sV\u043d\u0430\u0448\u0435
p1158
g6
((lp1159
I89
aI90
aI167
atp1160
Rp1161
sV\u043c\u0438\u0440
p1162
g6
((lp1163
I198
aI130
aI77
aI38
aI189
atp1164
Rp1165
sVi
p1166
g6
((lp1167
I67
atp1168
Rp1169
sV\u043f\u0438\u043a\u0441\u0435\u043b\u044c
p1170
g6
((lp1171
I1
atp1172
Rp1173
sV\u043e\u0442\u043d\u0438\u043a
p1174
g6
((lp1175
I187
atp1176
Rp1177
sVshowcase
p1178
g6
((lp1179
I203
atp1180
Rp1181
sV\u043d\u043e\u0432\u044b\u0439
p1182
g6
((lp1183
I7
atp1184
Rp1185
sVdeutsche
p1186
g6
((lp1187
I56
atp1188
Rp1189
sV\u043d\u0442\u0432
p1190
g6
((lp1191
I38
aI209
aI211
aI212
aI213
aI214
aI215
aI216
aI218
atp1192
Rp1193
sVocean
p1194
g6
((lp1195
I63
atp1196
Rp1197
sVajara
p1198
g6
((lp1199
I47
atp1200
Rp1201
sV\u043e\u0440\u0431\u0438\u0442\u0430
p1202
g6
((lp1203
I255
atp1204
Rp1205
sV\u043d\u0430\u0446\u0438\u043e\u043d\u0430\u043b\u044c\u043d\u044b\u0439
p1206
g6
((lp1207
I11
atp1208
Rp1209
sVsony
p1210
g6
((lp1211
I219
atp1212
Rp1213
sVenter
p1214
g6
((lp1215
I20
atp1216
Rp1217
sVgeographic
p1218
g6
((lp1219
I185
aI61
atp1220
Rp1221
sV\u043d\u043e\u0432\u043e\u0435
p1222
g6
((lp1223
I90
atp1224
Rp1225
ssS'__channel_objects__'
p1226
(dp1227
I0
ccopy_reg
_reconstructor
p1228
(cchannel_cache
Channel
p1229
c__builtin__
object
p1230
Ntp1231
Rp1232
(dp1233
S'image_url'
p1234
Vhttp://avatars.yandex.net/get-tv-shows/1333713588740M9764/orig
p1235
sS'name'
p1236
V\u0420\u0415\u041d \u0422\u0412
p1237
sS'info_url'
p1238
Vhttp://tv.yandex.ua/187/channels/689
p1239
sS'id'
p1240
I0
sbsI1
g1228
(g1229
g1230
Ntp1241
Rp1242
(dp1243
g1234
Vhttp://avatars.yandex.net/get-tv-channel-logos/1356612144844M65707/orig
p1244
sg1236
V\u041f\u0438\u043a\u0441\u0435\u043b\u044c
p1245
sg1238
Vhttp://tv.yandex.ua/187/channels/940
p1246
sg1240
I1
sbsI2
g1228
(g1229
g1230
Ntp1247
Rp1248
(dp1249
g1234
Vhttp://avatars.yandex.net/get-tv-channel-logos/1357919708763M31170/orig
p1250
sg1236
VUkrainian Fashion (\u0423\u043a\u0440\u0430\u0438\u043d\u0430)
p1251
sg1238
Vhttp://tv.yandex.ua/187/channels/939
p1252
sg1240
I2
sbsI3
g1228
(g1229
g1230
Ntp1253
Rp1254
(dp1255
g1234
Vhttp://avatars.yandex.net/get-tv-shows/1333715806060M27456/orig
p1256
sg1236
V1+1
p1257
sg1238
Vhttp://tv.yandex.ua/187/channels/620
p1258
sg1240
I3
sbsI4
g1228
(g1229
g1230
Ntp1259
Rp1260
(dp1261
g1234
Vhttp://avatars.yandex.net/get-tv-shows/1333712760038M4940/orig
p1262
sg1236
V\u0418\u043d\u0442\u0435\u0440
p1263
sg1238
Vhttp://tv.yandex.ua/187/channels/677
p1264
sg1240
I4
sbsI5
g1228
(g1229
g1230
Ntp1265
Rp1266
(dp1267
g1234
Vhttp://avatars.yandex.net/get-tv-channel-logos/1336200135761M53389/orig
p1268
sg1236
V\u0421\u0422\u0411
p1269
sg1238
Vhttp://tv.yandex.ua/187/channels/670
p1270
sg1240
I5
sbsI6
g1228
(g1229
g1230
Ntp1271
Rp1272
(dp1273
g1234
Vhttp://avatars.yandex.net/get-tv-shows/1333715667706M25067/orig
p1274
sg1236
VICTV
p1275
sg1238
Vhttp://tv.yandex.ua/187/channels/709
p1276
sg1240
I6
sbsI7
g1228
(g1229
g1230
Ntp1277
Rp1278
(dp1279
g1234
Vhttp://avatars.yandex.net/get-tv-shows/1333715224166M18872/orig
p1280
sg1236
V\u041d\u043e\u0432\u044b\u0439 \u043a\u0430\u043d\u0430\u043b
p1281
sg1238
Vhttp://tv.yandex.ua/187/channels/128
p1282
sg1240
I7
sbsI8
g1228
(g1229
g1230
Ntp1283
Rp1284
(dp1285
g1234
Vhttp://avatars.yandex.net/get-tv-shows/1333713186198M12220/orig
p1286
sg1236
V5 \u043a\u0430\u043d\u0430\u043b
p1287
sg1238
Vhttp://tv.yandex.ua/187/channels/586
p1288
sg1240
I8
sbsI9
g1228
(g1229
g1230
Ntp1289
Rp1290
(dp1291
g1234
Vhttp://avatars.yandex.net/get-tv-shows/1333715590594M58125/orig
p1292
sg1236
V\u041d\u0422\u041d
p1293
sg1238
Vhttp://tv.yandex.ua/187/channels/140
p1294
sg1240
I9
sbsI10
g1228
(g1229
g1230
Ntp1295
Rp1296
(dp1297
g1234
Vhttp://avatars.yandex.net/get-tv-channel-logos/1334666594849M22949/orig
p1298
sg1236
V\u0423\u043a\u0440\u0430\u0438\u043d\u0430
p1299
sg1238
Vhttp://tv.yandex.ua/187/channels/326
p1300
sg1240
I10
sbsI11
g1228
(g1229
g1230
Ntp1301
Rp1302
(dp1303
g1234
Vhttp://avatars.yandex.net/get-tv-shows/1333708395005M37754/orig
p1304
sg1236
V\u041f\u0435\u0440\u0432\u044b\u0439 \u043d\u0430\u0446\u0438\u043e\u043d\u0430\u043b\u044c\u043d\u044b\u0439 \u0423\u043a\u0440\u0430\u0438\u043d\u0430
p1305
sg1238
Vhttp://tv.yandex.ua/187/channels/773
p1306
sg1240
I11
sbsI12
g1228
(g1229
g1230
Ntp1307
Rp1308
(dp1309
g1234
Vhttp://avatars.yandex.net/get-tv-shows/1333715776098M80324/orig
p1310
sg1236
V\u041c1
p1311
sg1238
Vhttp://tv.yandex.ua/187/channels/632
p1312
sg1240
I12
sbsI13
g1228
(g1229
g1230
Ntp1313
Rp1314
(dp1315
g1234
Vhttp://avatars.yandex.net/get-tv-shows/1333715963968M59749/orig
p1316
sg1236
VAnimal Planet
p1317
sg1238
Vhttp://tv.yandex.ua/187/channels/607
p1318
sg1240
I13
sbsI14
g1228
(g1229
g1230
Ntp1319
Rp1320
(dp1321
g1234
Vhttp://avatars.yandex.net/get-tv-shows/1333712959005M39465/orig
p1322
sg1236
V2+2
p1323
sg1238
Vhttp://tv.yandex.ua/187/channels/583
p1324
sg1240
I14
sbsI15
g1228
(g1229
g1230
Ntp1325
Rp1326
(dp1327
g1234
Vhttp://avatars.yandex.net/get-tv-channel-logos/1334667568769M76050/orig
p1328
sg1236
V\u0422\u043e\u043d\u0438\u0441
p1329
sg1238
Vhttp://tv.yandex.ua/187/channels/627
p1330
sg1240
I15
sbsI16
g1228
(g1229
g1230
Ntp1331
Rp1332
(dp1333
g1234
Vhttp://avatars.yandex.net/get-tv-shows/1333715678544M95135/orig
p1334
sg1236
V\u0422\u041a \u041c\u0435\u0433\u0430
p1335
sg1238
Vhttp://tv.yandex.ua/187/channels/788
p1336
sg1240
I16
sbsI17
g1228
(g1229
g1230
Ntp1337
Rp1338
(dp1339
g1234
Vhttp://avatars.yandex.net/get-tv-shows/1333713949080M46069/orig
p1340
sg1236
V\u0422\u0412i
p1341
sg1238
Vhttp://tv.yandex.ua/187/channels/650
p1342
sg1240
I17
sbsI18
g1228
(g1229
g1230
Ntp1343
Rp1344
(dp1345
g1234
Vhttp://avatars.yandex.net/get-tv-shows/1333712652761M79477/orig
p1346
sg1236
V\u041a\u0438\u0435\u0432
p1347
sg1238
Vhttp://tv.yandex.ua/187/channels/634
p1348
sg1240
I18
sbsI19
g1228
(g1229
g1230
Ntp1349
Rp1350
(dp1351
g1234
Vhttp://avatars.yandex.net/get-tv-channel-logos/1334667359799M65057/orig
p1352
sg1236
V\u041f\u0435\u0440\u0432\u044b\u0439 \u0430\u0432\u0442\u043e\u043c\u043e\u0431\u0438\u043b\u044c\u043d\u044b\u0439
p1353
sg1238
Vhttp://tv.yandex.ua/187/channels/507
p1354
sg1240
I19
sbsI20
g1228
(g1229
g1230
Ntp1355
Rp1356
(dp1357
g1234
Vhttp://avatars.yandex.net/get-tv-shows/1333716835613M81770/orig
p1358
sg1236
VEnter-\u0444\u0438\u043b\u044c\u043c
p1359
sg1238
Vhttp://tv.yandex.ua/187/channels/281
p1360
sg1240
I20
sbsI21
g1228
(g1229
g1230
Ntp1361
Rp1362
(dp1363
g1234
Vhttp://avatars.yandex.net/get-tv-shows/1333715641594M53127/orig
p1364
sg1236
VO-TV
p1365
sg1238
Vhttp://tv.yandex.ua/187/channels/167
p1366
sg1240
I21
sbsI22
g1228
(g1229
g1230
Ntp1367
Rp1368
(dp1369
g1234
Vhttp://avatars.yandex.net/get-tv-shows/1333715284079M99947/orig
p1370
sg1236
V\u0418\u043d\u0442\u0435\u0440+
p1371
sg1238
Vhttp://tv.yandex.ua/187/channels/808
p1372
sg1240
I22
sbsI23
g1228
(g1229
g1230
Ntp1373
Rp1374
(dp1375
g1234
Vhttp://avatars.yandex.net/get-tv-channel-logos/1334666928508M51216/orig
p1376
sg1236
V\u041f\u0435\u0440\u0432\u044b\u0439 \u0434\u0435\u043b\u043e\u0432\u043e\u0439
p1377
sg1238
Vhttp://tv.yandex.ua/187/channels/85
p1378
sg1240
I23
sbsI24
g1228
(g1229
g1230
Ntp1379
Rp1380
(dp1381
g1234
Vhttp://avatars.yandex.net/get-tv-channel-logos/1334667133239M67794/orig
p1382
sg1236
V\u0422\u0415\u0422
p1383
sg1238
Vhttp://tv.yandex.ua/187/channels/479
p1384
sg1240
I24
sbsI25
g1228
(g1229
g1230
Ntp1385
Rp1386
(dp1387
g1234
Vhttp://avatars.yandex.net/get-tv-channel-logos/1357914650300M76133/orig
p1388
sg1236
V\u0424\u0443\u0442\u0431\u043e\u043b
p1389
sg1238
Vhttp://tv.yandex.ua/187/channels/666
p1390
sg1240
I25
sbsI26
g1228
(g1229
g1230
Ntp1391
Rp1392
(dp1393
g1234
Vhttp://avatars.yandex.net/get-tv-shows/1333716077131M91231/orig
p1394
sg1236
V\u0422\u0420\u041a \u0414\u043e\u043d\u0431\u0430\u0441\u0441
p1395
sg1238
Vhttp://tv.yandex.ua/187/channels/641
p1396
sg1240
I26
sbsI27
g1228
(g1229
g1230
Ntp1397
Rp1398
(dp1399
g1234
Vhttp://avatars.yandex.net/get-tv-channel-logos/1357914614690M92867/orig
p1400
sg1236
V\u0424\u0443\u0442\u0431\u043e\u043b+
p1401
sg1238
Vhttp://tv.yandex.ua/187/channels/753
p1402
sg1240
I27
sbsI28
g1228
(g1229
g1230
Ntp1403
Rp1404
(dp1405
g1234
Vhttp://avatars.yandex.net/get-tv-shows/1333713946027M27822/orig
p1406
sg1236
V34 \u0442\u0435\u043b\u0435\u043a\u0430\u043d\u0430\u043b
p1407
sg1238
Vhttp://tv.yandex.ua/187/channels/561
p1408
sg1240
I28
sbsI29
g1228
(g1229
g1230
Ntp1409
Rp1410
(dp1411
g1234
Vhttp://avatars.yandex.net/get-tv-shows/1333715233642M2369/orig
p1412
sg1236
V\u0420\u043e\u0441\u0441\u0438\u044f 24
p1413
sg1238
Vhttp://tv.yandex.ua/187/channels/291
p1414
sg1240
I29
sbsI30
g1228
(g1229
g1230
Ntp1415
Rp1416
(dp1417
g1234
Vhttp://avatars.yandex.net/get-tv-shows/1333713201452M27295/orig
p1418
sg1236
V\u041a1
p1419
sg1238
Vhttp://tv.yandex.ua/187/channels/453
p1420
sg1240
I30
sbsI31
g1228
(g1229
g1230
Ntp1421
Rp1422
(dp1423
g1234
Vhttp://avatars.yandex.net/get-tv-shows/1333715921518M78285/orig
p1424
sg1236
V\u0422\u0420\u041a \u042e\u043d\u0438\u043e\u043d
p1425
sg1238
Vhttp://tv.yandex.ua/187/channels/90
p1426
sg1240
I31
sbsI32
g1228
(g1229
g1230
Ntp1427
Rp1428
(dp1429
g1234
Vhttp://avatars.yandex.net/get-tv-shows/1333716890872M95176/orig
p1430
sg1236
V\u0425\u043e\u043a\u043a\u0435\u0439
p1431
sg1238
Vhttp://tv.yandex.ua/187/channels/702
p1432
sg1240
I32
sbsI33
g1228
(g1229
g1230
Ntp1433
Rp1434
(dp1435
g1234
Vhttp://avatars.yandex.net/get-tv-channel-logos/1348142097301M59393/orig
p1436
sg1236
V\u0421\u0422\u0421 International
p1437
sg1238
Vhttp://tv.yandex.ua/187/channels/166
p1438
sg1240
I33
sbsI34
g1228
(g1229
g1230
Ntp1439
Rp1440
(dp1441
g1234
Vhttp://avatars.yandex.net/get-tv-shows/1333715379889M58608/orig
p1442
sg1236
V\u041f\u0435\u0440\u0432\u044b\u0439
p1443
sg1238
Vhttp://tv.yandex.ua/187/channels/391
p1444
sg1240
I34
sbsI35
g1228
(g1229
g1230
Ntp1445
Rp1446
(dp1447
g1234
Vhttp://avatars.yandex.net/get-tv-shows/1333709125468M55872/orig
p1448
sg1236
VQTV
p1449
sg1238
Vhttp://tv.yandex.ua/187/channels/280
p1450
sg1240
I35
sbsI36
g1228
(g1229
g1230
Ntp1451
Rp1452
(dp1453
g1234
Vhttp://avatars.yandex.net/get-tv-shows/1333718316371M58959/orig
p1454
sg1236
V\u0420\u043e\u0441\u0441\u0438\u044f-\u041f\u043b\u0430\u043d\u0435\u0442\u0430
p1455
sg1238
Vhttp://tv.yandex.ua/187/channels/143
p1456
sg1240
I36
sbsI37
g1228
(g1229
g1230
Ntp1457
Rp1458
(dp1459
g1234
Vhttp://avatars.yandex.net/get-tv-shows/1333713805411M63113/orig
p1460
sg1236
V\u0422\u0412 \u0426\u0435\u043d\u0442\u0440-International
p1461
sg1238
Vhttp://tv.yandex.ua/187/channels/435
p1462
sg1240
I37
sbsI38
g1228
(g1229
g1230
Ntp1463
Rp1464
(dp1465
g1234
Vhttp://avatars.yandex.net/get-tv-shows/1333709186098M48833/orig
p1466
sg1236
V\u041d\u0422\u0412-\u041c\u0438\u0440
p1467
sg1238
Vhttp://tv.yandex.ua/187/channels/422
p1468
sg1240
I38
sbsI39
g1228
(g1229
g1230
Ntp1469
Rp1470
(dp1471
g1234
Vhttp://avatars.yandex.net/get-tv-shows/1333715305318M14526/orig
p1472
sg1236
V24 \u0422\u0435\u0445\u043d\u043e
p1473
sg1238
Vhttp://tv.yandex.ua/187/channels/710
p1474
sg1240
I39
sbsI40
g1228
(g1229
g1230
Ntp1475
Rp1476
(dp1477
g1234
Vhttp://avatars.yandex.net/get-tv-shows/1333716796927M20496/orig
p1478
sg1236
VAB Moteurs
p1479
sg1238
Vhttp://tv.yandex.ua/187/channels/579
p1480
sg1240
I40
sbsI41
g1228
(g1229
g1230
Ntp1481
Rp1482
(dp1483
g1234
Vhttp://avatars.yandex.net/get-tv-shows/1333708911984M73554/orig
p1484
sg1236
VAmazing Life
p1485
sg1238
Vhttp://tv.yandex.ua/187/channels/658
p1486
sg1240
I41
sbsI42
g1228
(g1229
g1230
Ntp1487
Rp1488
(dp1489
g1234
Vhttp://avatars.yandex.net/get-tv-shows/1333715451160M7791/orig
p1490
sg1236
VMa\u043a\u0441i-T\u0412
p1491
sg1238
Vhttp://tv.yandex.ua/187/channels/228
p1492
sg1240
I42
sbsI43
g1228
(g1229
g1230
Ntp1493
Rp1494
(dp1495
g1234
Vhttp://avatars.yandex.net/get-tv-channel-logos/1347977468008M80159/orig
p1496
sg1236
VAXN Sci-Fi
p1497
sg1238
Vhttp://tv.yandex.ua/187/channels/516
p1498
sg1240
I43
sbsI44
g1228
(g1229
g1230
Ntp1499
Rp1500
(dp1501
g1234
Vhttp://avatars.yandex.net/get-tv-shows/1333713774748M13525/orig
p1502
sg1236
VBloomberg
p1503
sg1238
Vhttp://tv.yandex.ua/187/channels/463
p1504
sg1240
I44
sbsI45
g1228
(g1229
g1230
Ntp1505
Rp1506
(dp1507
g1234
Vhttp://avatars.yandex.net/get-tv-shows/1333713460684M81763/orig
p1508
sg1236
VCartoon Network
p1509
sg1238
Vhttp://tv.yandex.ua/187/channels/601
p1510
sg1240
I45
sbsI46
g1228
(g1229
g1230
Ntp1511
Rp1512
(dp1513
g1234
Vhttp://avatars.yandex.net/get-tv-shows/1333713868645M58659/orig
p1514
sg1236
VCNN
p1515
sg1238
Vhttp://tv.yandex.ua/187/channels/495
p1516
sg1240
I46
sbsI47
g1228
(g1229
g1230
Ntp1517
Rp1518
(dp1519
g1234
Vhttp://avatars.yandex.net/get-tv-shows/1333713824656M29108/orig
p1520
sg1236
VAjara TV
p1521
sg1238
Vhttp://tv.yandex.ua/187/channels/756
p1522
sg1240
I47
sbsI48
g1228
(g1229
g1230
Ntp1523
Rp1524
(dp1525
g1234
Vhttp://avatars.yandex.net/get-tv-shows/1333716035229M94207/orig
p1526
sg1236
VDiscovery Channel
p1527
sg1238
Vhttp://tv.yandex.ua/187/channels/325
p1528
sg1240
I48
sbsI49
g1228
(g1229
g1230
Ntp1529
Rp1530
(dp1531
g1234
Vhttp://avatars.yandex.net/get-tv-channel-logos/1358335632205M86039/orig
p1532
sg1236
VDiscovery Science
p1533
sg1238
Vhttp://tv.yandex.ua/187/channels/409
p1534
sg1240
I49
sbsI50
g1228
(g1229
g1230
Ntp1535
Rp1536
(dp1537
g1234
Vhttp://avatars.yandex.net/get-tv-channel-logos/1358335592919M76257/orig
p1538
sg1236
VDiscovery World
p1539
sg1238
Vhttp://tv.yandex.ua/187/channels/437
p1540
sg1240
I50
sbsI51
g1228
(g1229
g1230
Ntp1541
Rp1542
(dp1543
g1234
Vhttp://avatars.yandex.net/get-tv-shows/1333713695937M46754/orig
p1544
sg1236
VESPN classic
p1545
sg1238
Vhttp://tv.yandex.ua/187/channels/60
p1546
sg1240
I51
sbsI52
g1228
(g1229
g1230
Ntp1547
Rp1548
(dp1549
g1234
Vhttp://avatars.yandex.net/get-tv-shows/1333715265608M77219/orig
p1550
sg1236
VBBC World
p1551
sg1238
Vhttp://tv.yandex.ua/187/channels/828
p1552
sg1240
I52
sbsI53
g1228
(g1229
g1230
Ntp1553
Rp1554
(dp1555
g1234
Vhttp://avatars.yandex.net/get-tv-shows/1333715747653M72464/orig
p1556
sg1236
VEuroNews
p1557
sg1238
Vhttp://tv.yandex.ua/187/channels/23
p1558
sg1240
I53
sbsI54
g1228
(g1229
g1230
Ntp1559
Rp1560
(dp1561
g1234
Vhttp://avatars.yandex.net/get-tv-shows/1333713989705M95921/orig
p1562
sg1236
VEurosport 2
p1563
sg1238
Vhttp://tv.yandex.ua/187/channels/850
p1564
sg1240
I54
sbsI55
g1228
(g1229
g1230
Ntp1565
Rp1566
(dp1567
g1234
Vhttp://avatars.yandex.net/get-tv-shows/1333716877043M9588/orig
p1568
sg1236
VExtreme Sports
p1569
sg1238
Vhttp://tv.yandex.ua/187/channels/288
p1570
sg1240
I55
sbsI56
g1228
(g1229
g1230
Ntp1571
Rp1572
(dp1573
g1234
Vhttp://avatars.yandex.net/get-tv-shows/1333712606553M24172/orig
p1574
sg1236
VDeutsche Welle
p1575
sg1238
Vhttp://tv.yandex.ua/187/channels/355
p1576
sg1240
I56
sbsI57
g1228
(g1229
g1230
Ntp1577
Rp1578
(dp1579
g1234
Vhttp://avatars.yandex.net/get-tv-shows/1333713810610M50051/orig
p1580
sg1236
VFashion TV
p1581
sg1238
Vhttp://tv.yandex.ua/187/channels/661
p1582
sg1240
I57
sbsI58
g1228
(g1229
g1230
Ntp1583
Rp1584
(dp1585
g1234
Vhttp://avatars.yandex.net/get-tv-shows/1333713925399M49999/orig
p1586
sg1236
VHD \u0421\u043f\u043e\u0440\u0442
p1587
sg1238
Vhttp://tv.yandex.ua/187/channels/429
p1588
sg1240
I58
sbsI59
g1228
(g1229
g1230
Ntp1589
Rp1590
(dp1591
g1234
Vhttp://avatars.yandex.net/get-tv-shows/1333713840422M72865/orig
p1592
sg1236
VMezzo
p1593
sg1238
Vhttp://tv.yandex.ua/187/channels/575
p1594
sg1240
I59
sbsI60
g1228
(g1229
g1230
Ntp1595
Rp1596
(dp1597
g1234
Vhttp://avatars.yandex.net/get-tv-shows/1333712622127M71944/orig
p1598
sg1236
VMGM
p1599
sg1238
Vhttp://tv.yandex.ua/187/channels/608
p1600
sg1240
I60
sbsI61
g1228
(g1229
g1230
Ntp1601
Rp1602
(dp1603
g1234
Vhttp://avatars.yandex.net/get-tv-shows/1333715529423M53477/orig
p1604
sg1236
VNational Geographic
p1605
sg1238
Vhttp://tv.yandex.ua/187/channels/102
p1606
sg1240
I61
sbsI62
g1228
(g1229
g1230
Ntp1607
Rp1608
(dp1609
g1234
Vhttp://avatars.yandex.net/get-tv-shows/1333713621438M28015/orig
p1610
sg1236
VNickelodeon
p1611
sg1238
Vhttp://tv.yandex.ua/187/channels/567
p1612
sg1240
I62
sbsI63
g1228
(g1229
g1230
Ntp1613
Rp1614
(dp1615
g1234
Vhttp://avatars.yandex.net/get-tv-shows/1333713085591M64755/orig
p1616
sg1236
VOcean TV
p1617
sg1238
Vhttp://tv.yandex.ua/187/channels/55
p1618
sg1240
I63
sbsI64
g1228
(g1229
g1230
Ntp1619
Rp1620
(dp1621
g1234
Vhttp://avatars.yandex.net/get-tv-shows/1333715680495M54747/orig
p1622
sg1236
VSyFy
p1623
sg1238
Vhttp://tv.yandex.ua/187/channels/75
p1624
sg1240
I64
sbsI65
g1228
(g1229
g1230
Ntp1625
Rp1626
(dp1627
g1234
Vhttp://avatars.yandex.net/get-tv-shows/1333715322381M67288/orig
p1628
sg1236
VTV1000
p1629
sg1238
Vhttp://tv.yandex.ua/187/channels/127
p1630
sg1240
I65
sbsI66
g1228
(g1229
g1230
Ntp1631
Rp1632
(dp1633
g1234
Vhttp://avatars.yandex.net/get-tv-shows/1333716722923M49423/orig
p1634
sg1236
VTV1000 \u0420\u0443\u0441\u0441\u043a\u043e\u0435 \u043a\u0438\u043d\u043e
p1635
sg1238
Vhttp://tv.yandex.ua/187/channels/267
p1636
sg1240
I66
sbsI67
g1228
(g1229
g1230
Ntp1637
Rp1638
(dp1639
g1234
Vhttp://avatars.yandex.net/get-tv-shows/1333713975231M23496/orig
p1640
sg1236
VTV XXI
p1641
sg1238
Vhttp://tv.yandex.ua/187/channels/309
p1642
sg1240
I67
sbsI68
g1228
(g1229
g1230
Ntp1643
Rp1644
(dp1645
g1234
Vhttp://avatars.yandex.net/get-tv-shows/1333715355758M56368/orig
p1646
sg1236
VLuxe HD
p1647
sg1238
Vhttp://tv.yandex.ua/187/channels/312
p1648
sg1240
I68
sbsI69
g1228
(g1229
g1230
Ntp1649
Rp1650
(dp1651
g1234
Vhttp://avatars.yandex.net/get-tv-shows/1333713708028M30550/orig
p1652
sg1236
VTV5
p1653
sg1238
Vhttp://tv.yandex.ua/187/channels/589
p1654
sg1240
I69
sbsI70
g1228
(g1229
g1230
Ntp1655
Rp1656
(dp1657
g1234
Vhttp://avatars.yandex.net/get-tv-shows/1333713528423M49234/orig
p1658
sg1236
VUniversal Channel
p1659
sg1238
Vhttp://tv.yandex.ua/187/channels/213
p1660
sg1240
I70
sbsI71
g1228
(g1229
g1230
Ntp1661
Rp1662
(dp1663
g1234
Vhttp://avatars.yandex.net/get-tv-shows/1333715635729M66606/orig
p1664
sg1236
VViasat Explorer
p1665
sg1238
Vhttp://tv.yandex.ua/187/channels/521
p1666
sg1240
I71
sbsI72
g1228
(g1229
g1230
Ntp1667
Rp1668
(dp1669
g1234
Vhttp://avatars.yandex.net/get-tv-shows/1333715410270M23339/orig
p1670
sg1236
VViasat History
p1671
sg1238
Vhttp://tv.yandex.ua/187/channels/277
p1672
sg1240
I72
sbsI73
g1228
(g1229
g1230
Ntp1673
Rp1674
(dp1675
g1234
Vhttp://avatars.yandex.net/get-tv-shows/1333707549264M49253/orig
p1676
sg1236
VWorld Fashion Channel
p1677
sg1238
Vhttp://tv.yandex.ua/187/channels/346
p1678
sg1240
I73
sbsI74
g1228
(g1229
g1230
Ntp1679
Rp1680
(dp1681
g1234
Vhttp://avatars.yandex.net/get-tv-shows/1333716071391M27068/orig
p1682
sg1236
V\u0411\u043e\u0435\u0446
p1683
sg1238
Vhttp://tv.yandex.ua/187/channels/454
p1684
sg1240
I74
sbsI75
g1228
(g1229
g1230
Ntp1685
Rp1686
(dp1687
g1234
Vhttp://avatars.yandex.net/get-tv-shows/1333713688755M57280/orig
p1688
sg1236
V\u0412\u0440\u0435\u043c\u044f
p1689
sg1238
Vhttp://tv.yandex.ua/187/channels/669
p1690
sg1240
I75
sbsI76
g1228
(g1229
g1230
Ntp1691
Rp1692
(dp1693
g1234
Vhttp://avatars.yandex.net/get-tv-channel-logos/1348587564748M70641/orig
p1694
sg1236
V\u0414\u0435\u0442\u0441\u043a\u0438\u0439
p1695
sg1238
Vhttp://tv.yandex.ua/187/channels/66
p1696
sg1240
I76
sbsI77
g1228
(g1229
g1230
Ntp1697
Rp1698
(dp1699
g1234
Vhttp://avatars.yandex.net/get-tv-channel-logos/1356771171081M25756/orig
p1700
sg1236
V\u0414\u0435\u0442\u0441\u043a\u0438\u0439 \u043c\u0438\u0440
p1701
sg1238
Vhttp://tv.yandex.ua/187/channels/747
p1702
sg1240
I77
sbsI78
g1228
(g1229
g1230
Ntp1703
Rp1704
(dp1705
g1234
Vhttp://avatars.yandex.net/get-tv-shows/1333708636011M82578/orig
p1706
sg1236
V\u0414\u043e\u043c \u043a\u0438\u043d\u043e
p1707
sg1238
Vhttp://tv.yandex.ua/187/channels/834
p1708
sg1240
I78
sbsI79
g1228
(g1229
g1230
Ntp1709
Rp1710
(dp1711
g1234
Vhttp://avatars.yandex.net/get-tv-shows/1333707554614M47050/orig
p1712
sg1236
V\u0417\u043e\u043e \u0422\u0412
p1713
sg1238
Vhttp://tv.yandex.ua/187/channels/273
p1714
sg1240
I79
sbsI80
g1228
(g1229
g1230
Ntp1715
Rp1716
(dp1717
g1234
Vhttp://avatars.yandex.net/get-tv-shows/1333715691315M43621/orig
p1718
sg1236
V\u0418\u043b\u043b\u044e\u0437\u0438\u043e\u043d +
p1719
sg1238
Vhttp://tv.yandex.ua/187/channels/123
p1720
sg1240
I80
sbsI81
g1228
(g1229
g1230
Ntp1721
Rp1722
(dp1723
g1234
Vhttp://avatars.yandex.net/get-tv-shows/1333707995986M34877/orig
p1724
sg1236
V\u0418\u043d\u0434\u0438\u044f \u0422\u0412
p1725
sg1238
Vhttp://tv.yandex.ua/187/channels/798
p1726
sg1240
I81
sbsI82
g1228
(g1229
g1230
Ntp1727
Rp1728
(dp1729
g1234
Vhttp://avatars.yandex.net/get-tv-shows/1333708316300M57639/orig
p1730
sg1236
V\u041a\u0438\u043d\u043e\u043a\u043b\u0443\u0431
p1731
sg1238
Vhttp://tv.yandex.ua/187/channels/462
p1732
sg1240
I82
sbsI83
g1228
(g1229
g1230
Ntp1733
Rp1734
(dp1735
g1234
Vhttp://avatars.yandex.net/get-tv-shows/1333716891806M18999/orig
p1736
sg1236
V\u041a\u0438\u043d\u043e\u043f\u043e\u043a\u0430\u0437
p1737
sg1238
Vhttp://tv.yandex.ua/187/channels/22
p1738
sg1240
I83
sbsI84
g1228
(g1229
g1230
Ntp1739
Rp1740
(dp1741
g1234
Vhttp://avatars.yandex.net/get-tv-shows/1333715225057M89214/orig
p1742
sg1236
V\u041a\u0438\u043d\u043e\u0441\u043e\u044e\u0437
p1743
sg1238
Vhttp://tv.yandex.ua/187/channels/71
p1744
sg1240
I84
sbsI85
g1228
(g1229
g1230
Ntp1745
Rp1746
(dp1747
g1234
Vhttp://avatars.yandex.net/get-tv-shows/1333713093430M11517/orig
p1748
sg1236
V\u041a\u0438\u043d\u043e\u0445\u0438\u0442
p1749
sg1238
Vhttp://tv.yandex.ua/187/channels/542
p1750
sg1240
I85
sbsI86
g1228
(g1229
g1230
Ntp1751
Rp1752
(dp1753
g1234
Vhttp://avatars.yandex.net/get-tv-channel-logos/1352298708156M61329/orig
p1754
sg1236
V\u041c\u0430\u0442\u044c \u0438 \u0434\u0438\u0442\u044f
p1755
sg1238
Vhttp://tv.yandex.ua/187/channels/618
p1756
sg1240
I86
sbsI87
g1228
(g1229
g1230
Ntp1757
Rp1758
(dp1759
g1234
Vhttp://avatars.yandex.net/get-tv-shows/1333713764780M72648/orig
p1760
sg1236
V\u041c\u043e\u044f \u041f\u043b\u0430\u043d\u0435\u0442\u0430
p1761
sg1238
Vhttp://tv.yandex.ua/187/channels/675
p1762
sg1240
I87
sbsI88
g1228
(g1229
g1230
Ntp1763
Rp1764
(dp1765
g1234
Vhttp://avatars.yandex.net/get-tv-channel-logos/1352298732686M97290/orig
p1766
sg1236
V\u041d\u0430\u0441\u0442\u043e\u044f\u0449\u0435\u0435 \u0421\u0442\u0440\u0430\u0448\u043d\u043e\u0435 \u0422\u0435\u043b\u0435\u0432\u0438\u0434\u0435\u043d\u0438\u0435
p1767
sg1238
Vhttp://tv.yandex.ua/187/channels/518
p1768
sg1240
I88
sbsI89
g1228
(g1229
g1230
Ntp1769
Rp1770
(dp1771
g1234
Vhttp://avatars.yandex.net/get-tv-shows/1333715883475M39981/orig
p1772
sg1236
V\u041d\u0430\u0448\u0435 \u043a\u0438\u043d\u043e
p1773
sg1238
Vhttp://tv.yandex.ua/187/channels/12
p1774
sg1240
I89
sbsI90
g1228
(g1229
g1230
Ntp1775
Rp1776
(dp1777
g1234
Vhttp://avatars.yandex.net/get-tv-shows/1333715281884M92118/orig
p1778
sg1236
V\u041d\u0430\u0448\u0435 \u041d\u043e\u0432\u043e\u0435 \u041a\u0438\u043d\u043e
p1779
sg1238
Vhttp://tv.yandex.ua/187/channels/485
p1780
sg1240
I90
sbsI91
g1228
(g1229
g1230
Ntp1781
Rp1782
(dp1783
g1234
Vhttp://avatars.yandex.net/get-tv-shows/1333709127662M17128/orig
p1784
sg1236
V\u041d\u043e\u0441\u0442\u0430\u043b\u044c\u0433\u0438\u044f
p1785
sg1238
Vhttp://tv.yandex.ua/187/channels/783
p1786
sg1240
I91
sbsI92
g1228
(g1229
g1230
Ntp1787
Rp1788
(dp1789
g1234
Vhttp://avatars.yandex.net/get-tv-shows/1333715457097M72151/orig
p1790
sg1236
V\u041e\u0445\u043e\u0442\u0430 \u0438 \u0440\u044b\u0431\u0430\u043b\u043a\u0430
p1791
sg1238
Vhttp://tv.yandex.ua/187/channels/617
p1792
sg1240
I92
sbsI93
g1228
(g1229
g1230
Ntp1793
Rp1794
(dp1795
g1234
Vhttp://avatars.yandex.net/get-tv-shows/1333707582031M183/orig
p1796
sg1236
V\u041f\u0440\u0435\u043c\u044c\u0435\u0440\u0430
p1797
sg1238
Vhttp://tv.yandex.ua/187/channels/566
p1798
sg1240
I93
sbsI94
g1228
(g1229
g1230
Ntp1799
Rp1800
(dp1801
g1234
Vhttp://avatars.yandex.net/get-tv-shows/1333712861918M74194/orig
p1802
sg1236
V\u0420\u0430\u0434\u043e\u0441\u0442\u044c \u041c\u043e\u044f
p1803
sg1238
Vhttp://tv.yandex.ua/187/channels/638
p1804
sg1240
I94
sbsI95
g1228
(g1229
g1230
Ntp1805
Rp1806
(dp1807
g1234
Vhttp://avatars.yandex.net/get-tv-shows/1333716071911M4423/orig
p1808
sg1236
V\u0420\u0411\u041a
p1809
sg1238
Vhttp://tv.yandex.ua/187/channels/743
p1810
sg1240
I95
sbsI96
g1228
(g1229
g1230
Ntp1811
Rp1812
(dp1813
g1234
Vhttp://avatars.yandex.net/get-tv-channel-logos/1348587808200M68387/orig
p1814
sg1236
V\u0420\u0443\u0441\u0441\u043a\u0438\u0439 \u0418\u043b\u043b\u044e\u0437\u0438\u043e\u043d
p1815
sg1238
Vhttp://tv.yandex.ua/187/channels/53
p1816
sg1240
I96
sbsI97
g1228
(g1229
g1230
Ntp1817
Rp1818
(dp1819
g1234
Vhttp://avatars.yandex.net/get-tv-shows/1333709116007M94471/orig
p1820
sg1236
V\u0420\u0443\u0441\u0441\u043a\u0438\u0439 \u042d\u043a\u0441\u0442\u0440\u0438\u043c
p1821
sg1238
Vhttp://tv.yandex.ua/187/channels/406
p1822
sg1240
I97
sbsI98
g1228
(g1229
g1230
Ntp1823
Rp1824
(dp1825
g1234
Vhttp://avatars.yandex.net/get-tv-channel-logos/1347458235853M37527/orig
p1826
sg1236
V\u0421\u0430\u0440\u0430\u0444\u0430\u043d
p1827
sg1238
Vhttp://tv.yandex.ua/187/channels/663
p1828
sg1240
I98
sbsI99
g1228
(g1229
g1230
Ntp1829
Rp1830
(dp1831
g1234
Vhttp://avatars.yandex.net/get-tv-shows/1333713216376M58195/orig
p1832
sg1236
V\u0421\u043f\u0430\u0441 \u0422\u0412
p1833
sg1238
Vhttp://tv.yandex.ua/187/channels/447
p1834
sg1240
I99
sbsI100
g1228
(g1229
g1230
Ntp1835
Rp1836
(dp1837
g1234
Vhttp://avatars.yandex.net/get-tv-shows/1333715467716M44576/orig
p1838
sg1236
V\u0421\u043f\u043e\u0440\u0442 1
p1839
sg1238
Vhttp://tv.yandex.ua/187/channels/181
p1840
sg1240
I100
sbsI101
g1228
(g1229
g1230
Ntp1841
Rp1842
(dp1843
g1234
Vhttp://avatars.yandex.net/get-tv-shows/1333715984312M65283/orig
p1844
sg1236
V\u0422\u0435\u043b\u0435\u043a\u0430\u0444\u0435
p1845
sg1238
Vhttp://tv.yandex.ua/187/channels/173
p1846
sg1240
I101
sbsI102
g1228
(g1229
g1230
Ntp1847
Rp1848
(dp1849
g1234
Vhttp://avatars.yandex.net/get-tv-shows/1333712862861M8549/orig
p1850
sg1236
V\u0422\u0435\u043b\u0435\u043a\u043b\u0443\u0431
p1851
sg1238
Vhttp://tv.yandex.ua/187/channels/163
p1852
sg1240
I102
sbsI103
g1228
(g1229
g1230
Ntp1853
Rp1854
(dp1855
g1234
Vhttp://avatars.yandex.net/get-tv-shows/1333715993038M13981/orig
p1856
sg1236
V\u041c\u0443\u0437\u044b\u043a\u0430 \u041f\u0435\u0440\u0432\u043e\u0433\u043e
p1857
sg1238
Vhttp://tv.yandex.ua/187/channels/715
p1858
sg1240
I103
sbsI104
g1228
(g1229
g1230
Ntp1859
Rp1860
(dp1861
g1234
Vhttp://avatars.yandex.net/get-tv-shows/1333715659064M35098/orig
p1862
sg1236
V\u0422\u0435\u043b\u0435\u043f\u0443\u0442\u0435\u0448\u0435\u0441\u0442\u0432\u0438\u044f
p1863
sg1238
Vhttp://tv.yandex.ua/187/channels/794
p1864
sg1240
I104
sbsI105
g1228
(g1229
g1230
Ntp1865
Rp1866
(dp1867
g1234
Vhttp://avatars.yandex.net/get-tv-shows/1333717714948M87568/orig
p1868
sg1236
V\u0422\u0438\u043d \u0422\u0412
p1869
sg1238
Vhttp://tv.yandex.ua/187/channels/716
p1870
sg1240
I105
sbsI106
g1228
(g1229
g1230
Ntp1871
Rp1872
(dp1873
g1234
Vhttp://avatars.yandex.net/get-tv-shows/1333715632130M79158/orig
p1874
sg1236
V\u0422\u041d\u0412
p1875
sg1238
Vhttp://tv.yandex.ua/187/channels/180
p1876
sg1240
I106
sbsI107
g1228
(g1229
g1230
Ntp1877
Rp1878
(dp1879
g1234
Vhttp://avatars.yandex.net/get-tv-shows/1333713418795M13518/orig
p1880
sg1236
V\u0423\u0441\u0430\u0434\u044c\u0431\u0430
p1881
sg1238
Vhttp://tv.yandex.ua/187/channels/779
p1882
sg1240
I107
sbsI108
g1228
(g1229
g1230
Ntp1883
Rp1884
(dp1885
g1234
Vhttp://avatars.yandex.net/get-tv-shows/1333713835801M19218/orig
p1886
sg1236
V\u0424\u0435\u043d\u0438\u043a\u0441+ \u041a\u0438\u043d\u043e
p1887
sg1238
Vhttp://tv.yandex.ua/187/channels/686
p1888
sg1240
I108
sbsI109
g1228
(g1229
g1230
Ntp1889
Rp1890
(dp1891
g1234
Vhttp://avatars.yandex.net/get-tv-shows/1333708104672M58814/orig
p1892
sg1236
V\u041e2\u0422\u0412
p1893
sg1238
Vhttp://tv.yandex.ua/187/channels/777
p1894
sg1240
I109
sbsI110
g1228
(g1229
g1230
Ntp1895
Rp1896
(dp1897
g1234
Vhttp://avatars.yandex.net/get-tv-shows/1333712629582M95129/orig
p1898
sg1236
V\u042d\u043a\u0441\u043f\u0435\u0440\u0442-\u0422\u0412
p1899
sg1238
Vhttp://tv.yandex.ua/187/channels/781
p1900
sg1240
I110
sbsI111
g1228
(g1229
g1230
Ntp1901
Rp1902
(dp1903
g1234
Vhttp://avatars.yandex.net/get-tv-shows/1333715595667M50557/orig
p1904
sg1236
VRTVI
p1905
sg1238
Vhttp://tv.yandex.ua/187/channels/76
p1906
sg1240
I111
sbsI112
g1228
(g1229
g1230
Ntp1907
Rp1908
(dp1909
g1234
Vhttp://avatars.yandex.net/get-tv-shows/1333709354444M76906/orig
p1910
sg1236
V24 \u0414\u041e\u041a
p1911
sg1238
Vhttp://tv.yandex.ua/187/channels/16
p1912
sg1240
I112
sbsI113
g1228
(g1229
g1230
Ntp1913
Rp1914
(dp1915
g1234
Vhttp://avatars.yandex.net/get-tv-shows/1333716896322M65134/orig
p1916
sg1236
VBBC
p1917
sg1238
Vhttp://tv.yandex.ua/187/channels/502
p1918
sg1240
I113
sbsI114
g1228
(g1229
g1230
Ntp1919
Rp1920
(dp1921
g1234
Vhttp://avatars.yandex.net/get-tv-shows/1333716106733M58501/orig
p1922
sg1236
VDa Vinci
p1923
sg1238
Vhttp://tv.yandex.ua/187/channels/410
p1924
sg1240
I114
sbsI115
g1228
(g1229
g1230
Ntp1925
Rp1926
(dp1927
g1234
Vhttp://avatars.yandex.net/get-tv-channel-logos/1349091347332M99473/orig
p1928
sg1236
VFOX
p1929
sg1238
Vhttp://tv.yandex.ua/187/channels/659
p1930
sg1240
I115
sbsI116
g1228
(g1229
g1230
Ntp1931
Rp1932
(dp1933
g1234
Vhttp://avatars.yandex.net/get-tv-shows/1333715973315M28208/orig
p1934
sg1236
VFox Life
p1935
sg1238
Vhttp://tv.yandex.ua/187/channels/615
p1936
sg1240
I116
sbsI117
g1228
(g1229
g1230
Ntp1937
Rp1938
(dp1939
g1234
Vhttp://avatars.yandex.net/get-tv-shows/1333715589076M84567/orig
p1940
sg1236
VGulli
p1941
sg1238
Vhttp://tv.yandex.ua/187/channels/810
p1942
sg1240
I117
sbsI118
g1228
(g1229
g1230
Ntp1943
Rp1944
(dp1945
g1234
Vhttp://avatars.yandex.net/get-tv-shows/1333707848439M17779/orig
p1946
sg1236
V\u0414\u043e\u043c\u0430\u0448\u043d\u0438\u0435 \u0436\u0438\u0432\u043e\u0442\u043d\u044b\u0435
p1947
sg1238
Vhttp://tv.yandex.ua/187/channels/520
p1948
sg1240
I118
sbsI119
g1228
(g1229
g1230
Ntp1949
Rp1950
(dp1951
g1234
Vhttp://avatars.yandex.net/get-tv-channel-logos/1348587696219M11284/orig
p1952
sg1236
V\u0415\u0432\u0440\u043e\u043a\u0438\u043d\u043e
p1953
sg1238
Vhttp://tv.yandex.ua/187/channels/352
p1954
sg1240
I119
sbsI120
g1228
(g1229
g1230
Ntp1955
Rp1956
(dp1957
g1234
Vhttp://avatars.yandex.net/get-tv-shows/1333715354479M98366/orig
p1958
sg1236
VInvestigation Discovery
p1959
sg1238
Vhttp://tv.yandex.ua/187/channels/19
p1960
sg1240
I120
sbsI121
g1228
(g1229
g1230
Ntp1961
Rp1962
(dp1963
g1234
Vhttp://avatars.yandex.net/get-tv-shows/1333712806377M47354/orig
p1964
sg1236
V\u0421\u0442\u0440\u0430\u043d\u0430
p1965
sg1238
Vhttp://tv.yandex.ua/187/channels/284
p1966
sg1240
I121
sbsI122
g1228
(g1229
g1230
Ntp1967
Rp1968
(dp1969
g1234
Vhttp://avatars.yandex.net/get-tv-shows/1333715462882M95375/orig
p1970
sg1236
VJimJam
p1971
sg1238
Vhttp://tv.yandex.ua/187/channels/494
p1972
sg1240
I122
sbsI123
g1228
(g1229
g1230
Ntp1973
Rp1974
(dp1975
g1234
Vhttp://avatars.yandex.net/get-tv-shows/1333716823193M39207/orig
p1976
sg1236
VKidsCo
p1977
sg1238
Vhttp://tv.yandex.ua/187/channels/598
p1978
sg1240
I123
sbsI124
g1228
(g1229
g1230
Ntp1979
Rp1980
(dp1981
g1234
Vhttp://avatars.yandex.net/get-tv-shows/1333708147128M24922/orig
p1982
sg1236
V\u041a\u0438\u043d\u043e\u043c\u0430\u043d\u0438\u044f
p1983
sg1238
Vhttp://tv.yandex.ua/187/channels/646
p1984
sg1240
I124
sbsI125
g1228
(g1229
g1230
Ntp1985
Rp1986
(dp1987
g1234
Vhttp://avatars.yandex.net/get-tv-shows/1333715618467M47634/orig
p1988
sg1236
V\u041a\u043e\u043c\u0435\u0434\u0438 \u0422\u0412
p1989
sg1238
Vhttp://tv.yandex.ua/187/channels/51
p1990
sg1240
I125
sbsI126
g1228
(g1229
g1230
Ntp1991
Rp1992
(dp1993
g1234
Vhttp://avatars.yandex.net/get-tv-shows/1333716724098M99858/orig
p1994
sg1236
V\u041a\u0438\u043d\u043e\u043f\u043e\u043a\u0430\u0437 HD-1
p1995
sg1238
Vhttp://tv.yandex.ua/187/channels/138
p1996
sg1240
I126
sbsI127
g1228
(g1229
g1230
Ntp1997
Rp1998
(dp1999
g1234
Vhttp://avatars.yandex.net/get-tv-shows/1333715600209M27625/orig
p2000
sg1236
V\u041a\u0438\u043d\u043e\u043f\u043e\u043a\u0430\u0437 HD-2
p2001
sg1238
Vhttp://tv.yandex.ua/187/channels/741
p2002
sg1240
I127
sbsI128
g1228
(g1229
g1230
Ntp2003
Rp2004
(dp2005
g1234
Vhttp://avatars.yandex.net/get-tv-shows/1333713174626M97345/orig
p2006
sg1236
VMan TV
p2007
sg1238
Vhttp://tv.yandex.ua/187/channels/15
p2008
sg1240
I128
sbsI129
g1228
(g1229
g1230
Ntp2009
Rp2010
(dp2011
g1234
Vhttp://avatars.yandex.net/get-tv-shows/1333713698572M2584/orig
p2012
sg1236
VMezzo Live HD
p2013
sg1238
Vhttp://tv.yandex.ua/187/channels/801
p2014
sg1240
I129
sbsI130
g1228
(g1229
g1230
Ntp2015
Rp2016
(dp2017
g1234
Vhttp://avatars.yandex.net/get-tv-shows/1333707984831M90146/orig
p2018
sg1236
V\u041c\u0438\u0440 \u0441\u0435\u0440\u0438\u0430\u043b\u0430
p2019
sg1238
Vhttp://tv.yandex.ua/187/channels/145
p2020
sg1240
I130
sbsI131
g1228
(g1229
g1230
Ntp2021
Rp2022
(dp2023
g1234
Vhttp://avatars.yandex.net/get-tv-shows/1333715305189M35114/orig
p2024
sg1236
V\u041c\u0443\u0436\u0441\u043a\u043e\u0439
p2025
sg1238
Vhttp://tv.yandex.ua/187/channels/82
p2026
sg1240
I131
sbsI132
g1228
(g1229
g1230
Ntp2027
Rp2028
(dp2029
g1234
Vhttp://avatars.yandex.net/get-tv-shows/1333713644403M21507/orig
p2030
sg1236
VViasat Nature CEE
p2031
sg1238
Vhttp://tv.yandex.ua/187/channels/765
p2032
sg1240
I132
sbsI133
g1228
(g1229
g1230
Ntp2033
Rp2034
(dp2035
g1234
Vhttp://avatars.yandex.net/get-tv-shows/1333713433570M85481/orig
p2036
sg1236
VNat Geo WILD
p2037
sg1238
Vhttp://tv.yandex.ua/187/channels/223
p2038
sg1240
I133
sbsI134
g1228
(g1229
g1230
Ntp2039
Rp2040
(dp2041
g1234
Vhttp://avatars.yandex.net/get-tv-shows/1333715451260M61766/orig
p2042
sg1236
VC Music TV
p2043
sg1238
Vhttp://tv.yandex.ua/187/channels/319
p2044
sg1240
I134
sbsI135
g1228
(g1229
g1230
Ntp2045
Rp2046
(dp2047
g1234
Vhttp://avatars.yandex.net/get-tv-shows/1333717651949M12497/orig
p2048
sg1236
V\u0424\u0443\u0442\u0431\u043e\u043b
p2049
sg1238
Vhttp://tv.yandex.ua/187/channels/328
p2050
sg1240
I135
sbsI136
g1228
(g1229
g1230
Ntp2051
Rp2052
(dp2053
g1234
Vhttp://avatars.yandex.net/get-tv-shows/1333707836435M19145/orig
p2054
sg1236
V\u041c\u0443\u043b\u044c\u0442\u0438\u043c\u0430\u043d\u0438\u044f
p2055
sg1238
Vhttp://tv.yandex.ua/187/channels/31
p2056
sg1240
I136
sbsI137
g1228
(g1229
g1230
Ntp2057
Rp2058
(dp2059
g1234
Vhttp://avatars.yandex.net/get-tv-shows/1333713751068M18827/orig
p2060
sg1236
VCNBC
p2061
sg1238
Vhttp://tv.yandex.ua/187/channels/831
p2062
sg1240
I137
sbsI138
g1228
(g1229
g1230
Ntp2063
Rp2064
(dp2065
g1234
Vhttp://avatars.yandex.net/get-tv-shows/1333716057211M42929/orig
p2066
sg1236
V\u041a\u0418\u041d\u041e \u041f\u041b\u042e\u0421
p2067
sg1238
Vhttp://tv.yandex.ua/187/channels/644
p2068
sg1240
I138
sbsI139
g1228
(g1229
g1230
Ntp2069
Rp2070
(dp2071
g1234
Vhttp://avatars.yandex.net/get-tv-shows/1333713846214M92620/orig
p2072
sg1236
V\u041f\u0430\u0440\u043a \u0440\u0430\u0437\u0432\u043b\u0435\u0447\u0435\u043d\u0438\u0439
p2073
sg1238
Vhttp://tv.yandex.ua/187/channels/37
p2074
sg1240
I139
sbsI140
g1228
(g1229
g1230
Ntp2075
Rp2076
(dp2077
g1234
Vhttp://avatars.yandex.net/get-tv-shows/1333715232241M630/orig
p2078
sg1236
V\u041f\u0441\u0438\u0445\u043e\u043b\u043e\u0433\u0438\u044f 21
p2079
sg1238
Vhttp://tv.yandex.ua/187/channels/434
p2080
sg1240
I140
sbsI141
g1228
(g1229
g1230
Ntp2081
Rp2082
(dp2083
g1234
Vhttp://avatars.yandex.net/get-tv-shows/1333712701189M79995/orig
p2084
sg1236
VEnglish Club TV
p2085
sg1238
Vhttp://tv.yandex.ua/187/channels/757
p2086
sg1240
I141
sbsI142
g1228
(g1229
g1230
Ntp2087
Rp2088
(dp2089
g1234
Vhttp://avatars.yandex.net/get-tv-shows/1333713945719M63469/orig
p2090
sg1236
V\u0414\u043e\u0436\u0434\u044c
p2091
sg1238
Vhttp://tv.yandex.ua/187/channels/384
p2092
sg1240
I142
sbsI143
g1228
(g1229
g1230
Ntp2093
Rp2094
(dp2095
g1234
Vhttp://avatars.yandex.net/get-tv-shows/1333713816884M48668/orig
p2096
sg1236
VRussian Travel Guide
p2097
sg1238
Vhttp://tv.yandex.ua/187/channels/648
p2098
sg1240
I143
sbsI144
g1228
(g1229
g1230
Ntp2099
Rp2100
(dp2101
g1234
Vhttp://avatars.yandex.net/get-tv-shows/1333715412490M65597/orig
p2102
sg1236
VRussia Today
p2103
sg1238
Vhttp://tv.yandex.ua/187/channels/313
p2104
sg1240
I144
sbsI145
g1228
(g1229
g1230
Ntp2105
Rp2106
(dp2107
g1234
Vhttp://avatars.yandex.net/get-tv-shows/1333707837348M40226/orig
p2108
sg1236
VFrance 24
p2109
sg1238
Vhttp://tv.yandex.ua/187/channels/461
p2110
sg1240
I145
sbsI146
g1228
(g1229
g1230
Ntp2111
Rp2112
(dp2113
g1234
Vhttp://avatars.yandex.net/get-tv-shows/1333713259234M5321/orig
p2114
sg1236
V\u041a\u0430\u0440\u0443\u0441\u0435\u043b\u044c INT
p2115
sg1238
Vhttp://tv.yandex.ua/187/channels/465
p2116
sg1240
I146
sbsI147
g1228
(g1229
g1230
Ntp2117
Rp2118
(dp2119
g1234
Vhttp://avatars.yandex.net/get-tv-shows/1333712713031M6232/orig
p2120
sg1236
VStyle TV
p2121
sg1238
Vhttp://tv.yandex.ua/187/channels/119
p2122
sg1240
I147
sbsI148
g1228
(g1229
g1230
Ntp2123
Rp2124
(dp2125
g1234
Vhttp://avatars.yandex.net/get-tv-shows/1333713389359M36074/orig
p2126
sg1236
VHD \u041c\u0435\u0434\u0438\u0430
p2127
sg1238
Vhttp://tv.yandex.ua/187/channels/631
p2128
sg1240
I148
sbsI149
g1228
(g1229
g1230
Ntp2129
Rp2130
(dp2131
g1234
Vhttp://avatars.yandex.net/get-tv-shows/1333715673198M2663/orig
p2132
sg1236
V\u041f\u0435\u0440\u0432\u044b\u0439 \u043c\u0435\u0442\u0435\u043e
p2133
sg1238
Vhttp://tv.yandex.ua/187/channels/59
p2134
sg1240
I149
sbsI150
g1228
(g1229
g1230
Ntp2135
Rp2136
(dp2137
g1234
Vhttp://avatars.yandex.net/get-tv-shows/1333713176648M89316/orig
p2138
sg1236
VTV1000 Action
p2139
sg1238
Vhttp://tv.yandex.ua/187/channels/125
p2140
sg1240
I150
sbsI151
g1228
(g1229
g1230
Ntp2141
Rp2142
(dp2143
g1234
Vhttp://avatars.yandex.net/get-tv-shows/1333713783253M34729/orig
p2144
sg1236
V\u0427\u041f.Info
p2145
sg1238
Vhttp://tv.yandex.ua/187/channels/315
p2146
sg1240
I151
sbsI152
g1228
(g1229
g1230
Ntp2147
Rp2148
(dp2149
g1234
Vhttp://avatars.yandex.net/get-tv-shows/1333713457072M47395/orig
p2150
sg1236
V\u0423\u043b\u044b\u0431\u043a\u0430 \u0420\u0435\u0431\u0435\u043d\u043a\u0430
p2151
sg1238
Vhttp://tv.yandex.ua/187/channels/789
p2152
sg1240
I152
sbsI153
g1228
(g1229
g1230
Ntp2153
Rp2154
(dp2155
g1234
Vhttp://avatars.yandex.net/get-tv-shows/1333715744438M85797/orig
p2156
sg1236
V\u0423\u0441\u043f\u0435\u0445
p2157
sg1238
Vhttp://tv.yandex.ua/187/channels/547
p2158
sg1240
I153
sbsI154
g1228
(g1229
g1230
Ntp2159
Rp2160
(dp2161
g1234
Vhttp://avatars.yandex.net/get-tv-shows/1333712655464M52829/orig
p2162
sg1236
VVH1 Classic
p2163
sg1238
Vhttp://tv.yandex.ua/187/channels/156
p2164
sg1240
I154
sbsI155
g1228
(g1229
g1230
Ntp2165
Rp2166
(dp2167
g1234
Vhttp://avatars.yandex.net/get-tv-shows/1333712775005M93791/orig
p2168
sg1236
VViasat Sport
p2169
sg1238
Vhttp://tv.yandex.ua/187/channels/455
p2170
sg1240
I155
sbsI156
g1228
(g1229
g1230
Ntp2171
Rp2172
(dp2173
g1234
Vhttp://avatars.yandex.net/get-tv-shows/1333713681468M47452/orig
p2174
sg1236
V\u0412\u043e\u043f\u0440\u043e\u0441\u044b \u0438 \u043e\u0442\u0432\u0435\u0442\u044b
p2175
sg1238
Vhttp://tv.yandex.ua/187/channels/333
p2176
sg1240
I156
sbsI157
g1228
(g1229
g1230
Ntp2177
Rp2178
(dp2179
g1234
Vhttp://avatars.yandex.net/get-tv-shows/1333716913379M87044/orig
p2180
sg1236
V\u0412\u0441\u0435\u0433\u0434\u0430 \u0441 \u0442\u043e\u0431\u043e\u0439
p2181
sg1238
Vhttp://tv.yandex.ua/187/channels/604
p2182
sg1240
I157
sbsI158
g1228
(g1229
g1230
Ntp2183
Rp2184
(dp2185
g1234
Vhttp://avatars.yandex.net/get-tv-shows/1333708247585M68464/orig
p2186
sg1236
V\u041e\u0440\u0443\u0436\u0438\u0435
p2187
sg1238
Vhttp://tv.yandex.ua/187/channels/376
p2188
sg1240
I158
sbsI159
g1228
(g1229
g1230
Ntp2189
Rp2190
(dp2191
g1234
Vhttp://avatars.yandex.net/get-tv-shows/1333715997298M69767/orig
p2192
sg1236
V\u041a\u0442\u043e \u0435\u0441\u0442\u044c \u043a\u0442\u043e
p2193
sg1238
Vhttp://tv.yandex.ua/187/channels/769
p2194
sg1240
I159
sbsI160
g1228
(g1229
g1230
Ntp2195
Rp2196
(dp2197
g1234
Vhttp://avatars.yandex.net/get-tv-shows/1333716819878M97368/orig
p2198
sg1236
V\u0417\u0430\u0433\u043e\u0440\u043e\u0434\u043d\u044b\u0439
p2199
sg1238
Vhttp://tv.yandex.ua/187/channels/705
p2200
sg1240
I160
sbsI161
g1228
(g1229
g1230
Ntp2201
Rp2202
(dp2203
g1234
Vhttp://avatars.yandex.net/get-tv-shows/1333712702253M97202/orig
p2204
sg1236
V\u0417\u0430\u0433\u043e\u0440\u043e\u0434\u043d\u0430\u044f \u0436\u0438\u0437\u043d\u044c
p2205
sg1238
Vhttp://tv.yandex.ua/187/channels/21
p2206
sg1240
I161
sbsI162
g1228
(g1229
g1230
Ntp2207
Rp2208
(dp2209
g1234
Vhttp://avatars.yandex.net/get-tv-shows/1333713481818M96462/orig
p2210
sg1236
VLuxe.TV
p2211
sg1238
Vhttp://tv.yandex.ua/187/channels/442
p2212
sg1240
I162
sbsI163
g1228
(g1229
g1230
Ntp2213
Rp2214
(dp2215
g1234
Vhttp://avatars.yandex.net/get-tv-shows/1333715814729M63454/orig
p2216
sg1236
VZee-TV
p2217
sg1238
Vhttp://tv.yandex.ua/187/channels/626
p2218
sg1240
I163
sbsI164
g1228
(g1229
g1230
Ntp2219
Rp2220
(dp2221
g1234
Vhttp://avatars.yandex.net/get-tv-shows/1333716033811M15593/orig
p2222
sg1236
V\u0422\u043e\u043d\u0443\u0441-\u0422\u0412
p2223
sg1238
Vhttp://tv.yandex.ua/187/channels/637
p2224
sg1240
I164
sbsI165
g1228
(g1229
g1230
Ntp2225
Rp2226
(dp2227
g1234
Vhttp://avatars.yandex.net/get-tv-shows/1333713729069M489/orig
p2228
sg1236
V\u0420\u0422\u0412 - \u041b\u044e\u0431\u0438\u043c\u043e\u0435 \u043a\u0438\u043d\u043e
p2229
sg1238
Vhttp://tv.yandex.ua/187/channels/477
p2230
sg1240
I165
sbsI166
g1228
(g1229
g1230
Ntp2231
Rp2232
(dp2233
g1234
Vhttp://avatars.yandex.net/get-tv-shows/1333716969502M68148/orig
p2234
sg1236
VMCM POP
p2235
sg1238
Vhttp://tv.yandex.ua/187/channels/804
p2236
sg1240
I166
sbsI167
g1228
(g1229
g1230
Ntp2237
Rp2238
(dp2239
g1234
Vhttp://avatars.yandex.net/get-tv-shows/1333715741881M37018/orig
p2240
sg1236
V\u0420\u0422\u0412 - \u041d\u0430\u0448\u0435 \u043a\u0438\u043d\u043e
p2241
sg1238
Vhttp://tv.yandex.ua/187/channels/176
p2242
sg1240
I167
sbsI168
g1228
(g1229
g1230
Ntp2243
Rp2244
(dp2245
g1234
Vhttp://avatars.yandex.net/get-tv-shows/1333713682028M49283/orig
p2246
sg1236
VMCM TOP
p2247
sg1238
Vhttp://tv.yandex.ua/187/channels/533
p2248
sg1240
I168
sbsI169
g1228
(g1229
g1230
Ntp2249
Rp2250
(dp2251
g1234
Vhttp://avatars.yandex.net/get-tv-shows/1333712756259M40685/orig
p2252
sg1236
V\u0421\u043e\u0432\u0435\u0440\u0448\u0435\u043d\u043d\u043e \u0441\u0435\u043a\u0440\u0435\u0442\u043d\u043e
p2253
sg1238
Vhttp://tv.yandex.ua/187/channels/275
p2254
sg1240
I169
sbsI170
g1228
(g1229
g1230
Ntp2255
Rp2256
(dp2257
g1234
Vhttp://avatars.yandex.net/get-tv-shows/1333716791539M48053/orig
p2258
sg1236
VTDK
p2259
sg1238
Vhttp://tv.yandex.ua/187/channels/776
p2260
sg1240
I170
sbsI171
g1228
(g1229
g1230
Ntp2261
Rp2262
(dp2263
g1234
Vhttp://avatars.yandex.net/get-tv-shows/1333715457146M21776/orig
p2264
sg1236
VMusicBox RU
p2265
sg1238
Vhttp://tv.yandex.ua/187/channels/25
p2266
sg1240
I171
sbsI172
g1228
(g1229
g1230
Ntp2267
Rp2268
(dp2269
g1234
Vhttp://avatars.yandex.net/get-tv-shows/1333708713306M38200/orig
p2270
sg1236
VTiJi
p2271
sg1238
Vhttp://tv.yandex.ua/187/channels/555
p2272
sg1240
I172
sbsI173
g1228
(g1229
g1230
Ntp2273
Rp2274
(dp2275
g1234
Vhttp://avatars.yandex.net/get-tv-shows/1333709246196M1207/orig
p2276
sg1236
VBaby TV
p2277
sg1238
Vhttp://tv.yandex.ua/187/channels/308
p2278
sg1240
I173
sbsI174
g1228
(g1229
g1230
Ntp2279
Rp2280
(dp2281
g1234
Vhttp://avatars.yandex.net/get-tv-shows/1333713807307M19303/orig
p2282
sg1236
VMusicBox TV
p2283
sg1238
Vhttp://tv.yandex.ua/187/channels/642
p2284
sg1240
I174
sbsI175
g1228
(g1229
g1230
Ntp2285
Rp2286
(dp2287
g1234
Vhttp://avatars.yandex.net/get-tv-shows/1333708797928M94347/orig
p2288
sg1236
VMTV Dance
p2289
sg1238
Vhttp://tv.yandex.ua/187/channels/332
p2290
sg1240
I175
sbsI176
g1228
(g1229
g1230
Ntp2291
Rp2292
(dp2293
g1234
Vhttp://avatars.yandex.net/get-tv-shows/1333708221386M8318/orig
p2294
sg1236
VmyZen.tv
p2295
sg1238
Vhttp://tv.yandex.ua/187/channels/141
p2296
sg1240
I176
sbsI177
g1228
(g1229
g1230
Ntp2297
Rp2298
(dp2299
g1234
Vhttp://avatars.yandex.net/get-tv-shows/1333716825980M37994/orig
p2300
sg1236
VMTV Hits
p2301
sg1238
Vhttp://tv.yandex.ua/187/channels/849
p2302
sg1240
I177
sbsI178
g1228
(g1229
g1230
Ntp2303
Rp2304
(dp2305
g1234
Vhttp://avatars.yandex.net/get-tv-shows/1333713043514M62310/orig
p2306
sg1236
VMTV Rocks
p2307
sg1238
Vhttp://tv.yandex.ua/187/channels/388
p2308
sg1240
I178
sbsI179
g1228
(g1229
g1230
Ntp2309
Rp2310
(dp2311
g1234
Vhttp://avatars.yandex.net/get-tv-shows/1333708746764M31248/orig
p2312
sg1236
V\u041d\u0435\u0434\u0432\u0438\u0436\u0438\u043c\u043e\u0441\u0442\u044c
p2313
sg1238
Vhttp://tv.yandex.ua/187/channels/552
p2314
sg1240
I179
sbsI180
g1228
(g1229
g1230
Ntp2315
Rp2316
(dp2317
g1234
Vhttp://avatars.yandex.net/get-tv-channel-logos/1348227921654M54810/orig
p2318
sg1236
V\u041c\u0423\u0417 \u0422\u0412
p2319
sg1238
Vhttp://tv.yandex.ua/187/channels/897
p2320
sg1240
I180
sbsI181
g1228
(g1229
g1230
Ntp2321
Rp2322
(dp2323
g1234
Vhttp://avatars.yandex.net/get-tv-shows/1333713976352M79712/orig
p2324
sg1236
VNewsOne
p2325
sg1238
Vhttp://tv.yandex.ua/187/channels/247
p2326
sg1240
I181
sbsI182
g1228
(g1229
g1230
Ntp2327
Rp2328
(dp2329
g1234
Vhttp://avatars.yandex.net/get-tv-shows/1333712715401M79935/orig
p2330
sg1236
VTLC
p2331
sg1238
Vhttp://tv.yandex.ua/187/channels/425
p2332
sg1240
I182
sbsI183
g1228
(g1229
g1230
Ntp2333
Rp2334
(dp2335
g1234
Vhttp://avatars.yandex.net/get-tv-shows/1333713582281M8534/orig
p2336
sg1236
V\u041f\u0435\u0440\u0432\u044b\u0439 \u043e\u0431\u0440\u0430\u0437\u043e\u0432\u0430\u0442\u0435\u043b\u044c\u043d\u044b\u0439
p2337
sg1238
Vhttp://tv.yandex.ua/187/channels/774
p2338
sg1240
I183
sbsI184
g1228
(g1229
g1230
Ntp2339
Rp2340
(dp2341
g1234
Vhttp://avatars.yandex.net/get-tv-shows/1333715189104M67729/orig
p2342
sg1236
VRu.TV
p2343
sg1238
Vhttp://tv.yandex.ua/187/channels/258
p2344
sg1240
I184
sbsI185
g1228
(g1229
g1230
Ntp2345
Rp2346
(dp2347
g1234
Vhttp://avatars.yandex.net/get-tv-shows/1333709317667M77343/orig
p2348
sg1236
VNational Geographic HD
p2349
sg1238
Vhttp://tv.yandex.ua/187/channels/389
p2350
sg1240
I185
sbsI186
g1228
(g1229
g1230
Ntp2351
Rp2352
(dp2353
g1234
Vhttp://avatars.yandex.net/get-tv-channel-logos/1357917709899M67755/orig
p2354
sg1236
VA-ONE
p2355
sg1238
Vhttp://tv.yandex.ua/187/channels/680
p2356
sg1240
I186
sbsI187
g1228
(g1229
g1230
Ntp2357
Rp2358
(dp2359
g1234
Vhttp://avatars.yandex.net/get-tv-shows/1333715841246M94104/orig
p2360
sg1236
V\u041e\u0445\u043e\u0442\u043d\u0438\u043a \u0438 \u0420\u044b\u0431\u043e\u043b\u043e\u0432
p2361
sg1238
Vhttp://tv.yandex.ua/187/channels/132
p2362
sg1240
I187
sbsI188
g1228
(g1229
g1230
Ntp2363
Rp2364
(dp2365
g1234
Vhttp://avatars.yandex.net/get-tv-shows/1333708247583M29832/orig
p2366
sg1236
V\u041d\u0430\u0443\u043a\u0430 2.0
p2367
sg1238
Vhttp://tv.yandex.ua/187/channels/723
p2368
sg1240
I188
sbsI189
g1228
(g1229
g1230
Ntp2369
Rp2370
(dp2371
g1234
Vhttp://avatars.yandex.net/get-tv-shows/1333716732109M13710/orig
p2372
sg1236
V\u041e\u0442\u043a\u0440\u044b\u0442\u044b\u0439 \u041c\u0438\u0440
p2373
sg1238
Vhttp://tv.yandex.ua/187/channels/39
p2374
sg1240
I189
sbsI190
g1228
(g1229
g1230
Ntp2375
Rp2376
(dp2377
g1234
Vhttp://avatars.yandex.net/get-tv-channel-logos/1352288866335M72721/orig
p2378
sg1236
V\u0421\u043f\u043e\u0440\u0442
p2379
sg1238
Vhttp://tv.yandex.ua/187/channels/154
p2380
sg1240
I190
sbsI191
g1228
(g1229
g1230
Ntp2381
Rp2382
(dp2383
g1234
Vhttp://avatars.yandex.net/get-tv-shows/1333715766749M89647/orig
p2384
sg1236
VZoo\u043f\u0430\u0440\u043a
p2385
sg1238
Vhttp://tv.yandex.ua/187/channels/367
p2386
sg1240
I191
sbsI192
g1228
(g1229
g1230
Ntp2387
Rp2388
(dp2389
g1234
Vhttp://avatars.yandex.net/get-tv-shows/1333712862430M29121/orig
p2390
sg1236
V\u0414\u0440\u0430\u0439\u0432
p2391
sg1238
Vhttp://tv.yandex.ua/187/channels/505
p2392
sg1240
I192
sbsI193
g1228
(g1229
g1230
Ntp2393
Rp2394
(dp2395
g1234
Vhttp://avatars.yandex.net/get-tv-shows/1333715678054M1312/orig
p2396
sg1236
V\u0417\u0434\u043e\u0440\u043e\u0432\u043e\u0435 \u0422\u0412
p2397
sg1238
Vhttp://tv.yandex.ua/187/channels/595
p2398
sg1240
I193
sbsI194
g1228
(g1229
g1230
Ntp2399
Rp2400
(dp2401
g1234
Vhttp://avatars.yandex.net/get-tv-shows/1333708154865M86208/orig
p2402
sg1236
V\u0420\u0435\u0442\u0440\u043e \u0422\u0412
p2403
sg1238
Vhttp://tv.yandex.ua/187/channels/6
p2404
sg1240
I194
sbsI195
g1228
(g1229
g1230
Ntp2405
Rp2406
(dp2407
g1234
Vhttp://avatars.yandex.net/get-tv-shows/1333716745405M72465/orig
p2408
sg1236
VRusong TV
p2409
sg1238
Vhttp://tv.yandex.ua/187/channels/591
p2410
sg1240
I195
sbsI196
g1228
(g1229
g1230
Ntp2411
Rp2412
(dp2413
g1234
Vhttp://avatars.yandex.net/get-tv-shows/1333713984447M70308/orig
p2414
sg1236
VEurosport
p2415
sg1238
Vhttp://tv.yandex.ua/187/channels/737
p2416
sg1240
I196
sbsI197
g1228
(g1229
g1230
Ntp2417
Rp2418
(dp2419
g1234
Vhttp://avatars.yandex.net/get-tv-shows/1333716803563M50186/orig
p2420
sg1236
V\u041a\u0425\u041b
p2421
sg1238
Vhttp://tv.yandex.ua/187/channels/481
p2422
sg1240
I197
sbsI198
g1228
(g1229
g1230
Ntp2423
Rp2424
(dp2425
g1234
Vhttp://avatars.yandex.net/get-tv-channel-logos/1356596026566M65418/orig
p2426
sg1236
V\u041c\u0418\u0420
p2427
sg1238
Vhttp://tv.yandex.ua/187/channels/726
p2428
sg1240
I198
sbsI199
g1228
(g1229
g1230
Ntp2429
Rp2430
(dp2431
g1234
Vhttp://avatars.yandex.net/get-tv-shows/1333715626042M2466/orig
p2432
sg1236
VNickelodeon HD
p2433
sg1238
Vhttp://tv.yandex.ua/187/channels/423
p2434
sg1240
I199
sbsI200
g1228
(g1229
g1230
Ntp2435
Rp2436
(dp2437
g1234
Vhttp://avatars.yandex.net/get-tv-shows/1333713160319M54984/orig
p2438
sg1236
V\u0416\u0418\u0412\u0418!
p2439
sg1238
Vhttp://tv.yandex.ua/187/channels/113
p2440
sg1240
I200
sbsI201
g1228
(g1229
g1230
Ntp2441
Rp2442
(dp2443
g1234
Vhttp://avatars.yandex.net/get-tv-shows/1333716022003M36980/orig
p2444
sg1236
V\u0422\u0435\u043b\u0435\u043f\u0443\u0442\u0435\u0448\u0435\u0441\u0442\u0432\u0438\u044f HD
p2445
sg1238
Vhttp://tv.yandex.ua/187/channels/331
p2446
sg1240
I201
sbsI202
g1228
(g1229
g1230
Ntp2447
Rp2448
(dp2449
g1234
Vhttp://avatars.yandex.net/get-tv-shows/1333715748744M67529/orig
p2450
sg1236
VDIVA Universal
p2451
sg1238
Vhttp://tv.yandex.ua/187/channels/713
p2452
sg1240
I202
sbsI203
g1228
(g1229
g1230
Ntp2453
Rp2454
(dp2455
g1234
Vhttp://avatars.yandex.net/get-tv-shows/1333716977495M19933/orig
p2456
sg1236
VDiscovery HD Showcase
p2457
sg1238
Vhttp://tv.yandex.ua/187/channels/111
p2458
sg1240
I203
sbsI204
g1228
(g1229
g1230
Ntp2459
Rp2460
(dp2461
g1234
Vhttp://avatars.yandex.net/get-tv-shows/1333715852220M49281/orig
p2462
sg1236
V\u0422\u0443\u0440\u0418\u043d\u0444\u043e
p2463
sg1238
Vhttp://tv.yandex.ua/187/channels/731
p2464
sg1240
I204
sbsI205
g1228
(g1229
g1230
Ntp2465
Rp2466
(dp2467
g1234
Vhttp://avatars.yandex.net/get-tv-shows/1333708892947M65043/orig
p2468
sg1236
V\u0428\u0430\u043d\u0441\u043e\u043d-TB
p2469
sg1238
Vhttp://tv.yandex.ua/187/channels/662
p2470
sg1240
I205
sbsI206
g1228
(g1229
g1230
Ntp2471
Rp2472
(dp2473
g1234
Vhttp://avatars.yandex.net/get-tv-shows/1333713983645M99328/orig
p2474
sg1236
V\u0417\u043d\u0430\u043d\u0438\u0435
p2475
sg1238
Vhttp://tv.yandex.ua/187/channels/201
p2476
sg1240
I206
sbsI207
g1228
(g1229
g1230
Ntp2477
Rp2478
(dp2479
g1234
Vhttp://avatars.yandex.net/get-tv-shows/1333715603725M3088/orig
p2480
sg1236
VEuropa Plus TV
p2481
sg1238
Vhttp://tv.yandex.ua/187/channels/681
p2482
sg1240
I207
sbsI208
g1228
(g1229
g1230
Ntp2483
Rp2484
(dp2485
g1234
Vhttp://avatars.yandex.net/get-tv-shows/1333715545258M24133/orig
p2486
sg1236
VOutdoor Channel
p2487
sg1238
Vhttp://tv.yandex.ua/187/channels/322
p2488
sg1240
I208
sbsI209
g1228
(g1229
g1230
Ntp2489
Rp2490
(dp2491
g1234
Vhttp://avatars.yandex.net/get-tv-shows/1333713680513M60480/orig
p2492
sg1236
V\u041d\u0422\u0412-\u041f\u041b\u042e\u0421 \u0421\u043f\u043e\u0440\u0442 \u041f\u043b\u044e\u0441
p2493
sg1238
Vhttp://tv.yandex.ua/187/channels/377
p2494
sg1240
I209
sbsI210
g1228
(g1229
g1230
Ntp2495
Rp2496
(dp2497
g1234
Vhttp://avatars.yandex.net/get-tv-shows/1333713538946M7262/orig
p2498
sg1236
VVH1 European
p2499
sg1238
Vhttp://tv.yandex.ua/187/channels/491
p2500
sg1240
I210
sbsI211
g1228
(g1229
g1230
Ntp2501
Rp2502
(dp2503
g1234
Vhttp://avatars.yandex.net/get-tv-channel-logos/1349444212217M99907/orig
p2504
sg1236
V\u041d\u0422\u0412-\u041f\u041b\u042e\u0421 \u041d\u0430\u0448 \u0444\u0443\u0442\u0431\u043e\u043b
p2505
sg1238
Vhttp://tv.yandex.ua/187/channels/499
p2506
sg1240
I211
sbsI212
g1228
(g1229
g1230
Ntp2507
Rp2508
(dp2509
g1234
Vhttp://avatars.yandex.net/get-tv-shows/1333715434657M29292/orig
p2510
sg1236
V\u041d\u0422\u0412-\u041f\u041b\u042e\u0421 \u0421\u043f\u043e\u0440\u0442
p2511
sg1238
Vhttp://tv.yandex.ua/187/channels/134
p2512
sg1240
I212
sbsI213
g1228
(g1229
g1230
Ntp2513
Rp2514
(dp2515
g1234
Vhttp://avatars.yandex.net/get-tv-shows/1333715630513M36394/orig
p2516
sg1236
V\u041d\u0422\u0412-\u041f\u041b\u042e\u0421 \u0424\u0443\u0442\u0431\u043e\u043b
p2517
sg1238
Vhttp://tv.yandex.ua/187/channels/664
p2518
sg1240
I213
sbsI214
g1228
(g1229
g1230
Ntp2519
Rp2520
(dp2521
g1234
Vhttp://avatars.yandex.net/get-tv-shows/1333716734381M94839/orig
p2522
sg1236
V\u041d\u0422\u0412-\u041f\u041b\u042e\u0421 \u0421\u043f\u043e\u0440\u0442 \u041e\u043d\u043b\u0430\u0439\u043d
p2523
sg1238
Vhttp://tv.yandex.ua/187/channels/183
p2524
sg1240
I214
sbsI215
g1228
(g1229
g1230
Ntp2525
Rp2526
(dp2527
g1234
Vhttp://avatars.yandex.net/get-tv-shows/1333713578162M89138/orig
p2528
sg1236
V\u041d\u0422\u0412-\u041f\u041b\u042e\u0421 \u0411\u0430\u0441\u043a\u0435\u0442\u0431\u043e\u043b
p2529
sg1238
Vhttp://tv.yandex.ua/187/channels/697
p2530
sg1240
I215
sbsI216
g1228
(g1229
g1230
Ntp2531
Rp2532
(dp2533
g1234
Vhttp://avatars.yandex.net/get-tv-shows/1333708043568M30613/orig
p2534
sg1236
V\u041d\u0422\u0412-\u041f\u041b\u042e\u0421 \u0422\u0435\u043d\u043d\u0438\u0441
p2535
sg1238
Vhttp://tv.yandex.ua/187/channels/358
p2536
sg1240
I216
sbsI217
g1228
(g1229
g1230
Ntp2537
Rp2538
(dp2539
g1234
Vhttp://avatars.yandex.net/get-tv-shows/1333713040296M59201/orig
p2540
sg1236
VWorld Music Channel
p2541
sg1238
Vhttp://tv.yandex.ua/187/channels/91
p2542
sg1240
I217
sbsI218
g1228
(g1229
g1230
Ntp2543
Rp2544
(dp2545
g1234
Vhttp://avatars.yandex.net/get-tv-shows/1333708764683M58437/orig
p2546
sg1236
V\u041d\u0422\u0412-\u041f\u041b\u042e\u0421 \u0424\u0443\u0442\u0431\u043e\u043b 2
p2547
sg1238
Vhttp://tv.yandex.ua/187/channels/563
p2548
sg1240
I218
sbsI219
g1228
(g1229
g1230
Ntp2549
Rp2550
(dp2551
g1234
Vhttp://avatars.yandex.net/get-tv-channel-logos/1347977439851M34882/orig
p2552
sg1236
VSONY \u0422\u0412
p2553
sg1238
Vhttp://tv.yandex.ua/187/channels/311
p2554
sg1240
I219
sbsI220
g1228
(g1229
g1230
Ntp2555
Rp2556
(dp2557
g1234
Vhttp://avatars.yandex.net/get-tv-channel-logos/1346751438482M48687/orig
p2558
sg1236
V8 \u041a\u0430\u043d\u0430\u043b
p2559
sg1238
Vhttp://tv.yandex.ua/187/channels/217
p2560
sg1240
I220
sbsI221
g1228
(g1229
g1230
Ntp2561
Rp2562
(dp2563
g1234
Vhttp://avatars.yandex.net/get-tv-shows/1333708793754M69706/orig
p2564
sg1236
V\u0418\u043d\u0442\u0435\u0440\u0435\u0441\u043d\u043e\u0435 \u0422\u0412
p2565
sg1238
Vhttp://tv.yandex.ua/187/channels/24
p2566
sg1240
I221
sbsI222
g1228
(g1229
g1230
Ntp2567
Rp2568
(dp2569
g1234
Vhttp://avatars.yandex.net/get-tv-shows/1333708053915M20046/orig
p2570
sg1236
V\u041c\u043d\u043e\u0433\u043e \u0422\u0412
p2571
sg1238
Vhttp://tv.yandex.ua/187/channels/799
p2572
sg1240
I222
sbsI223
g1228
(g1229
g1230
Ntp2573
Rp2574
(dp2575
g1234
Vhttp://avatars.yandex.net/get-tv-channel-logos/1336217768352M70407/orig
p2576
sg1236
V\u041a\u043e\u043c\u0435\u0434\u0438\u044f \u0422\u0412
p2577
sg1238
Vhttp://tv.yandex.ua/187/channels/821
p2578
sg1240
I223
sbsI224
g1228
(g1229
g1230
Ntp2579
Rp2580
(dp2581
g1234
Vhttp://avatars.yandex.net/get-tv-channel-logos/1344328736344M68981/orig
p2582
sg1236
V\u041a\u0443\u0445\u043d\u044f \u0422\u0412
p2583
sg1238
Vhttp://tv.yandex.ua/187/channels/614
p2584
sg1240
I224
sbsI225
g1228
(g1229
g1230
Ntp2585
Rp2586
(dp2587
g1234
Vhttp://avatars.yandex.net/get-tv-channel-logos/1357806445014M68284/orig
p2588
sg1236
V\u0410\u0432\u0442\u043e \u041f\u043b\u044e\u0441
p2589
sg1238
Vhttp://tv.yandex.ua/187/channels/153
p2590
sg1240
I225
sbsI226
g1228
(g1229
g1230
Ntp2591
Rp2592
(dp2593
g1234
Vhttp://avatars.yandex.net/get-tv-shows/1333709239764M13305/orig
p2594
sg1236
VHD Life
p2595
sg1238
Vhttp://tv.yandex.ua/187/channels/415
p2596
sg1240
I226
sbsI227
g1228
(g1229
g1230
Ntp2597
Rp2598
(dp2599
g1234
Vhttp://avatars.yandex.net/get-tv-shows/1333713175752M17275/orig
p2600
sg1236
g430
sg1238
Vhttp://tv.yandex.ua/187/channels/250
p2601
sg1240
I227
sbsI228
g1228
(g1229
g1230
Ntp2602
Rp2603
(dp2604
g1234
Vhttp://avatars.yandex.net/get-tv-shows/1333715379935M43316/orig
p2605
sg1236
V\u041a\u0438\u043d\u043e\u043b\u044e\u043a\u0441
p2606
sg1238
Vhttp://tv.yandex.ua/187/channels/8
p2607
sg1240
I228
sbsI229
g1228
(g1229
g1230
Ntp2608
Rp2609
(dp2610
g1234
Vhttp://avatars.yandex.net/get-tv-shows/1333713929498M22985/orig
p2611
sg1236
V\u0420\u0443\u0441\u0441\u043a\u0438\u0439 \u0440\u043e\u043c\u0430\u043d
p2612
sg1238
Vhttp://tv.yandex.ua/187/channels/401
p2613
sg1240
I229
sbsI230
g1228
(g1229
g1230
Ntp2614
Rp2615
(dp2616
g1234
Vhttp://avatars.yandex.net/get-tv-shows/1333715246259M47961/orig
p2617
sg1236
V\u0421\u043f\u043e\u0440\u0442 \u0421\u043e\u044e\u0437
p2618
sg1238
Vhttp://tv.yandex.ua/187/channels/306
p2619
sg1240
I230
sbsI231
g1228
(g1229
g1230
Ntp2620
Rp2621
(dp2622
g1234
Vhttp://avatars.yandex.net/get-tv-shows/1333712655586M1831/orig
p2623
sg1236
VPRO Business
p2624
sg1238
Vhttp://tv.yandex.ua/187/channels/214
p2625
sg1240
I231
sbsI232
g1228
(g1229
g1230
Ntp2626
Rp2627
(dp2628
g1234
Vhttp://avatars.yandex.net/get-tv-channel-logos/1358325521945M33990/orig
p2629
sg1236
V\u0411\u0435\u043b\u0430\u0440\u0443\u0441\u044c-24
p2630
sg1238
Vhttp://tv.yandex.ua/187/channels/851
p2631
sg1240
I232
sbsI233
g1228
(g1229
g1230
Ntp2632
Rp2633
(dp2634
g1234
Vhttp://avatars.yandex.net/get-tv-shows/1333715190027M56768/orig
p2635
sg1236
V\u0421\u043f\u043e\u0440\u0442 1 HD
p2636
sg1238
Vhttp://tv.yandex.ua/187/channels/554
p2637
sg1240
I233
sbsI234
g1228
(g1229
g1230
Ntp2638
Rp2639
(dp2640
g1234
Vhttp://avatars.yandex.net/get-tv-shows/1333715678250M70241/orig
p2641
sg1236
VMotors TV
p2642
sg1238
Vhttp://tv.yandex.ua/187/channels/531
p2643
sg1240
I234
sbsI235
g1228
(g1229
g1230
Ntp2644
Rp2645
(dp2646
g1234
Vhttp://avatars.yandex.net/get-tv-shows/1333713401739M87841/orig
p2647
sg1236
VTrace Urban
p2648
sg1238
Vhttp://tv.yandex.ua/187/channels/473
p2649
sg1240
I235
sbsI236
g1228
(g1229
g1230
Ntp2650
Rp2651
(dp2652
g1234
Vhttp://avatars.yandex.net/get-tv-shows/1333715692247M50804/orig
p2653
sg1236
V\u042e\u043c\u043e\u0440 BOX
p2654
sg1238
Vhttp://tv.yandex.ua/187/channels/412
p2655
sg1240
I236
sbsI237
g1228
(g1229
g1230
Ntp2656
Rp2657
(dp2658
g1234
Vhttp://avatars.yandex.net/get-tv-shows/1333713694458M58917/orig
p2659
sg1236
VMTV Music
p2660
sg1238
Vhttp://tv.yandex.ua/187/channels/430
p2661
sg1240
I237
sbsI238
g1228
(g1229
g1230
Ntp2662
Rp2663
(dp2664
g1234
Vhttp://avatars.yandex.net/get-tv-channel-logos/1356612022097M50743/orig
p2665
sg1236
V\u042d\u0433\u043e\u0438\u0441\u0442 \u0422\u0412
p2666
sg1238
Vhttp://tv.yandex.ua/187/channels/431
p2667
sg1240
I238
sbsI239
g1228
(g1229
g1230
Ntp2668
Rp2669
(dp2670
g1234
Vhttp://avatars.yandex.net/get-tv-shows/1333713010310M30552/orig
p2671
sg1236
V\u0410\u0413\u0420\u041e-\u0422\u0412
p2672
sg1238
Vhttp://tv.yandex.ua/187/channels/11
p2673
sg1240
I239
sbsI240
g1228
(g1229
g1230
Ntp2674
Rp2675
(dp2676
g1234
Vhttp://avatars.yandex.net/get-tv-shows/1333715666639M78532/orig
p2677
sg1236
VFashion TV HD
p2678
sg1238
Vhttp://tv.yandex.ua/187/channels/121
p2679
sg1240
I240
sbsI241
g1228
(g1229
g1230
Ntp2680
Rp2681
(dp2682
g1234
Vhttp://avatars.yandex.net/get-tv-shows/1333713251839M53909/orig
p2683
sg1236
VNat Geo Wild HD
p2684
sg1238
Vhttp://tv.yandex.ua/187/channels/807
p2685
sg1240
I241
sbsI242
g1228
(g1229
g1230
Ntp2686
Rp2687
(dp2688
g1234
Vhttp://avatars.yandex.net/get-tv-shows/1334158126325M33910/orig
p2689
sg1236
V\u0420\u0430\u0437 \u0422\u0412
p2690
sg1238
Vhttp://tv.yandex.ua/187/channels/363
p2691
sg1240
I242
sbsI243
g1228
(g1229
g1230
Ntp2692
Rp2693
(dp2694
g1234
Vhttp://avatars.yandex.net/get-tv-shows/1333715291495M67100/orig
p2695
sg1236
V\u041f\u0440\u043e\u0441\u0432\u0435\u0449\u0435\u043d\u0438\u0435
p2696
sg1238
Vhttp://tv.yandex.ua/187/channels/685
p2697
sg1240
I243
sbsI244
g1228
(g1229
g1230
Ntp2698
Rp2699
(dp2700
g1234
Vhttp://avatars.yandex.net/get-tv-shows/1333713378901M21893/orig
p2701
sg1236
VPro \u0432\u0441\u0435
p2702
sg1238
Vhttp://tv.yandex.ua/187/channels/458
p2703
sg1240
I244
sbsI245
g1228
(g1229
g1230
Ntp2704
Rp2705
(dp2706
g1234
Vhttp://avatars.yandex.net/get-tv-shows/1333715233669M19318/orig
p2707
sg1236
VFox Life HD
p2708
sg1238
Vhttp://tv.yandex.ua/187/channels/464
p2709
sg1240
I245
sbsI246
g1228
(g1229
g1230
Ntp2710
Rp2711
(dp2712
g1234
Vhttp://avatars.yandex.net/get-tv-shows/1333713578373M76326/orig
p2713
sg1236
VBRIDGE TV
p2714
sg1238
Vhttp://tv.yandex.ua/187/channels/151
p2715
sg1240
I246
sbsI247
g1228
(g1229
g1230
Ntp2716
Rp2717
(dp2718
g1234
Vhttp://avatars.yandex.net/get-tv-shows/1333716766094M95286/orig
p2719
sg1236
V\u0422\u0420\u041e
p2720
sg1238
Vhttp://tv.yandex.ua/187/channels/730
p2721
sg1240
I247
sbsI248
g1228
(g1229
g1230
Ntp2722
Rp2723
(dp2724
g1234
Vhttp://avatars.yandex.net/get-tv-shows/1333715204463M59925/orig
p2725
sg1236
VEurosport HD
p2726
sg1238
Vhttp://tv.yandex.ua/187/channels/560
p2727
sg1240
I248
sbsI249
g1228
(g1229
g1230
Ntp2728
Rp2729
(dp2730
g1234
Vhttp://avatars.yandex.net/get-tv-shows/1333707965006M57212/orig
p2731
sg1236
V\u0417\u0430\u043a\u043e\u043d-\u0422\u0412
p2732
sg1238
Vhttp://tv.yandex.ua/187/channels/178
p2733
sg1240
I249
sbsI250
g1228
(g1229
g1230
Ntp2734
Rp2735
(dp2736
g1234
Vhttp://avatars.yandex.net/get-tv-shows/1333715232874M54663/orig
p2737
sg1236
V\u041d\u0430\u043d\u043e \u0422\u0412
p2738
sg1238
Vhttp://tv.yandex.ua/187/channels/35
p2739
sg1240
I250
sbsI251
g1228
(g1229
g1230
Ntp2740
Rp2741
(dp2742
g1234
Vhttp://avatars.yandex.net/get-tv-shows/1333708540363M22180/orig
p2743
sg1236
VMTV Live HD
p2744
sg1238
Vhttp://tv.yandex.ua/187/channels/382
p2745
sg1240
I251
sbsI252
g1228
(g1229
g1230
Ntp2746
Rp2747
(dp2748
g1234
Vhttp://avatars.yandex.net/get-tv-shows/1333708977916M89754/orig
p2749
sg1236
V\u0422\u0411\u041d
p2750
sg1238
Vhttp://tv.yandex.ua/187/channels/576
p2751
sg1240
I252
sbsI253
g1228
(g1229
g1230
Ntp2752
Rp2753
(dp2754
g1234
Vhttp://avatars.yandex.net/get-tv-shows/1333715189760M70159/orig
p2755
sg1236
V\u0421\u043e\u044e\u0437
p2756
sg1238
Vhttp://tv.yandex.ua/187/channels/349
p2757
sg1240
I253
sbsI254
g1228
(g1229
g1230
Ntp2758
Rp2759
(dp2760
g1234
Vhttp://avatars.yandex.net/get-tv-shows/1333709420684M86785/orig
p2761
sg1236
VMTV European
p2762
sg1238
Vhttp://tv.yandex.ua/187/channels/270
p2763
sg1240
I254
sbsI255
g1228
(g1229
g1230
Ntp2764
Rp2765
(dp2766
g1234
Vhttp://avatars.yandex.net/get-tv-shows/1333718307034M58256/orig
p2767
sg1236
V\u0414\u0435\u0432\u044f\u0442\u044b\u0439 (\u041e\u0440\u0431\u0438\u0442\u0430)
p2768
sg1238
Vhttp://tv.yandex.ua/187/channels/237
p2769
sg1240
I255
sbsI256
g1228
(g1229
g1230
Ntp2770
Rp2771
(dp2772
g1234
Vhttp://avatars.yandex.net/get-tv-shows/1333716969968M17969/orig
p2773
sg1236
V\u041a\u041f \u0422\u0412
p2774
sg1238
Vhttp://tv.yandex.ua/187/channels/852
p2775
sg1240
I256
sbsI257
g1228
(g1229
g1230
Ntp2776
Rp2777
(dp2778
g1234
Vhttp://avatars.yandex.net/get-tv-shows/1333715618499M86752/orig
p2779
sg1236
VSTV
p2780
sg1238
Vhttp://tv.yandex.ua/187/channels/165
p2781
sg1240
I257
sbsI258
g1228
(g1229
g1230
Ntp2782
Rp2783
(dp2784
g1234
Vhttp://avatars.yandex.net/get-tv-shows/1333715800906M7024/orig
p2785
sg1236
V\u041b\u044f-\u041c\u0438\u043d\u043e\u0440
p2786
sg1238
Vhttp://tv.yandex.ua/187/channels/257
p2787
sg1240
I258
sbsI259
g1228
(g1229
g1230
Ntp2788
Rp2789
(dp2790
g1234
Vhttp://avatars.yandex.net/get-tv-shows/1333713483747M17455/orig
p2791
sg1236
V\u0422\u0435\u043b\u0435\u043a\u0430\u043d\u0430\u043b 21+
p2792
sg1238
Vhttp://tv.yandex.ua/187/channels/492
p2793
sg1240
I259
sbsI260
g1228
(g1229
g1230
Ntp2794
Rp2795
(dp2796
g1234
Vhttp://avatars.yandex.net/get-tv-shows/1333708295391M71704/orig
p2797
sg1236
V\u0410\u0421\u0422\u0420\u041e \u0422\u0412
p2798
sg1238
Vhttp://tv.yandex.ua/187/channels/249
p2799
sg1240
I260
sbsI261
g1228
(g1229
g1230
Ntp2800
Rp2801
(dp2802
g1234
Vhttp://avatars.yandex.net/get-tv-shows/1333713846214M68965/orig
p2803
sg1236
VFine Living Network
p2804
sg1238
Vhttp://tv.yandex.ua/187/channels/393
p2805
sg1240
I261
sbssa.