(lp0
F1377359631.215975
ac__builtin__
set
p1
((lp2
ccopy_reg
_reconstructor
p3
(cchannel_cache
Channel
p4
c__builtin__
object
p5
Ntp6
Rp7
(dp8
S'image_url'
p9
Vhttp://avatars.yandex.net/get-tv-channel-logos/1335334386799M30858/orig
p10
sS'name'
p11
Vdisney \u0420\u043e\u0441\u0441\u0438\u044f
p12
sS'info_url'
p13
Vhttp://tv.yandex.ua/2/channels/150
p14
sbag3
(g4
g5
Ntp15
Rp16
(dp17
g9
Vhttp://avatars.yandex.net/get-tv-shows/1333707549264M49253/orig
p18
sg11
Vworld fashion \u0420\u043e\u0441\u0441\u0438\u044f
p19
sg13
Vhttp://tv.yandex.ua/2/channels/346
p20
sbag3
(g4
g5
Ntp21
Rp22
(dp23
g9
Vhttp://avatars.yandex.net/get-tv-shows/1333707554614M47050/orig
p24
sg11
V\u0437\u043e\u043e \u0420\u043e\u0441\u0441\u0438\u044f
p25
sg13
Vhttp://tv.yandex.ua/2/channels/273
p26
sbag3
(g4
g5
Ntp27
Rp28
(dp29
g9
Vhttp://avatars.yandex.net/get-tv-channel-logos/1357921498530M48934/orig
p30
sg11
V\u0442\u043d\u0432 \u043f\u043b\u0430\u043d\u0435\u0442\u0430 \u0420\u043e\u0441\u0441\u0438\u044f
p31
sg13
Vhttp://tv.yandex.ua/2/channels/933
p32
sbag3
(g4
g5
Ntp33
Rp34
(dp35
g9
Vhttp://avatars.yandex.net/get-tv-shows/1333715600209M27625/orig
p36
sg11
V\u043a\u0438\u043d\u043e\u043f\u043e\u043a\u0430\u0437 2 \u0420\u043e\u0441\u0441\u0438\u044f
p37
sg13
Vhttp://tv.yandex.ua/2/channels/741
p38
sbag3
(g4
g5
Ntp39
Rp40
(dp41
g9
Vhttp://avatars.yandex.net/get-tv-shows/1333715233719M49792/orig
p42
sg11
Vbiz tv \u0420\u043e\u0441\u0441\u0438\u044f
p43
sg13
Vhttp://tv.yandex.ua/2/channels/797
p44
sbag3
(g4
g5
Ntp45
Rp46
(dp47
g9
Vhttp://avatars.yandex.net/get-tv-shows/1333708892947M65043/orig
p48
sg11
V\u0448\u0430\u043d\u0441\u043e\u043d tb \u0423\u043a\u0440\u0430\u0438\u043d\u0430
p49
sg13
Vhttp://tv.yandex.ua/187/channels/662
p50
sbag3
(g4
g5
Ntp51
Rp52
(dp53
g9
Vhttp://avatars.yandex.net/get-tv-shows/1333716877043M9588/orig
p54
sg11
Ve x treme sports \u0420\u043e\u0441\u0441\u0438\u044f
p55
sg13
Vhttp://tv.yandex.ua/213/channels/288
p56
sbag3
(g4
g5
Ntp57
Rp58
(dp59
g9
Vhttp://avatars.yandex.net/get-tv-shows/1333715691315M43621/orig
p60
sg11
V\u0438\u043b\u043b\u044e\u0437\u0438\u043e\u043d + \u0420\u043e\u0441\u0441\u0438\u044f
p61
sg13
Vhttp://tv.yandex.ua/2/channels/123
p62
sbag3
(g4
g5
Ntp63
Rp64
(dp65
g9
Vhttp://avatars.yandex.net/get-tv-shows/1333716977495M19933/orig
p66
sg11
Vdiscovery showcase \u0420\u043e\u0441\u0441\u0438\u044f
p67
sg13
Vhttp://tv.yandex.ua/2/channels/111
p68
sbag3
(g4
g5
Ntp69
Rp70
(dp71
g9
Vhttp://avatars.yandex.net/get-tv-shows/1333712715401M79935/orig
p72
sg11
Vtlc \u0420\u043e\u0441\u0441\u0438\u044f
p73
sg13
Vhttp://tv.yandex.ua/2/channels/425
p74
sbag3
(g4
g5
Ntp75
Rp76
(dp77
g9
Vhttp://avatars.yandex.net/get-tv-shows/1333708540363M22180/orig
p78
sg11
Vm tv live \u0423\u043a\u0440\u0430\u0438\u043d\u0430
p79
sg13
Vhttp://tv.yandex.ua/187/channels/382
p80
sbag3
(g4
g5
Ntp81
Rp82
(dp83
g9
Vhttp://avatars.yandex.net/get-tv-channel-logos/1370511783133M89200/orig
p84
sg11
V\u044e \u0420\u043e\u0441\u0441\u0438\u044f
p85
sg13
Vhttp://tv.yandex.ua/2/channels/898
p86
sbag3
(g4
g5
Ntp87
Rp88
(dp89
g9
Vhttp://avatars.yandex.net/get-tv-shows/1333713983645M99328/orig
p90
sg11
V\u0437\u043d\u0430\u043d\u0438\u0435 \u0423\u043a\u0440\u0430\u0438\u043d\u0430
p91
sg13
Vhttp://tv.yandex.ua/187/channels/201
p92
sbag3
(g4
g5
Ntp93
Rp94
(dp95
g9
Vhttp://avatars.yandex.net/get-tv-shows/1333713040296M59201/orig
p96
sg11
Vworld music \u0420\u043e\u0441\u0441\u0438\u044f
p97
sg13
Vhttp://tv.yandex.ua/2/channels/91
p98
sbag3
(g4
g5
Ntp99
Rp100
(dp101
g9
Vhttp://avatars.yandex.net/get-tv-shows/1333712862430M29121/orig
p102
sg11
V\u0434\u0440\u0430\u0439\u0432 \u0420\u043e\u0441\u0441\u0438\u044f
p103
sg13
Vhttp://tv.yandex.ua/213/channels/505
p104
sbag3
(g4
g5
Ntp105
Rp106
(dp107
g9
Vhttp://avatars.yandex.net/get-tv-shows/1333715748744M67529/orig
p108
sg11
Vdiva universal \u0420\u043e\u0441\u0441\u0438\u044f
p109
sg13
Vhttp://tv.yandex.ua/2/channels/713
p110
sbag3
(g4
g5
Ntp111
Rp112
(dp113
g9
Vhttp://avatars.yandex.net/get-tv-shows/1333712655464M52829/orig
p114
sg11
Vvh1 classic \u0420\u043e\u0441\u0441\u0438\u044f
p115
sg13
Vhttp://tv.yandex.ua/213/channels/156
p116
sbag3
(g4
g5
Ntp117
Rp118
(dp119
g9
Vhttp://avatars.yandex.net/get-tv-shows/1333715451260M61766/orig
p120
sg11
Vc music \u0420\u043e\u0441\u0441\u0438\u044f
p121
sg13
Vhttp://tv.yandex.ua/2/channels/319
p122
sbag3
(g4
g5
Ntp123
Rp124
(dp125
g9
Vhttp://avatars.yandex.net/get-tv-channel-logos/1357921498530M48934/orig
p126
sg11
V\u0442\u043d\u0432 \u043f\u043b\u0430\u043d\u0435\u0442\u0430 \u0420\u043e\u0441\u0441\u0438\u044f
p127
sg13
Vhttp://tv.yandex.ua/213/channels/933
p128
sbag3
(g4
g5
Ntp129
Rp130
(dp131
g9
Vhttp://avatars.yandex.net/get-tv-channel-logos/1376044072622M94228/orig
p132
sg11
V2 x 2 \u0420\u043e\u0441\u0441\u0438\u044f
p133
sg13
Vhttp://tv.yandex.ua/2/channels/323
p134
sbag3
(g4
g5
Ntp135
Rp136
(dp137
g9
Vhttp://avatars.yandex.net/get-tv-shows/1333707995986M34877/orig
p138
sg11
V\u0438\u043d\u0434\u0438\u044f \u0420\u043e\u0441\u0441\u0438\u044f
p139
sg13
Vhttp://tv.yandex.ua/2/channels/798
p140
sbag3
(g4
g5
Ntp141
Rp142
(dp143
g9
Vhttp://avatars.yandex.net/get-tv-channel-logos/1362478351587M95662/orig
p144
sg11
V\u043f\u0435\u0440\u0432\u044b\u0439 \u0420\u043e\u0441\u0441\u0438\u044f
p145
sg13
Vhttp://tv.yandex.ua/2/channels/983
p146
sbag3
(g4
g5
Ntp147
Rp148
(dp149
g9
Vhttp://avatars.yandex.net/get-tv-shows/1333713582281M8534/orig
p150
sg11
V\u043f\u0435\u0440\u0432\u044b\u0439 \u043e\u0431\u0440\u0430\u0437\u043e\u0432\u0430\u0442\u0435\u043b\u044c\u043d\u044b\u0439 \u0420\u043e\u0441\u0441\u0438\u044f
p151
sg13
Vhttp://tv.yandex.ua/2/channels/774
p152
sbag3
(g4
g5
Ntp153
Rp154
(dp155
g9
Vhttp://avatars.yandex.net/get-tv-shows/1333715603725M3088/orig
p156
sg11
Veuropa plus \u0423\u043a\u0440\u0430\u0438\u043d\u0430
p157
sg13
Vhttp://tv.yandex.ua/187/channels/681
p158
sbag3
(g4
g5
Ntp159
Rp160
(dp161
g9
Vhttp://avatars.yandex.net/get-tv-channel-logos/1373971720537M51364/orig
p162
sg11
V24 \u0434\u043e\u043a \u0420\u043e\u0441\u0441\u0438\u044f
p163
sg13
Vhttp://tv.yandex.ua/2/channels/16
p164
sbag3
(g4
g5
Ntp165
Rp166
(dp167
g9
Vhttp://avatars.yandex.net/get-tv-shows/1333715666639M78532/orig
p168
sg11
Vfashion \u0420\u043e\u0441\u0441\u0438\u044f
p169
sg13
Vhttp://tv.yandex.ua/2/channels/121
p170
sbag3
(g4
g5
Ntp171
Rp172
(dp173
g9
Vhttp://avatars.yandex.net/get-tv-shows/1333716066753M79169/orig
p174
sg11
V\u043a\u0430\u0440\u0443\u0441\u0435\u043b\u044c \u0420\u043e\u0441\u0441\u0438\u044f
p175
sg13
Vhttp://tv.yandex.ua/2/channels/740
p176
sbag3
(g4
g5
Ntp177
Rp178
(dp179
g9
Vhttp://avatars.yandex.net/get-tv-channel-logos/1347458235853M37527/orig
p180
sg11
V\u0441\u0430\u0440\u0430\u0444\u0430\u043d \u0420\u043e\u0441\u0441\u0438\u044f
p181
sg13
Vhttp://tv.yandex.ua/213/channels/663
p182
sbag3
(g4
g5
Ntp183
Rp184
(dp185
g9
Vhttp://avatars.yandex.net/get-tv-shows/1333708316300M57639/orig
p186
sg11
V\u043a\u0438\u043d\u043e\u043a\u043b\u0443\u0431 \u0420\u043e\u0441\u0441\u0438\u044f
p187
sg13
Vhttp://tv.yandex.ua/2/channels/462
p188
sbag3
(g4
g5
Ntp189
Rp190
(dp191
g9
Vhttp://avatars.yandex.net/get-tv-shows/1333713945719M63469/orig
p192
sg11
V\u0434\u043e\u0436\u0434\u044c \u0420\u043e\u0441\u0441\u0438\u044f
p193
sg13
Vhttp://tv.yandex.ua/213/channels/384
p194
sbag3
(g4
g5
Ntp195
Rp196
(dp197
g9
Vhttp://avatars.yandex.net/get-tv-channel-logos/1349444212217M99907/orig
p198
sg11
V\u043d \u0442\u0432 + \u043d\u0430\u0448 \u0444\u0443\u0442\u0431\u043e\u043b \u0420\u043e\u0441\u0441\u0438\u044f
p199
sg13
Vhttp://tv.yandex.ua/213/channels/499
p200
sbag3
(g4
g5
Ntp201
Rp202
(dp203
g9
Vhttp://avatars.yandex.net/get-tv-shows/1333715624031M64884/orig
p204
sg11
V\u043f\u0435\u0440\u0435\u0446 \u0420\u043e\u0441\u0441\u0438\u044f
p205
sg13
Vhttp://tv.yandex.ua/213/channels/511
p206
sbag3
(g4
g5
Ntp207
Rp208
(dp209
g9
Vhttp://avatars.yandex.net/get-tv-shows/1333713582281M8534/orig
p210
sg11
V\u043f\u0435\u0440\u0432\u044b\u0439 \u043e\u0431\u0440\u0430\u0437\u043e\u0432\u0430\u0442\u0435\u043b\u044c\u043d\u044b\u0439 \u0423\u043a\u0440\u0430\u0438\u043d\u0430
p211
sg13
Vhttp://tv.yandex.ua/187/channels/774
p212
sbag3
(g4
g5
Ntp213
Rp214
(dp215
g9
Vhttp://avatars.yandex.net/get-tv-shows/1333715189104M67729/orig
p216
sg11
Vru tv \u0420\u043e\u0441\u0441\u0438\u044f
p217
sg13
Vhttp://tv.yandex.ua/2/channels/258
p218
sbag3
(g4
g5
Ntp219
Rp220
(dp221
g9
Vhttp://avatars.yandex.net/get-tv-shows/1333715883475M39981/orig
p222
sg11
V\u043d\u0430\u0448\u0435 \u043a\u0438\u043d\u043e \u0420\u043e\u0441\u0441\u0438\u044f
p223
sg13
Vhttp://tv.yandex.ua/213/channels/12
p224
sbag3
(g4
g5
Ntp225
Rp226
(dp227
g9
Vhttp://avatars.yandex.net/get-tv-shows/1333716724098M99858/orig
p228
sg11
V\u043a\u0438\u043d\u043e\u043f\u043e\u043a\u0430\u0437 1 \u0420\u043e\u0441\u0441\u0438\u044f
p229
sg13
Vhttp://tv.yandex.ua/2/channels/138
p230
sbag3
(g4
g5
Ntp231
Rp232
(dp233
g9
Vhttp://avatars.yandex.net/get-tv-shows/1333715225057M89214/orig
p234
sg11
V\u043a\u0438\u043d\u043e\u0441\u043e\u044e\u0437 \u0420\u043e\u0441\u0441\u0438\u044f
p235
sg13
Vhttp://tv.yandex.ua/2/channels/71
p236
sbag3
(g4
g5
Ntp237
Rp238
(dp239
g9
Vhttp://avatars.yandex.net/get-tv-shows/1333709420684M86785/orig
p240
sg11
Vm tv european \u0420\u043e\u0441\u0441\u0438\u044f
p241
sg13
Vhttp://tv.yandex.ua/213/channels/270
p242
sbag3
(g4
g5
Ntp243
Rp244
(dp245
g9
Vhttp://avatars.yandex.net/get-tv-shows/1333713160319M54984/orig
p246
sg11
V\u0436\u0438\u0432\u0438 \u0420\u043e\u0441\u0441\u0438\u044f
p247
sg13
Vhttp://tv.yandex.ua/2/channels/113
p248
sbag3
(g4
g5
Ntp249
Rp250
(dp251
g9
Vhttp://avatars.yandex.net/get-tv-shows/1333713694458M58917/orig
p252
sg11
Vm tv music \u0420\u043e\u0441\u0441\u0438\u044f
p253
sg13
Vhttp://tv.yandex.ua/213/channels/430
p254
sbag3
(g4
g5
Ntp255
Rp256
(dp257
g9
Vhttp://avatars.yandex.net/get-tv-channel-logos/1347983721579M89539/orig
p258
sg11
V\u0442\u0432 3 \u0420\u043e\u0441\u0441\u0438\u044f
p259
sg13
Vhttp://tv.yandex.ua/213/channels/698
p260
sbag3
(g4
g5
Ntp261
Rp262
(dp263
g9
Vhttp://avatars.yandex.net/get-tv-shows/1333709239764M13305/orig
p264
sg11
Vlife \u0423\u043a\u0440\u0430\u0438\u043d\u0430
p265
sg13
Vhttp://tv.yandex.ua/187/channels/415
p266
sbag3
(g4
g5
Ntp267
Rp268
(dp269
g9
Vhttp://avatars.yandex.net/get-tv-shows/1333709317667M77343/orig
p270
sg11
Vnational geographic \u0420\u043e\u0441\u0441\u0438\u044f
p271
sg13
Vhttp://tv.yandex.ua/2/channels/389
p272
sbag3
(g4
g5
Ntp273
Rp274
(dp275
g9
Vhttp://avatars.yandex.net/get-tv-shows/1333713688755M57280/orig
p276
sg11
V\u0432\u0440\u0435\u043c\u044f \u0420\u043e\u0441\u0441\u0438\u044f
p277
sg13
Vhttp://tv.yandex.ua/213/channels/669
p278
sbag3
(g4
g5
Ntp279
Rp280
(dp281
g9
Vhttp://avatars.yandex.net/get-tv-shows/1333713538946M7262/orig
p282
sg11
Vvh1 european \u0420\u043e\u0441\u0441\u0438\u044f
p283
sg13
Vhttp://tv.yandex.ua/2/channels/491
p284
sbag3
(g4
g5
Ntp285
Rp286
(dp287
g9
Vhttp://avatars.yandex.net/get-tv-channel-logos/1376043644426M13305/orig
p288
sg11
V\u0440\u0435\u043d \u0420\u043e\u0441\u0441\u0438\u044f
p289
sg13
Vhttp://tv.yandex.ua/2/channels/689
p290
sbag3
(g4
g5
Ntp291
Rp292
(dp293
g9
Vhttp://avatars.yandex.net/get-tv-shows/1333715984312M65283/orig
p294
sg11
V\u0442\u0435\u043b\u0435\u043a\u0430\u0444\u0435 \u0420\u043e\u0441\u0441\u0438\u044f
p295
sg13
Vhttp://tv.yandex.ua/213/channels/173
p296
sbag3
(g4
g5
Ntp297
Rp298
(dp299
g9
Vhttp://avatars.yandex.net/get-tv-shows/1333713418822M90839/orig
p300
sg11
Vanimal planet \u0420\u043e\u0441\u0441\u0438\u044f
p301
sg13
Vhttp://tv.yandex.ua/213/channels/365
p302
sbag3
(g4
g5
Ntp303
Rp304
(dp305
g9
Vhttp://avatars.yandex.net/get-tv-shows/1333713846214M68965/orig
p306
sg11
Vfine living network \u0420\u043e\u0441\u0441\u0438\u044f
p307
sg13
Vhttp://tv.yandex.ua/213/channels/393
p308
sbag3
(g4
g5
Ntp309
Rp310
(dp311
g9
Vhttp://avatars.yandex.net/get-tv-shows/1333716819878M97368/orig
p312
sg11
V\u0437\u0430\u0433\u043e\u0440\u043e\u0434\u043d\u044b\u0439 \u0420\u043e\u0441\u0441\u0438\u044f
p313
sg13
Vhttp://tv.yandex.ua/2/channels/705
p314
sbag3
(g4
g5
Ntp315
Rp316
(dp317
g9
Vhttp://avatars.yandex.net/get-tv-channel-logos/1357917709899M67755/orig
p318
sg11
Va one \u0420\u043e\u0441\u0441\u0438\u044f
p319
sg13
Vhttp://tv.yandex.ua/2/channels/680
p320
sbag3
(g4
g5
Ntp321
Rp322
(dp323
g9
Vhttp://avatars.yandex.net/get-tv-shows/1333713824656M29108/orig
p324
sg11
Vajara \u0420\u043e\u0441\u0441\u0438\u044f
p325
sg13
Vhttp://tv.yandex.ua/213/channels/756
p326
sbag3
(g4
g5
Ntp327
Rp328
(dp329
g9
Vhttp://avatars.yandex.net/get-tv-channel-logos/1364279956953M16222/orig
p330
sg11
V5 \u0420\u043e\u0441\u0441\u0438\u044f
p331
sg13
Vhttp://tv.yandex.ua/213/channels/427
p332
sbag3
(g4
g5
Ntp333
Rp334
(dp335
g9
Vhttp://avatars.yandex.net/get-tv-shows/1333715626042M2466/orig
p336
sg11
Vnickelodeon \u0420\u043e\u0441\u0441\u0438\u044f
p337
sg13
Vhttp://tv.yandex.ua/2/channels/423
p338
sbag3
(g4
g5
Ntp339
Rp340
(dp341
g9
Vhttp://avatars.yandex.net/get-tv-channel-logos/1357917814887M75013/orig
p342
sg11
Vboomerang \u0420\u043e\u0441\u0441\u0438\u044f
p343
sg13
Vhttp://tv.yandex.ua/213/channels/929
p344
sbag3
(g4
g5
Ntp345
Rp346
(dp347
g9
Vhttp://avatars.yandex.net/get-tv-shows/1333715233669M19318/orig
p348
sg11
Vfo x life \u0420\u043e\u0441\u0441\u0438\u044f
p349
sg13
Vhttp://tv.yandex.ua/213/channels/464
p350
sbag3
(g4
g5
Ntp351
Rp352
(dp353
g9
Vhttp://avatars.yandex.net/get-tv-shows/1333708636011M82578/orig
p354
sg11
V\u0434\u043e\u043c \u043a\u0438\u043d\u043e \u0420\u043e\u0441\u0441\u0438\u044f
p355
sg13
Vhttp://tv.yandex.ua/2/channels/834
p356
sbag3
(g4
g5
Ntp357
Rp358
(dp359
g9
Vhttp://avatars.yandex.net/get-tv-shows/1333715530204M4877/orig
p360
sg11
V\u0441\u0442\u043e \u0420\u043e\u0441\u0441\u0438\u044f
p361
sg13
Vhttp://tv.yandex.ua/2/channels/812
p362
sbag3
(g4
g5
Ntp363
Rp364
(dp365
g9
Vhttp://avatars.yandex.net/get-tv-shows/1333715232874M54663/orig
p366
sg11
V\u043d\u0430\u043d\u043e \u0420\u043e\u0441\u0441\u0438\u044f
p367
sg13
Vhttp://tv.yandex.ua/2/channels/35
p368
sbag3
(g4
g5
Ntp369
Rp370
(dp371
g9
Vhttp://avatars.yandex.net/get-tv-shows/1333715800906M7024/orig
p372
sg11
V\u043b\u044f \u043c\u0438\u043d\u043e\u0440 \u0420\u043e\u0441\u0441\u0438\u044f
p373
sg13
Vhttp://tv.yandex.ua/2/channels/257
p374
sbag3
(g4
g5
Ntp375
Rp376
(dp377
g9
Vhttp://avatars.yandex.net/get-tv-shows/1333716803563M50186/orig
p378
sg11
V\u043a x \u043b \u0420\u043e\u0441\u0441\u0438\u044f
p379
sg13
Vhttp://tv.yandex.ua/213/channels/481
p380
sbag3
(g4
g5
Ntp381
Rp382
(dp383
g9
Vhttp://avatars.yandex.net/get-tv-shows/1333713751068M18827/orig
p384
sg11
Vcnbc \u0420\u043e\u0441\u0441\u0438\u044f
p385
sg13
Vhttp://tv.yandex.ua/2/channels/831
p386
sbag3
(g4
g5
Ntp387
Rp388
(dp389
g9
Vhttp://avatars.yandex.net/get-tv-shows/1333709125468M55872/orig
p390
sg11
Vq tv \u0423\u043a\u0440\u0430\u0438\u043d\u0430
p391
sg13
Vhttp://tv.yandex.ua/187/channels/280
p392
sbag3
(g4
g5
Ntp393
Rp394
(dp395
g9
Vhttp://avatars.yandex.net/get-tv-channel-logos/1356771171081M25756/orig
p396
sg11
V\u0434\u0435\u0442\u0441\u043a\u0438\u0439 \u043c\u0438\u0440 \u0420\u043e\u0441\u0441\u0438\u044f
p397
sg13
Vhttp://tv.yandex.ua/2/channels/747
p398
sbag3
(g4
g5
Ntp399
Rp400
(dp401
g9
Vhttp://avatars.yandex.net/get-tv-shows/1333716066753M79169/orig
p402
sg11
V\u043a\u0430\u0440\u0443\u0441\u0435\u043b\u044c \u0420\u043e\u0441\u0441\u0438\u044f
p403
sg13
Vhttp://tv.yandex.ua/213/channels/740
p404
sbag3
(g4
g5
Ntp405
Rp406
(dp407
g9
Vhttp://avatars.yandex.net/get-tv-shows/1333716796927M20496/orig
p408
sg11
Vab moteurs \u0420\u043e\u0441\u0441\u0438\u044f
p409
sg13
Vhttp://tv.yandex.ua/213/channels/579
p410
sbag3
(g4
g5
Ntp411
Rp412
(dp413
g9
Vhttp://avatars.yandex.net/get-tv-shows/1333716823193M39207/orig
p414
sg11
Vkidsco \u0420\u043e\u0441\u0441\u0438\u044f
p415
sg13
Vhttp://tv.yandex.ua/213/channels/598
p416
sbag3
(g4
g5
Ntp417
Rp418
(dp419
g9
Vhttp://avatars.yandex.net/get-tv-channel-logos/1363259807796M98520/orig
p420
sg11
V\u0442\u0432 \u043e\u0439 \u0433\u043e\u0440\u043e\u0434 \u0420\u043e\u0441\u0441\u0438\u044f
p421
sg13
Vhttp://tv.yandex.ua/2/channels/38
p422
sbag3
(g4
g5
Ntp423
Rp424
(dp425
g9
Vhttp://avatars.yandex.net/get-tv-shows/1333713389359M36074/orig
p426
sg11
V\u043c\u0435\u0434\u0438\u0430 \u0420\u043e\u0441\u0441\u0438\u044f
p427
sg13
Vhttp://tv.yandex.ua/213/channels/631
p428
sbag3
(g4
g5
Ntp429
Rp430
(dp431
g9
Vhttp://avatars.yandex.net/get-tv-channel-logos/1354613569498M70821/orig
p432
sg11
Vcbs reality \u0420\u043e\u0441\u0441\u0438\u044f
p433
sg13
Vhttp://tv.yandex.ua/213/channels/912
p434
sbag3
(g4
g5
Ntp435
Rp436
(dp437
g9
Vhttp://avatars.yandex.net/get-tv-shows/1334158126325M33910/orig
p438
sg11
V\u0440\u0430\u0437 \u0420\u043e\u0441\u0441\u0438\u044f
p439
sg13
Vhttp://tv.yandex.ua/2/channels/363
p440
sbag3
(g4
g5
Ntp441
Rp442
(dp443
g9
Vhttp://avatars.yandex.net/get-tv-channel-logos/1356596026566M65418/orig
p444
sg11
V\u043c\u0438\u0440 \u0420\u043e\u0441\u0441\u0438\u044f
p445
sg13
Vhttp://tv.yandex.ua/2/channels/726
p446
sbag3
(g4
g5
Ntp447
Rp448
(dp449
g9
Vhttp://avatars.yandex.net/get-tv-shows/1333715748744M67529/orig
p450
sg11
Vdiva universal \u0423\u043a\u0440\u0430\u0438\u043d\u0430
p451
sg13
Vhttp://tv.yandex.ua/187/channels/713
p452
sbag3
(g4
g5
Ntp453
Rp454
(dp455
g9
Vhttp://avatars.yandex.net/get-tv-channel-logos/1364374254767M13856/orig
p456
sg11
V\u043d\u0430\u0443\u043a\u0430 2 0 \u0420\u043e\u0441\u0441\u0438\u044f
p457
sg13
Vhttp://tv.yandex.ua/2/channels/723
p458
sbag3
(g4
g5
Ntp459
Rp460
(dp461
g9
Vhttp://avatars.yandex.net/get-tv-shows/1333713725548M83943/orig
p462
sg11
V\u0440\u0436\u0434 \u0420\u043e\u0441\u0441\u0438\u044f
p463
sg13
Vhttp://tv.yandex.ua/2/channels/509
p464
sbag3
(g4
g5
Ntp465
Rp466
(dp467
g9
Vhttp://avatars.yandex.net/get-tv-shows/1333713174626M97345/orig
p468
sg11
Vman \u0420\u043e\u0441\u0441\u0438\u044f
p469
sg13
Vhttp://tv.yandex.ua/2/channels/15
p470
sbag3
(g4
g5
Ntp471
Rp472
(dp473
g9
Vhttp://avatars.yandex.net/get-tv-channel-logos/1347458235853M37527/orig
p474
sg11
V\u0441\u0430\u0440\u0430\u0444\u0430\u043d \u0420\u043e\u0441\u0441\u0438\u044f
p475
sg13
Vhttp://tv.yandex.ua/2/channels/663
p476
sbag3
(g4
g5
Ntp477
Rp478
(dp479
g9
Vhttp://avatars.yandex.net/get-tv-channel-logos/1347460169999M38830/orig
p480
sg11
V\u0441\u0430\u043d\u043a\u0442 \u043f\u0435\u0442\u0435\u0440\u0431\u0443\u0440\u0433 \u0420\u043e\u0441\u0441\u0438\u044f
p481
sg13
Vhttp://tv.yandex.ua/2/channels/690
p482
sbag3
(g4
g5
Ntp483
Rp484
(dp485
g9
Vhttp://avatars.yandex.net/get-tv-shows/1333713085591M64755/orig
p486
sg11
Vocean \u0420\u043e\u0441\u0441\u0438\u044f
p487
sg13
Vhttp://tv.yandex.ua/213/channels/55
p488
sbag3
(g4
g5
Ntp489
Rp490
(dp491
g9
Vhttp://avatars.yandex.net/get-tv-shows/1333708911984M73554/orig
p492
sg11
Vamazing life \u0420\u043e\u0441\u0441\u0438\u044f
p493
sg13
Vhttp://tv.yandex.ua/213/channels/658
p494
sbag3
(g4
g5
Ntp495
Rp496
(dp497
g9
Vhttp://avatars.yandex.net/get-tv-channel-logos/1369922771805M94532/orig
p498
sg11
V\u0447\u043f info \u0420\u043e\u0441\u0441\u0438\u044f
p499
sg13
Vhttp://tv.yandex.ua/213/channels/315
p500
sbag3
(g4
g5
Ntp501
Rp502
(dp503
g9
Vhttp://avatars.yandex.net/get-tv-shows/1333715618499M86752/orig
p504
sg11
Vs tv \u0420\u043e\u0441\u0441\u0438\u044f
p505
sg13
Vhttp://tv.yandex.ua/2/channels/165
p506
sbag3
(g4
g5
Ntp507
Rp508
(dp509
g9
Vhttp://avatars.yandex.net/get-tv-channel-logos/1356772326416M40210/orig
p510
sg11
V\u043f\u0435\u0440\u0432\u044b\u0439 \u0438\u043d\u0442\u0435\u0440\u043d\u0435\u0442 \u0420\u043e\u0441\u0441\u0438\u044f
p511
sg13
Vhttp://tv.yandex.ua/213/channels/922
p512
sbag3
(g4
g5
Ntp513
Rp514
(dp515
g9
Vhttp://avatars.yandex.net/get-tv-shows/1333716734381M94839/orig
p516
sg11
V\u043d \u0442\u0432 + \u0441\u043f\u043e\u0440\u0442 \u043e\u043d\u043b\u0430\u0439\u043d \u0420\u043e\u0441\u0441\u0438\u044f
p517
sg13
Vhttp://tv.yandex.ua/213/channels/183
p518
sbag3
(g4
g5
Ntp519
Rp520
(dp521
g9
Vhttp://avatars.yandex.net/get-tv-shows/1333713698572M2584/orig
p522
sg11
Vmezzo live \u0420\u043e\u0441\u0441\u0438\u044f
p523
sg13
Vhttp://tv.yandex.ua/2/channels/801
p524
sbag3
(g4
g5
Ntp525
Rp526
(dp527
g9
Vhttp://avatars.yandex.net/get-tv-shows/1333716969502M68148/orig
p528
sg11
Vmcm pop \u0420\u043e\u0441\u0441\u0438\u044f
p529
sg13
Vhttp://tv.yandex.ua/213/channels/804
p530
sbag3
(g4
g5
Ntp531
Rp532
(dp533
g9
Vhttp://avatars.yandex.net/get-tv-channel-logos/1376044072622M94228/orig
p534
sg11
V2 x 2 \u0420\u043e\u0441\u0441\u0438\u044f
p535
sg13
Vhttp://tv.yandex.ua/213/channels/323
p536
sbag3
(g4
g5
Ntp537
Rp538
(dp539
g9
Vhttp://avatars.yandex.net/get-tv-channel-logos/1335452077321M11620/orig
p540
sg11
V\u0437\u0432\u0435\u0437\u0434\u0430 \u0420\u043e\u0441\u0441\u0438\u044f
p541
sg13
Vhttp://tv.yandex.ua/213/channels/405
p542
sbag3
(g4
g5
Ntp543
Rp544
(dp545
g9
Vhttp://avatars.yandex.net/get-tv-channel-logos/1348587564748M70641/orig
p546
sg11
V\u0434\u0435\u0442\u0441\u043a\u0438\u0439 \u0420\u043e\u0441\u0441\u0438\u044f
p547
sg13
Vhttp://tv.yandex.ua/2/channels/66
p548
sbag3
(g4
g5
Ntp549
Rp550
(dp551
g9
Vhttp://avatars.yandex.net/get-tv-channel-logos/1357919989620M30635/orig
p552
sg11
V\u0434\u0435\u0442\u0441\u043a\u0438\u0439 \u043c\u0438\u0440 + \u0442\u0435\u043b\u0435\u043a\u043b\u0443\u0431 \u0420\u043e\u0441\u0441\u0438\u044f
p553
sg13
Vhttp://tv.yandex.ua/2/channels/923
p554
sbag3
(g4
g5
Ntp555
Rp556
(dp557
g9
Vhttp://avatars.yandex.net/get-tv-shows/1333717651949M12497/orig
p558
sg11
V\u0444\u0443\u0442\u0431\u043e\u043b \u0420\u043e\u0441\u0441\u0438\u044f
p559
sg13
Vhttp://tv.yandex.ua/213/channels/328
p560
sbag3
(g4
g5
Ntp561
Rp562
(dp563
g9
Vhttp://avatars.yandex.net/get-tv-shows/1333713433570M85481/orig
p564
sg11
Vnat geo wild \u0420\u043e\u0441\u0441\u0438\u044f
p565
sg13
Vhttp://tv.yandex.ua/213/channels/223
p566
sbag3
(g4
g5
Ntp567
Rp568
(dp569
g9
Vhttp://avatars.yandex.net/get-tv-shows/1333716071391M27068/orig
p570
sg11
V\u0431\u043e\u0435\u0446 \u0420\u043e\u0441\u0441\u0438\u044f
p571
sg13
Vhttp://tv.yandex.ua/2/channels/454
p572
sbag3
(g4
g5
Ntp573
Rp574
(dp575
g9
Vhttp://avatars.yandex.net/get-tv-shows/1333715618467M47634/orig
p576
sg11
V\u043a\u043e\u043c\u0435\u0434\u0438 \u0420\u043e\u0441\u0441\u0438\u044f
p577
sg13
Vhttp://tv.yandex.ua/2/channels/51
p578
sbag3
(g4
g5
Ntp579
Rp580
(dp581
g9
Vhttp://avatars.yandex.net/get-tv-shows/1333712701189M79995/orig
p582
sg11
Venglish club \u0420\u043e\u0441\u0441\u0438\u044f
p583
sg13
Vhttp://tv.yandex.ua/213/channels/757
p584
sbag3
(g4
g5
Ntp585
Rp586
(dp587
g9
Vhttp://avatars.yandex.net/get-tv-shows/1333716891806M18999/orig
p588
sg11
V\u043a\u0438\u043d\u043e\u043f\u043e\u043a\u0430\u0437 \u0420\u043e\u0441\u0441\u0438\u044f
p589
sg13
Vhttp://tv.yandex.ua/2/channels/22
p590
sbag3
(g4
g5
Ntp591
Rp592
(dp593
g9
Vhttp://avatars.yandex.net/get-tv-shows/1333708247585M68464/orig
p594
sg11
V\u043e\u0440\u0443\u0436\u0438\u0435 \u0423\u043a\u0440\u0430\u0438\u043d\u0430
p595
sg13
Vhttp://tv.yandex.ua/187/channels/376
p596
sbag3
(g4
g5
Ntp597
Rp598
(dp599
g9
Vhttp://avatars.yandex.net/get-tv-shows/1333708154865M86208/orig
p600
sg11
V\u0440\u0435\u0442\u0440\u043e \u0420\u043e\u0441\u0441\u0438\u044f
p601
sg13
Vhttp://tv.yandex.ua/2/channels/6
p602
sbag3
(g4
g5
Ntp603
Rp604
(dp605
g9
Vhttp://avatars.yandex.net/get-tv-channel-logos/1374564467275M71365/orig
p606
sg11
Vamedia 2 \u0420\u043e\u0441\u0441\u0438\u044f
p607
sg13
Vhttp://tv.yandex.ua/213/channels/918
p608
sbag3
(g4
g5
Ntp609
Rp610
(dp611
g9
Vhttp://avatars.yandex.net/get-tv-channel-logos/1356772440257M50638/orig
p612
sg11
V\u0435\u0434\u0430 \u0420\u043e\u0441\u0441\u0438\u044f
p613
sg13
Vhttp://tv.yandex.ua/2/channels/931
p614
sbag3
(g4
g5
Ntp615
Rp616
(dp617
g9
Vhttp://avatars.yandex.net/get-tv-channel-logos/1358335632205M86039/orig
p618
sg11
Vdiscovery science \u0420\u043e\u0441\u0441\u0438\u044f
p619
sg13
Vhttp://tv.yandex.ua/213/channels/409
p620
sbag3
(g4
g5
Ntp621
Rp622
(dp623
g9
Vhttp://avatars.yandex.net/get-tv-shows/1333715659064M35098/orig
p624
sg11
V\u0442\u0435\u043b\u0435\u043f\u0443\u0442\u0435\u0448\u0435\u0441 \u0442\u0432 \u0438\u044f \u0420\u043e\u0441\u0441\u0438\u044f
p625
sg13
Vhttp://tv.yandex.ua/213/channels/794
p626
sbag3
(g4
g5
Ntp627
Rp628
(dp629
g9
Vhttp://avatars.yandex.net/get-tv-shows/1333713984447M70308/orig
p630
sg11
Veurosport \u0420\u043e\u0441\u0441\u0438\u044f
p631
sg13
Vhttp://tv.yandex.ua/2/channels/737
p632
sbag3
(g4
g5
Ntp633
Rp634
(dp635
g9
Vhttp://avatars.yandex.net/get-tv-shows/1333708793754M69706/orig
p636
sg11
V\u0438\u043d\u0442\u0435\u0440\u0435\u0441\u043d\u043e\u0435 \u0420\u043e\u0441\u0441\u0438\u044f
p637
sg13
Vhttp://tv.yandex.ua/213/channels/24
p638
sbag3
(g4
g5
Ntp639
Rp640
(dp641
g9
Vhttp://avatars.yandex.net/get-tv-shows/1333715545258M24133/orig
p642
sg11
Voutdoor \u0423\u043a\u0440\u0430\u0438\u043d\u0430
p643
sg13
Vhttp://tv.yandex.ua/187/channels/322
p644
sbag3
(g4
g5
Ntp645
Rp646
(dp647
g9
Vhttp://avatars.yandex.net/get-tv-channel-logos/1348587564748M70641/orig
p648
sg11
V\u0434\u0435\u0442\u0441\u043a\u0438\u0439 \u0420\u043e\u0441\u0441\u0438\u044f
p649
sg13
Vhttp://tv.yandex.ua/213/channels/66
p650
sbag3
(g4
g5
Ntp651
Rp652
(dp653
g9
Vhttp://avatars.yandex.net/get-tv-channel-logos/1352288866335M72721/orig
p654
sg11
V\u0441\u043f\u043e\u0440\u0442 \u0420\u043e\u0441\u0441\u0438\u044f
p655
sg13
Vhttp://tv.yandex.ua/213/channels/154
p656
sbag3
(g4
g5
Ntp657
Rp658
(dp659
g9
Vhttp://avatars.yandex.net/get-tv-shows/1333716022003M36980/orig
p660
sg11
V\u0442\u0435\u043b\u0435\u043f\u0443\u0442\u0435\u0448\u0435\u0441 \u0442\u0432 \u0438\u044f \u0420\u043e\u0441\u0441\u0438\u044f
p661
sg13
Vhttp://tv.yandex.ua/213/channels/331
p662
sbag3
(g4
g5
Ntp663
Rp664
(dp665
g9
Vhttp://avatars.yandex.net/get-tv-channel-logos/1373971951264M72543/orig
p666
sg11
V\u043d\u0430\u0441\u0442\u043e\u044f\u0449\u0435\u0435 \u0441\u0442\u0440\u0430\u0448\u043d\u043e\u0435 \u0442\u0435\u043b\u0435\u0432\u0438\u0434\u0435\u043d\u0438\u0435 \u0420\u043e\u0441\u0441\u0438\u044f
p667
sg13
Vhttp://tv.yandex.ua/213/channels/518
p668
sbag3
(g4
g5
Ntp669
Rp670
(dp671
g9
Vhttp://avatars.yandex.net/get-tv-shows/1333707837348M40226/orig
p672
sg11
Vfrance 24 \u0420\u043e\u0441\u0441\u0438\u044f
p673
sg13
Vhttp://tv.yandex.ua/213/channels/461
p674
sbag3
(g4
g5
Ntp675
Rp676
(dp677
g9
Vhttp://avatars.yandex.net/get-tv-shows/1333715814729M63454/orig
p678
sg11
Vzee \u0420\u043e\u0441\u0441\u0438\u044f
p679
sg13
Vhttp://tv.yandex.ua/213/channels/626
p680
sbag3
(g4
g5
Ntp681
Rp682
(dp683
g9
Vhttp://avatars.yandex.net/get-tv-shows/1333715189760M70159/orig
p684
sg11
V\u0441\u043e\u044e\u0437 \u0420\u043e\u0441\u0441\u0438\u044f
p685
sg13
Vhttp://tv.yandex.ua/2/channels/349
p686
sbag3
(g4
g5
Ntp687
Rp688
(dp689
g9
Vhttp://avatars.yandex.net/get-tv-shows/1333707549264M49253/orig
p690
sg11
Vworld fashion \u0420\u043e\u0441\u0441\u0438\u044f
p691
sg13
Vhttp://tv.yandex.ua/213/channels/346
p692
sbag3
(g4
g5
Ntp693
Rp694
(dp695
g9
Vhttp://avatars.yandex.net/get-tv-shows/1333716724098M99858/orig
p696
sg11
V\u043a\u0438\u043d\u043e\u043f\u043e\u043a\u0430\u0437 1 \u0423\u043a\u0440\u0430\u0438\u043d\u0430
p697
sg13
Vhttp://tv.yandex.ua/187/channels/138
p698
sbag3
(g4
g5
Ntp699
Rp700
(dp701
g9
Vhttp://avatars.yandex.net/get-tv-channel-logos/1357919547786M75281/orig
p702
sg11
Vparamount comedy \u0420\u043e\u0441\u0441\u0438\u044f
p703
sg13
Vhttp://tv.yandex.ua/2/channels/920
p704
sbag3
(g4
g5
Ntp705
Rp706
(dp707
g9
Vhttp://avatars.yandex.net/get-tv-shows/1333713175752M17275/orig
p708
sg11
V365 \u0423\u043a\u0440\u0430\u0438\u043d\u0430
p709
sg13
Vhttp://tv.yandex.ua/187/channels/250
p710
sbag3
(g4
g5
Ntp711
Rp712
(dp713
g9
Vhttp://avatars.yandex.net/get-tv-shows/1333715379889M58608/orig
p714
sg11
V\u043f\u0435\u0440\u0432\u044b\u0439 \u0423\u043a\u0440\u0430\u0438\u043d\u0430
p715
sg13
Vhttp://tv.yandex.ua/187/channels/391
p716
sbag3
(g4
g5
Ntp717
Rp718
(dp719
g9
Vhttp://avatars.yandex.net/get-tv-channel-logos/1357918486310M81107/orig
p720
sg11
Viconcerts \u0420\u043e\u0441\u0441\u0438\u044f
p721
sg13
Vhttp://tv.yandex.ua/213/channels/927
p722
sbag3
(g4
g5
Ntp723
Rp724
(dp725
g9
Vhttp://avatars.yandex.net/get-tv-shows/1333713682028M49283/orig
p726
sg11
Vmcm top \u0420\u043e\u0441\u0441\u0438\u044f
p727
sg13
Vhttp://tv.yandex.ua/2/channels/533
p728
sbag3
(g4
g5
Ntp729
Rp730
(dp731
g9
Vhttp://avatars.yandex.net/get-tv-channel-logos/1367319404756M40527/orig
p732
sg11
Vtravel + adventure \u0420\u043e\u0441\u0441\u0438\u044f
p733
sg13
Vhttp://tv.yandex.ua/213/channels/996
p734
sbag3
(g4
g5
Ntp735
Rp736
(dp737
g9
Vhttp://avatars.yandex.net/get-tv-shows/1333715232241M630/orig
p738
sg11
V\u043f\u0441\u0438 x \u043e\u043b\u043e\u0433\u0438\u044f 21 \u0420\u043e\u0441\u0441\u0438\u044f
p739
sg13
Vhttp://tv.yandex.ua/213/channels/434
p740
sbag3
(g4
g5
Ntp741
Rp742
(dp743
g9
Vhttp://avatars.yandex.net/get-tv-shows/1333712862430M29121/orig
p744
sg11
V\u0434\u0440\u0430\u0439\u0432 \u0420\u043e\u0441\u0441\u0438\u044f
p745
sg13
Vhttp://tv.yandex.ua/2/channels/505
p746
sbag3
(g4
g5
Ntp747
Rp748
(dp749
g9
Vhttp://avatars.yandex.net/get-tv-shows/1333707582031M183/orig
p750
sg11
V\u043f\u0440\u0435\u043c\u044c\u0435\u0440\u0430 \u0420\u043e\u0441\u0441\u0438\u044f
p751
sg13
Vhttp://tv.yandex.ua/2/channels/566
p752
sbag3
(g4
g5
Ntp753
Rp754
(dp755
g9
Vhttp://avatars.yandex.net/get-tv-shows/1333715281884M92118/orig
p756
sg11
V\u043d\u0430\u0448\u0435 \u043d\u043e\u0432\u043e\u0435 \u043a\u0438\u043d\u043e \u0420\u043e\u0441\u0441\u0438\u044f
p757
sg13
Vhttp://tv.yandex.ua/2/channels/485
p758
sbag3
(g4
g5
Ntp759
Rp760
(dp761
g9
Vhttp://avatars.yandex.net/get-tv-shows/1333713216376M58195/orig
p762
sg11
V\u0441\u043f\u0430\u0441 \u0420\u043e\u0441\u0441\u0438\u044f
p763
sg13
Vhttp://tv.yandex.ua/2/channels/447
p764
sbag3
(g4
g5
Ntp765
Rp766
(dp767
g9
Vhttp://avatars.yandex.net/get-tv-shows/1333715225057M89214/orig
p768
sg11
V\u043a\u0438\u043d\u043e\u0441\u043e\u044e\u0437 \u0420\u043e\u0441\u0441\u0438\u044f
p769
sg13
Vhttp://tv.yandex.ua/213/channels/71
p770
sbag3
(g4
g5
Ntp771
Rp772
(dp773
g9
Vhttp://avatars.yandex.net/get-tv-channel-logos/1363698632033M74975/orig
p774
sg11
V\u0442\u043e\u043d\u0443\u0441 \u0420\u043e\u0441\u0441\u0438\u044f
p775
sg13
Vhttp://tv.yandex.ua/2/channels/637
p776
sbag3
(g4
g5
Ntp777
Rp778
(dp779
g9
Vhttp://avatars.yandex.net/get-tv-shows/1333713840422M72865/orig
p780
sg11
Vmezzo \u0420\u043e\u0441\u0441\u0438\u044f
p781
sg13
Vhttp://tv.yandex.ua/2/channels/575
p782
sbag3
(g4
g5
Ntp783
Rp784
(dp785
g9
Vhttp://avatars.yandex.net/get-tv-shows/1333713989705M95921/orig
p786
sg11
Veurosport 2 \u0420\u043e\u0441\u0441\u0438\u044f
p787
sg13
Vhttp://tv.yandex.ua/213/channels/850
p788
sbag3
(g4
g5
Ntp789
Rp790
(dp791
g9
Vhttp://avatars.yandex.net/get-tv-shows/1333713582281M8534/orig
p792
sg11
V\u043f\u0435\u0440\u0432\u044b\u0439 \u043e\u0431\u0440\u0430\u0437\u043e\u0432\u0430\u0442\u0435\u043b\u044c\u043d\u044b\u0439 \u0420\u043e\u0441\u0441\u0438\u044f
p793
sg13
Vhttp://tv.yandex.ua/213/channels/774
p794
sbag3
(g4
g5
Ntp795
Rp796
(dp797
g9
Vhttp://avatars.yandex.net/get-tv-shows/1333712701189M79995/orig
p798
sg11
Venglish club \u0420\u043e\u0441\u0441\u0438\u044f
p799
sg13
Vhttp://tv.yandex.ua/2/channels/757
p800
sbag3
(g4
g5
Ntp801
Rp802
(dp803
g9
Vhttp://avatars.yandex.net/get-tv-channel-logos/1369122142477M33493/orig
p804
sg11
V\u043e\u0431\u0449\u0435\u0441 \u0442\u0432 \u0435\u043d\u043d\u043e\u0435 \u0442\u0435\u043b\u0435\u0432\u0438\u0434\u0435\u043d\u0438\u0435 \u0440\u043e\u0441\u0441\u0438\u0438 \u0420\u043e\u0441\u0441\u0438\u044f
p805
sg13
Vhttp://tv.yandex.ua/213/channels/1000
p806
sbag3
(g4
g5
Ntp807
Rp808
(dp809
g9
Vhttp://avatars.yandex.net/get-tv-shows/1333716766094M95286/orig
p810
sg11
V\u0442\u0440\u043e \u0420\u043e\u0441\u0441\u0438\u044f
p811
sg13
Vhttp://tv.yandex.ua/213/channels/730
p812
sbag3
(g4
g5
Ntp813
Rp814
(dp815
g9
Vhttp://avatars.yandex.net/get-tv-shows/1333709186098M48833/orig
p816
sg11
V\u043d \u0442\u0432 \u043c\u0438\u0440 \u0423\u043a\u0440\u0430\u0438\u043d\u0430
p817
sg13
Vhttp://tv.yandex.ua/187/channels/422
p818
sbag3
(g4
g5
Ntp819
Rp820
(dp821
g9
Vhttp://avatars.yandex.net/get-tv-channel-logos/1364374254767M13856/orig
p822
sg11
V\u043d\u0430\u0443\u043a\u0430 2 0 \u0420\u043e\u0441\u0441\u0438\u044f
p823
sg13
Vhttp://tv.yandex.ua/213/channels/723
p824
sbag3
(g4
g5
Ntp825
Rp826
(dp827
g9
Vhttp://avatars.yandex.net/get-tv-channel-logos/1347458342228M17996/orig
p828
sg11
V\u043c\u043e\u0441\u043a\u0432\u0430 \u0434\u043e\u0432\u0435\u0440\u0438\u0435 \u0420\u043e\u0441\u0441\u0438\u044f
p829
sg13
Vhttp://tv.yandex.ua/213/channels/655
p830
sbag3
(g4
g5
Ntp831
Rp832
(dp833
g9
Vhttp://avatars.yandex.net/get-tv-shows/1333713708028M30550/orig
p834
sg11
Vtv 5 \u0423\u043a\u0440\u0430\u0438\u043d\u0430
p835
sg13
Vhttp://tv.yandex.ua/187/channels/589
p836
sbag3
(g4
g5
Ntp837
Rp838
(dp839
g9
Vhttp://avatars.yandex.net/get-tv-shows/1333715852220M49281/orig
p840
sg11
V\u0442\u0443\u0440\u0438\u043d\u0444\u043e \u0420\u043e\u0441\u0441\u0438\u044f
p841
sg13
Vhttp://tv.yandex.ua/213/channels/731
p842
sbag3
(g4
g5
Ntp843
Rp844
(dp845
g9
Vhttp://avatars.yandex.net/get-tv-shows/1333716823193M39207/orig
p846
sg11
Vkidsco \u0420\u043e\u0441\u0441\u0438\u044f
p847
sg13
Vhttp://tv.yandex.ua/2/channels/598
p848
sbag3
(g4
g5
Ntp849
Rp850
(dp851
g9
Vhttp://avatars.yandex.net/get-tv-channel-logos/1348587808200M68387/orig
p852
sg11
V\u0440\u0443\u0441\u0441\u043a\u0438\u0439 \u0438\u043b\u043b\u044e\u0437\u0438\u043e\u043d \u0420\u043e\u0441\u0441\u0438\u044f
p853
sg13
Vhttp://tv.yandex.ua/2/channels/53
p854
sbag3
(g4
g5
Ntp855
Rp856
(dp857
g9
Vhttp://avatars.yandex.net/get-tv-channel-logos/1365080899756M41726/small
p858
sg11
V\u0440\u0443\u0441\u0441\u043a\u0438\u0439 \u0431\u0435\u0441\u0442\u0441\u0435\u043b\u043b\u0435\u0440 \u0420\u043e\u0441\u0441\u0438\u044f
p859
sg13
Vhttp://tv.yandex.ua/2/channels/994
p860
sbag3
(g4
g5
Ntp861
Rp862
(dp863
g9
Vhttp://avatars.yandex.net/get-tv-shows/1333713040296M59201/orig
p864
sg11
Vworld music \u0420\u043e\u0441\u0441\u0438\u044f
p865
sg13
Vhttp://tv.yandex.ua/213/channels/91
p866
sbag3
(g4
g5
Ntp867
Rp868
(dp869
g9
Vhttp://avatars.yandex.net/get-tv-channel-logos/1370511783133M89200/orig
p870
sg11
V\u044e \u0420\u043e\u0441\u0441\u0438\u044f
p871
sg13
Vhttp://tv.yandex.ua/213/channels/898
p872
sbag3
(g4
g5
Ntp873
Rp874
(dp875
g9
Vhttp://avatars.yandex.net/get-tv-shows/1333708764683M58437/orig
p876
sg11
V\u043d \u0442\u0432 + \u0444\u0443\u0442\u0431\u043e\u043b 2 \u0420\u043e\u0441\u0441\u0438\u044f
p877
sg13
Vhttp://tv.yandex.ua/2/channels/563
p878
sbag3
(g4
g5
Ntp879
Rp880
(dp881
g9
Vhttp://avatars.yandex.net/get-tv-shows/1333713174626M97345/orig
p882
sg11
Vman \u0420\u043e\u0441\u0441\u0438\u044f
p883
sg13
Vhttp://tv.yandex.ua/213/channels/15
p884
sbag3
(g4
g5
Ntp885
Rp886
(dp887
g9
Vhttp://avatars.yandex.net/get-tv-shows/1333713418795M13518/orig
p888
sg11
V\u0443\u0441\u0430\u0434\u044c\u0431\u0430 \u0420\u043e\u0441\u0441\u0438\u044f
p889
sg13
Vhttp://tv.yandex.ua/2/channels/779
p890
sbag3
(g4
g5
Ntp891
Rp892
(dp893
g9
Vhttp://avatars.yandex.net/get-tv-channel-logos/1357806445014M68284/orig
p894
sg11
V\u0430\u0432\u0442\u043e + \u0423\u043a\u0440\u0430\u0438\u043d\u0430
p895
sg13
Vhttp://tv.yandex.ua/187/channels/153
p896
sbag3
(g4
g5
Ntp897
Rp898
(dp899
g9
Vhttp://avatars.yandex.net/get-tv-channel-logos/1356772679907M96463/orig
p900
sg11
Vmgm \u0420\u043e\u0441\u0441\u0438\u044f
p901
sg13
Vhttp://tv.yandex.ua/213/channels/934
p902
sbag3
(g4
g5
Ntp903
Rp904
(dp905
g9
Vhttp://avatars.yandex.net/get-tv-channel-logos/1374053775778M12226/small
p906
sg11
Vimage \u0420\u043e\u0441\u0441\u0438\u044f
p907
sg13
Vhttp://tv.yandex.ua/213/channels/1016
p908
sbag3
(g4
g5
Ntp909
Rp910
(dp911
g9
Vhttp://avatars.yandex.net/get-tv-shows/1333715281884M92118/orig
p912
sg11
V\u043d\u0430\u0448\u0435 \u043d\u043e\u0432\u043e\u0435 \u043a\u0438\u043d\u043e \u0420\u043e\u0441\u0441\u0438\u044f
p913
sg13
Vhttp://tv.yandex.ua/213/channels/485
p914
sbag3
(g4
g5
Ntp915
Rp916
(dp917
g9
Vhttp://avatars.yandex.net/get-tv-channel-logos/1369922771805M94532/orig
p918
sg11
V\u0447\u043f info \u0420\u043e\u0441\u0441\u0438\u044f
p919
sg13
Vhttp://tv.yandex.ua/2/channels/315
p920
sbag3
(g4
g5
Ntp921
Rp922
(dp923
g9
Vhttp://avatars.yandex.net/get-tv-channel-logos/1376043882964M61429/orig
p924
sg11
V\u0440\u043e\u0441\u0441\u0438\u044f \u043f\u043b\u0430\u043d\u0435\u0442\u0430 \u0423\u043a\u0440\u0430\u0438\u043d\u0430
p925
sg13
Vhttp://tv.yandex.ua/187/channels/143
p926
sbag3
(g4
g5
Ntp927
Rp928
(dp929
g9
Vhttp://avatars.yandex.net/get-tv-shows/1333708892947M65043/orig
p930
sg11
V\u0448\u0430\u043d\u0441\u043e\u043d tb \u0420\u043e\u0441\u0441\u0438\u044f
p931
sg13
Vhttp://tv.yandex.ua/213/channels/662
p932
sbag3
(g4
g5
Ntp933
Rp934
(dp935
g9
Vhttp://avatars.yandex.net/get-tv-shows/1333717714948M87568/orig
p936
sg11
V\u0442\u0438\u043d \u0420\u043e\u0441\u0441\u0438\u044f
p937
sg13
Vhttp://tv.yandex.ua/213/channels/716
p938
sbag3
(g4
g5
Ntp939
Rp940
(dp941
g9
Vhttp://avatars.yandex.net/get-tv-shows/1333712862861M8549/orig
p942
sg11
V\u0442\u0435\u043b\u0435\u043a\u043b\u0443\u0431 \u0420\u043e\u0441\u0441\u0438\u044f
p943
sg13
Vhttp://tv.yandex.ua/213/channels/163
p944
sbag3
(g4
g5
Ntp945
Rp946
(dp947
g9
Vhttp://avatars.yandex.net/get-tv-shows/1333715852220M49281/orig
p948
sg11
V\u0442\u0443\u0440\u0438\u043d\u0444\u043e \u0423\u043a\u0440\u0430\u0438\u043d\u0430
p949
sg13
Vhttp://tv.yandex.ua/187/channels/731
p950
sbag3
(g4
g5
Ntp951
Rp952
(dp953
g9
Vhttp://avatars.yandex.net/get-tv-shows/1333715451260M61766/orig
p954
sg11
Vc music \u0420\u043e\u0441\u0441\u0438\u044f
p955
sg13
Vhttp://tv.yandex.ua/213/channels/319
p956
sbag3
(g4
g5
Ntp957
Rp958
(dp959
g9
Vhttp://avatars.yandex.net/get-tv-shows/1333715467716M44576/orig
p960
sg11
V\u0441\u043f\u043e\u0440\u0442 1 \u0420\u043e\u0441\u0441\u0438\u044f
p961
sg13
Vhttp://tv.yandex.ua/2/channels/181
p962
sbag3
(g4
g5
Ntp963
Rp964
(dp965
g9
Vhttp://avatars.yandex.net/get-tv-shows/1333716913379M87044/orig
p966
sg11
V\u0432\u0441\u0435\u0433\u0434\u0430 \u0441 \u0442\u043e\u0431\u043e\u0439 \u0420\u043e\u0441\u0441\u0438\u044f
p967
sg13
Vhttp://tv.yandex.ua/2/channels/604
p968
sbag3
(g4
g5
Ntp969
Rp970
(dp971
g9
Vhttp://avatars.yandex.net/get-tv-shows/1333708540363M22180/orig
p972
sg11
Vm tv live \u0420\u043e\u0441\u0441\u0438\u044f
p973
sg13
Vhttp://tv.yandex.ua/2/channels/382
p974
sbag3
(g4
g5
Ntp975
Rp976
(dp977
g9
Vhttp://avatars.yandex.net/get-tv-shows/1333713093430M11517/orig
p978
sg11
V\u043a\u0438\u043d\u043e x \u0438\u0442 \u0420\u043e\u0441\u0441\u0438\u044f
p979
sg13
Vhttp://tv.yandex.ua/213/channels/542
p980
sbag3
(g4
g5
Ntp981
Rp982
(dp983
g9
Vhttp://avatars.yandex.net/get-tv-channel-logos/1376043255845M78983/orig
p984
sg11
V\u0446\u0435\u043d\u0442\u0440 international \u0423\u043a\u0440\u0430\u0438\u043d\u0430
p985
sg13
Vhttp://tv.yandex.ua/187/channels/435
p986
sbag3
(g4
g5
Ntp987
Rp988
(dp989
g9
Vhttp://avatars.yandex.net/get-tv-shows/1333715841246M94104/orig
p990
sg11
V\u043e x \u043e\u0442\u043d\u0438\u043a \u0438 \u0440\u044b\u0431\u043e\u043b\u043e\u0432 \u0420\u043e\u0441\u0441\u0438\u044f
p991
sg13
Vhttp://tv.yandex.ua/2/channels/132
p992
sbag3
(g4
g5
Ntp993
Rp994
(dp995
g9
Vhttp://avatars.yandex.net/get-tv-shows/1333709246196M1207/orig
p996
sg11
Vbaby \u0420\u043e\u0441\u0441\u0438\u044f
p997
sg13
Vhttp://tv.yandex.ua/213/channels/308
p998
sbag3
(g4
g5
Ntp999
Rp1000
(dp1001
g9
Vhttp://avatars.yandex.net/get-tv-shows/1333715189104M67729/orig
p1002
sg11
Vru tv \u0420\u043e\u0441\u0441\u0438\u044f
p1003
sg13
Vhttp://tv.yandex.ua/213/channels/258
p1004
sbag3
(g4
g5
Ntp1005
Rp1006
(dp1007
g9
Vhttp://avatars.yandex.net/get-tv-shows/1333715744438M85797/orig
p1008
sg11
V\u0443\u0441\u043f\u0435 x \u0420\u043e\u0441\u0441\u0438\u044f
p1009
sg13
Vhttp://tv.yandex.ua/213/channels/547
p1010
sbag3
(g4
g5
Ntp1011
Rp1012
(dp1013
g9
Vhttp://avatars.yandex.net/get-tv-shows/1333715993038M13981/orig
p1014
sg11
V\u043c\u0443\u0437\u044b\u043a\u0430 \u043f\u0435\u0440\u0432\u043e\u0433\u043e \u0420\u043e\u0441\u0441\u0438\u044f
p1015
sg13
Vhttp://tv.yandex.ua/213/channels/715
p1016
sbag3
(g4
g5
Ntp1017
Rp1018
(dp1019
g9
Vhttp://avatars.yandex.net/get-tv-channel-logos/1334667359799M65057/orig
p1020
sg11
V\u043f\u0435\u0440\u0432\u044b\u0439 \u0430\u0432\u0442\u043e\u043c\u043e\u0431\u0438\u043b\u044c\u043d\u044b\u0439 \u0423\u043a\u0440\u0430\u0438\u043d\u0430
p1021
sg13
Vhttp://tv.yandex.ua/187/channels/507
p1022
sbag3
(g4
g5
Ntp1023
Rp1024
(dp1025
g9
Vhttp://avatars.yandex.net/get-tv-shows/1333713460684M81763/orig
p1026
sg11
Vcartoon network \u0423\u043a\u0440\u0430\u0438\u043d\u0430
p1027
sg13
Vhttp://tv.yandex.ua/187/channels/601
p1028
sbag3
(g4
g5
Ntp1029
Rp1030
(dp1031
g9
Vhttp://avatars.yandex.net/get-tv-shows/1333715246259M47961/orig
p1032
sg11
V\u0441\u043f\u043e\u0440\u0442 \u0441\u043e\u044e\u0437 \u0423\u043a\u0440\u0430\u0438\u043d\u0430
p1033
sg13
Vhttp://tv.yandex.ua/187/channels/306
p1034
sbag3
(g4
g5
Ntp1035
Rp1036
(dp1037
g9
Vhttp://avatars.yandex.net/get-tv-shows/1333715595667M50557/orig
p1038
sg11
Vr tv i \u0423\u043a\u0440\u0430\u0438\u043d\u0430
p1039
sg13
Vhttp://tv.yandex.ua/187/channels/76
p1040
sbag3
(g4
g5
Ntp1041
Rp1042
(dp1043
g9
Vhttp://avatars.yandex.net/get-tv-shows/1333715410270M23339/orig
p1044
sg11
Vviasat history \u0423\u043a\u0440\u0430\u0438\u043d\u0430
p1045
sg13
Vhttp://tv.yandex.ua/187/channels/277
p1046
sbag3
(g4
g5
Ntp1047
Rp1048
(dp1049
g9
Vhttp://avatars.yandex.net/get-tv-shows/1333715412490M65597/orig
p1050
sg11
Vrussia today \u0420\u043e\u0441\u0441\u0438\u044f
p1051
sg13
Vhttp://tv.yandex.ua/213/channels/313
p1052
sbag3
(g4
g5
Ntp1053
Rp1054
(dp1055
g9
Vhttp://avatars.yandex.net/get-tv-shows/1333708043568M30613/orig
p1056
sg11
V\u043d \u0442\u0432 + \u0442\u0435\u043d\u043d\u0438\u0441 \u0420\u043e\u0441\u0441\u0438\u044f
p1057
sg13
Vhttp://tv.yandex.ua/213/channels/358
p1058
sbag3
(g4
g5
Ntp1059
Rp1060
(dp1061
g9
Vhttp://avatars.yandex.net/get-tv-channel-logos/1367839418867M60240/orig
p1062
sg11
Vsony \u0420\u043e\u0441\u0441\u0438\u044f
p1063
sg13
Vhttp://tv.yandex.ua/213/channels/311
p1064
sbag3
(g4
g5
Ntp1065
Rp1066
(dp1067
g9
Vhttp://avatars.yandex.net/get-tv-shows/1333713681468M47452/orig
p1068
sg11
V\u0432\u043e\u043f\u0440\u043e\u0441\u044b \u0438 \u043e \u0442\u0432 \u0435\u0442\u044b \u0423\u043a\u0440\u0430\u0438\u043d\u0430
p1069
sg13
Vhttp://tv.yandex.ua/187/channels/333
p1070
sbag3
(g4
g5
Ntp1071
Rp1072
(dp1073
g9
Vhttp://avatars.yandex.net/get-tv-shows/1333715284079M99947/orig
p1074
sg11
V\u0438\u043d\u0442\u0435\u0440 + \u0423\u043a\u0440\u0430\u0438\u043d\u0430
p1075
sg13
Vhttp://tv.yandex.ua/187/channels/808
p1076
sbag3
(g4
g5
Ntp1077
Rp1078
(dp1079
g9
Vhttp://avatars.yandex.net/get-tv-channel-logos/1374658963600M49521/orig
p1080
sg11
Vzoo\u043f\u0430\u0440\u043a \u0420\u043e\u0441\u0441\u0438\u044f
p1081
sg13
Vhttp://tv.yandex.ua/2/channels/367
p1082
sbag3
(g4
g5
Ntp1083
Rp1084
(dp1085
g9
Vhttp://avatars.yandex.net/get-tv-shows/1333716745405M72465/orig
p1086
sg11
Vrusong \u0423\u043a\u0440\u0430\u0438\u043d\u0430
p1087
sg13
Vhttp://tv.yandex.ua/187/channels/591
p1088
sbag3
(g4
g5
Ntp1089
Rp1090
(dp1091
g9
Vhttp://avatars.yandex.net/get-tv-shows/1333713929498M22985/orig
p1092
sg11
V\u0440\u0443\u0441\u0441\u043a\u0438\u0439 \u0440\u043e\u043c\u0430\u043d \u0423\u043a\u0440\u0430\u0438\u043d\u0430
p1093
sg13
Vhttp://tv.yandex.ua/187/channels/401
p1094
sbag3
(g4
g5
Ntp1095
Rp1096
(dp1097
g9
Vhttp://avatars.yandex.net/get-tv-shows/1333708636011M82578/orig
p1098
sg11
V\u0434\u043e\u043c \u043a\u0438\u043d\u043e \u0420\u043e\u0441\u0441\u0438\u044f
p1099
sg13
Vhttp://tv.yandex.ua/213/channels/834
p1100
sbag3
(g4
g5
Ntp1101
Rp1102
(dp1103
g9
Vhttp://avatars.yandex.net/get-tv-shows/1333708746764M31248/orig
p1104
sg11
V\u043d\u0435\u0434\u0432\u0438\u0436\u0438\u043c\u043e\u0441\u0442\u044c \u0423\u043a\u0440\u0430\u0438\u043d\u0430
p1105
sg13
Vhttp://tv.yandex.ua/187/channels/552
p1106
sbag3
(g4
g5
Ntp1107
Rp1108
(dp1109
g9
Vhttp://avatars.yandex.net/get-tv-shows/1333712775005M93791/orig
p1110
sg11
Vviasat sport \u0423\u043a\u0440\u0430\u0438\u043d\u0430
p1111
sg13
Vhttp://tv.yandex.ua/187/channels/455
p1112
sbag3
(g4
g5
Ntp1113
Rp1114
(dp1115
g9
Vhttp://avatars.yandex.net/get-tv-shows/1333713774748M13525/orig
p1116
sg11
Vbloomberg \u0423\u043a\u0440\u0430\u0438\u043d\u0430
p1117
sg13
Vhttp://tv.yandex.ua/187/channels/463
p1118
sbag3
(g4
g5
Ntp1119
Rp1120
(dp1121
g9
Vhttp://avatars.yandex.net/get-tv-channel-logos/1362054666903M85138/small
p1122
sg11
V\u0431\u043e\u0439\u0446\u043e\u0432\u0441\u043a\u0438\u0439 \u043a\u043b\u0443\u0431 \u0420\u043e\u0441\u0441\u0438\u044f
p1123
sg13
Vhttp://tv.yandex.ua/2/channels/986
p1124
sbag3
(g4
g5
Ntp1125
Rp1126
(dp1127
g9
Vhttp://avatars.yandex.net/get-tv-channel-logos/1334666928508M51216/orig
p1128
sg11
V\u043f\u0435\u0440\u0432\u044b\u0439 \u0434\u0435\u043b\u043e\u0432\u043e\u0439 \u0423\u043a\u0440\u0430\u0438\u043d\u0430
p1129
sg13
Vhttp://tv.yandex.ua/187/channels/85
p1130
sbag3
(g4
g5
Ntp1131
Rp1132
(dp1133
g9
Vhttp://avatars.yandex.net/get-tv-shows/1333713216702M32803/orig
p1134
sg11
V\u0441\u0435\u043c\u044c\u044f \u0420\u043e\u0441\u0441\u0438\u044f
p1135
sg13
Vhttp://tv.yandex.ua/213/channels/335
p1136
sbag3
(g4
g5
Ntp1137
Rp1138
(dp1139
g9
Vhttp://avatars.yandex.net/get-tv-shows/1333713984447M70308/orig
p1140
sg11
Veurosport \u0423\u043a\u0440\u0430\u0438\u043d\u0430
p1141
sg13
Vhttp://tv.yandex.ua/187/channels/737
p1142
sbag3
(g4
g5
Ntp1143
Rp1144
(dp1145
g9
Vhttp://avatars.yandex.net/get-tv-shows/1333716877043M9588/orig
p1146
sg11
Ve x treme sports \u0420\u043e\u0441\u0441\u0438\u044f
p1147
sg13
Vhttp://tv.yandex.ua/2/channels/288
p1148
sbag3
(g4
g5
Ntp1149
Rp1150
(dp1151
g9
Vhttp://avatars.yandex.net/get-tv-shows/1333716057211M42929/orig
p1152
sg11
V\u043a\u0438\u043d\u043e + \u0420\u043e\u0441\u0441\u0438\u044f
p1153
sg13
Vhttp://tv.yandex.ua/213/channels/644
p1154
sbag3
(g4
g5
Ntp1155
Rp1156
(dp1157
g9
Vhttp://avatars.yandex.net/get-tv-channel-logos/1336200135761M53389/orig
p1158
sg11
V\u0441\u0442\u0431 \u0423\u043a\u0440\u0430\u0438\u043d\u0430
p1159
sg13
Vhttp://tv.yandex.ua/187/channels/670
p1160
sbag3
(g4
g5
Ntp1161
Rp1162
(dp1163
g9
Vhttp://avatars.yandex.net/get-tv-channel-logos/1367839508718M42390/orig
p1164
sg11
Vsony sci fi \u0423\u043a\u0440\u0430\u0438\u043d\u0430
p1165
sg13
Vhttp://tv.yandex.ua/187/channels/516
p1166
sbag3
(g4
g5
Ntp1167
Rp1168
(dp1169
g9
Vhttp://avatars.yandex.net/get-tv-channel-logos/1364301043753M88131/orig
p1170
sg11
Vrussian travel guide \u0420\u043e\u0441\u0441\u0438\u044f
p1171
sg13
Vhttp://tv.yandex.ua/2/channels/648
p1172
sbag3
(g4
g5
Ntp1173
Rp1174
(dp1175
g9
Vhttp://avatars.yandex.net/get-tv-shows/1333718307034M58256/orig
p1176
sg11
V\u0434\u0435\u0432\u044f\u0442\u044b\u0439 \u043e\u0440\u0431\u0438\u0442\u0430 \u0420\u043e\u0441\u0441\u0438\u044f
p1177
sg13
Vhttp://tv.yandex.ua/2/channels/237
p1178
sbag3
(g4
g5
Ntp1179
Rp1180
(dp1181
g9
Vhttp://avatars.yandex.net/get-tv-shows/1333708793754M69706/orig
p1182
sg11
V\u0438\u043d\u0442\u0435\u0440\u0435\u0441\u043d\u043e\u0435 \u0420\u043e\u0441\u0441\u0438\u044f
p1183
sg13
Vhttp://tv.yandex.ua/2/channels/24
p1184
sbag3
(g4
g5
Ntp1185
Rp1186
(dp1187
g9
Vhttp://avatars.yandex.net/get-tv-channel-logos/1357914650300M76133/orig
p1188
sg11
V\u0444\u0443\u0442\u0431\u043e\u043b \u0423\u043a\u0440\u0430\u0438\u043d\u0430
p1189
sg13
Vhttp://tv.yandex.ua/187/channels/666
p1190
sbag3
(g4
g5
Ntp1191
Rp1192
(dp1193
g9
Vhttp://avatars.yandex.net/get-tv-shows/1333716803563M50186/orig
p1194
sg11
V\u043a x \u043b \u0423\u043a\u0440\u0430\u0438\u043d\u0430
p1195
sg13
Vhttp://tv.yandex.ua/187/channels/481
p1196
sbag3
(g4
g5
Ntp1197
Rp1198
(dp1199
g9
Vhttp://avatars.yandex.net/get-tv-shows/1333712655464M52829/orig
p1200
sg11
Vvh1 classic \u0423\u043a\u0440\u0430\u0438\u043d\u0430
p1201
sg13
Vhttp://tv.yandex.ua/187/channels/156
p1202
sbag3
(g4
g5
Ntp1203
Rp1204
(dp1205
g9
Vhttp://avatars.yandex.net/get-tv-shows/1333713975231M23496/orig
p1206
sg11
Vx x i \u0423\u043a\u0440\u0430\u0438\u043d\u0430
p1207
sg13
Vhttp://tv.yandex.ua/187/channels/309
p1208
sbag3
(g4
g5
Ntp1209
Rp1210
(dp1211
g9
Vhttp://avatars.yandex.net/get-tv-shows/1333713688755M57280/orig
p1212
sg11
V\u0432\u0440\u0435\u043c\u044f \u0423\u043a\u0440\u0430\u0438\u043d\u0430
p1213
sg13
Vhttp://tv.yandex.ua/187/channels/669
p1214
sbag3
(g4
g5
Ntp1215
Rp1216
(dp1217
g9
Vhttp://avatars.yandex.net/get-tv-shows/1333715630513M36394/orig
p1218
sg11
V\u043d \u0442\u0432 + \u0444\u0443\u0442\u0431\u043e\u043b \u0423\u043a\u0440\u0430\u0438\u043d\u0430
p1219
sg13
Vhttp://tv.yandex.ua/187/channels/664
p1220
sbag3
(g4
g5
Ntp1221
Rp1222
(dp1223
g9
Vhttp://avatars.yandex.net/get-tv-shows/1333707965006M57212/orig
p1224
sg11
V\u0437\u0430\u043a\u043e\u043d \u0423\u043a\u0440\u0430\u0438\u043d\u0430
p1225
sg13
Vhttp://tv.yandex.ua/187/channels/178
p1226
sbag3
(g4
g5
Ntp1227
Rp1228
(dp1229
g9
Vhttp://avatars.yandex.net/get-tv-channel-logos/1357919989620M30635/orig
p1230
sg11
V\u0434\u0435\u0442\u0441\u043a\u0438\u0439 \u043c\u0438\u0440 + \u0442\u0435\u043b\u0435\u043a\u043b\u0443\u0431 \u0420\u043e\u0441\u0441\u0438\u044f
p1231
sg13
Vhttp://tv.yandex.ua/213/channels/923
p1232
sbag3
(g4
g5
Ntp1233
Rp1234
(dp1235
g9
Vhttp://avatars.yandex.net/get-tv-channel-logos/1357914614690M92867/orig
p1236
sg11
V\u0444\u0443\u0442\u0431\u043e\u043b + \u0423\u043a\u0440\u0430\u0438\u043d\u0430
p1237
sg13
Vhttp://tv.yandex.ua/187/channels/753
p1238
sbag3
(g4
g5
Ntp1239
Rp1240
(dp1241
g9
Vhttp://avatars.yandex.net/get-tv-shows/1333715457146M21776/orig
p1242
sg11
Vmusicbo x ru \u0423\u043a\u0440\u0430\u0438\u043d\u0430
p1243
sg13
Vhttp://tv.yandex.ua/187/channels/25
p1244
sbag3
(g4
g5
Ntp1245
Rp1246
(dp1247
g9
Vhttp://avatars.yandex.net/get-tv-channel-logos/1356596026566M65418/orig
p1248
sg11
V\u043c\u0438\u0440 \u0423\u043a\u0440\u0430\u0438\u043d\u0430
p1249
sg13
Vhttp://tv.yandex.ua/187/channels/726
p1250
sbag3
(g4
g5
Ntp1251
Rp1252
(dp1253
g9
Vhttp://avatars.yandex.net/get-tv-shows/1333713043514M62310/orig
p1254
sg11
Vm tv rocks \u0420\u043e\u0441\u0441\u0438\u044f
p1255
sg13
Vhttp://tv.yandex.ua/213/channels/388
p1256
sbag3
(g4
g5
Ntp1257
Rp1258
(dp1259
g9
Vhttp://avatars.yandex.net/get-tv-shows/1333715379935M43316/orig
p1260
sg11
V\u043a\u0438\u043d\u043e\u043b\u044e\u043a\u0441 \u0423\u043a\u0440\u0430\u0438\u043d\u0430
p1261
sg13
Vhttp://tv.yandex.ua/187/channels/8
p1262
sbag3
(g4
g5
Ntp1263
Rp1264
(dp1265
g9
Vhttp://avatars.yandex.net/get-tv-shows/1333708104672M58814/orig
p1266
sg11
V\u043e2 \u0442\u0432 \u0420\u043e\u0441\u0441\u0438\u044f
p1267
sg13
Vhttp://tv.yandex.ua/2/channels/777
p1268
sbag3
(g4
g5
Ntp1269
Rp1270
(dp1271
g9
Vhttp://avatars.yandex.net/get-tv-channel-logos/1348587564748M70641/orig
p1272
sg11
V\u0434\u0435\u0442\u0441\u043a\u0438\u0439 \u0423\u043a\u0440\u0430\u0438\u043d\u0430
p1273
sg13
Vhttp://tv.yandex.ua/187/channels/66
p1274
sbag3
(g4
g5
Ntp1275
Rp1276
(dp1277
g9
Vhttp://avatars.yandex.net/get-tv-shows/1333715451160M7791/orig
p1278
sg11
Vma\u043a\u0441i t\u0432 \u0423\u043a\u0440\u0430\u0438\u043d\u0430
p1279
sg13
Vhttp://tv.yandex.ua/187/channels/228
p1280
sbag3
(g4
g5
Ntp1281
Rp1282
(dp1283
g9
Vhttp://avatars.yandex.net/get-tv-shows/1333715678054M1312/orig
p1284
sg11
V\u0437\u0434\u043e\u0440\u043e\u0432\u043e\u0435 \u0420\u043e\u0441\u0441\u0438\u044f
p1285
sg13
Vhttp://tv.yandex.ua/213/channels/595
p1286
sbag3
(g4
g5
Ntp1287
Rp1288
(dp1289
g9
Vhttp://avatars.yandex.net/get-tv-shows/1333715678250M70241/orig
p1290
sg11
Vmotors \u0420\u043e\u0441\u0441\u0438\u044f
p1291
sg13
Vhttp://tv.yandex.ua/2/channels/531
p1292
sbag3
(g4
g5
Ntp1293
Rp1294
(dp1295
g9
Vhttp://avatars.yandex.net/get-tv-channel-logos/1376043754084M51542/orig
p1296
sg11
V\u0440\u043e\u0441\u0441\u0438\u044f 24 \u0423\u043a\u0440\u0430\u0438\u043d\u0430
p1297
sg13
Vhttp://tv.yandex.ua/187/channels/291
p1298
sbag3
(g4
g5
Ntp1299
Rp1300
(dp1301
g9
Vhttp://avatars.yandex.net/get-tv-channel-logos/1367839508718M42390/orig
p1302
sg11
Vsony sci fi \u0420\u043e\u0441\u0441\u0438\u044f
p1303
sg13
Vhttp://tv.yandex.ua/213/channels/516
p1304
sbag3
(g4
g5
Ntp1305
Rp1306
(dp1307
g9
Vhttp://avatars.yandex.net/get-tv-shows/1333715626042M2466/orig
p1308
sg11
Vnickelodeon \u0423\u043a\u0440\u0430\u0438\u043d\u0430
p1309
sg13
Vhttp://tv.yandex.ua/187/channels/423
p1310
sbag3
(g4
g5
Ntp1311
Rp1312
(dp1313
g9
Vhttp://avatars.yandex.net/get-tv-shows/1333708911984M73554/orig
p1314
sg11
Vamazing life \u0423\u043a\u0440\u0430\u0438\u043d\u0430
p1315
sg13
Vhttp://tv.yandex.ua/187/channels/658
p1316
sbag3
(g4
g5
Ntp1317
Rp1318
(dp1319
g9
Vhttp://avatars.yandex.net/get-tv-shows/1333708147128M24922/orig
p1320
sg11
V\u043a\u0438\u043d\u043e\u043c\u0430\u043d\u0438\u044f \u0423\u043a\u0440\u0430\u0438\u043d\u0430
p1321
sg13
Vhttp://tv.yandex.ua/187/channels/646
p1322
sbag3
(g4
g5
Ntp1323
Rp1324
(dp1325
g9
Vhttp://avatars.yandex.net/get-tv-shows/1333715410270M23339/orig
p1326
sg11
Vviasat history \u0420\u043e\u0441\u0441\u0438\u044f
p1327
sg13
Vhttp://tv.yandex.ua/2/channels/277
p1328
sbag3
(g4
g5
Ntp1329
Rp1330
(dp1331
g9
Vhttp://avatars.yandex.net/get-tv-channel-logos/1346751438482M48687/orig
p1332
sg11
V8 \u0420\u043e\u0441\u0441\u0438\u044f
p1333
sg13
Vhttp://tv.yandex.ua/2/channels/217
p1334
sbag3
(g4
g5
Ntp1335
Rp1336
(dp1337
g9
Vhttp://avatars.yandex.net/get-tv-shows/1333713976352M79712/orig
p1338
sg11
Vnewsone \u0420\u043e\u0441\u0441\u0438\u044f
p1339
sg13
Vhttp://tv.yandex.ua/213/channels/247
p1340
sbag3
(g4
g5
Ntp1341
Rp1342
(dp1343
g9
Vhttp://avatars.yandex.net/get-tv-shows/1333712622127M71944/orig
p1344
sg11
Vmgm \u0420\u043e\u0441\u0441\u0438\u044f
p1345
sg13
Vhttp://tv.yandex.ua/213/channels/608
p1346
sbag3
(g4
g5
Ntp1347
Rp1348
(dp1349
g9
Vhttp://avatars.yandex.net/get-tv-shows/1333712715401M79935/orig
p1350
sg11
Vtlc \u0423\u043a\u0440\u0430\u0438\u043d\u0430
p1351
sg13
Vhttp://tv.yandex.ua/187/channels/425
p1352
sbag3
(g4
g5
Ntp1353
Rp1354
(dp1355
g9
Vhttp://avatars.yandex.net/get-tv-shows/1333716890872M95176/orig
p1356
sg11
Vx \u043e\u043a\u043a\u0435\u0439 \u0423\u043a\u0440\u0430\u0438\u043d\u0430
p1357
sg13
Vhttp://tv.yandex.ua/187/channels/702
p1358
sbag3
(g4
g5
Ntp1359
Rp1360
(dp1361
g9
Vhttp://avatars.yandex.net/get-tv-channel-logos/1372082475931M61842/orig
p1362
sg11
Vtv 1000 comedy \u0420\u043e\u0441\u0441\u0438\u044f
p1363
sg13
Vhttp://tv.yandex.ua/213/channels/1011
p1364
sbag3
(g4
g5
Ntp1365
Rp1366
(dp1367
g9
Vhttp://avatars.yandex.net/get-tv-shows/1333713160319M54984/orig
p1368
sg11
V\u0436\u0438\u0432\u0438 \u0423\u043a\u0440\u0430\u0438\u043d\u0430
p1369
sg13
Vhttp://tv.yandex.ua/187/channels/113
p1370
sbag3
(g4
g5
Ntp1371
Rp1372
(dp1373
g9
Vhttp://avatars.yandex.net/get-tv-shows/1333713457072M47395/orig
p1374
sg11
V\u0443\u043b\u044b\u0431\u043a\u0430 \u0440\u0435\u0431\u0435\u043d\u043a\u0430 \u0420\u043e\u0441\u0441\u0438\u044f
p1375
sg13
Vhttp://tv.yandex.ua/213/channels/789
p1376
sbag3
(g4
g5
Ntp1377
Rp1378
(dp1379
g9
Vhttp://avatars.yandex.net/get-tv-shows/1333715462882M95375/orig
p1380
sg11
Vjimjam \u0420\u043e\u0441\u0441\u0438\u044f
p1381
sg13
Vhttp://tv.yandex.ua/213/channels/494
p1382
sbag3
(g4
g5
Ntp1383
Rp1384
(dp1385
g9
Vhttp://avatars.yandex.net/get-tv-channel-logos/1373971720537M51364/orig
p1386
sg11
V24 \u0434\u043e\u043a \u0423\u043a\u0440\u0430\u0438\u043d\u0430
p1387
sg13
Vhttp://tv.yandex.ua/187/channels/16
p1388
sbag3
(g4
g5
Ntp1389
Rp1390
(dp1391
g9
Vhttp://avatars.yandex.net/get-tv-shows/1333708636011M82578/orig
p1392
sg11
V\u0434\u043e\u043c \u043a\u0438\u043d\u043e \u0423\u043a\u0440\u0430\u0438\u043d\u0430
p1393
sg13
Vhttp://tv.yandex.ua/187/channels/834
p1394
sbag3
(g4
g5
Ntp1395
Rp1396
(dp1397
g9
Vhttp://avatars.yandex.net/get-tv-channel-logos/1367839418867M60240/orig
p1398
sg11
Vsony \u0420\u043e\u0441\u0441\u0438\u044f
p1399
sg13
Vhttp://tv.yandex.ua/2/channels/311
p1400
sbag3
(g4
g5
Ntp1401
Rp1402
(dp1403
g9
Vhttp://avatars.yandex.net/get-tv-channel-logos/1368713267762M92996/orig
p1404
sg11
V\u043a\u043e\u043c\u0441\u043e\u043c\u043e\u043b\u044c\u0441\u043a\u0430\u044f \u043f\u0440\u0430\u0432\u0434\u0430 \u0420\u043e\u0441\u0441\u0438\u044f
p1405
sg13
Vhttp://tv.yandex.ua/2/channels/852
p1406
sbag3
(g4
g5
Ntp1407
Rp1408
(dp1409
g9
Vhttp://avatars.yandex.net/get-tv-channel-logos/1369922771805M94532/orig
p1410
sg11
V\u0447\u043f info \u0423\u043a\u0440\u0430\u0438\u043d\u0430
p1411
sg13
Vhttp://tv.yandex.ua/187/channels/315
p1412
sbag3
(g4
g5
Ntp1413
Rp1414
(dp1415
g9
Vhttp://avatars.yandex.net/get-tv-channel-logos/1363334808588M99509/orig
p1416
sg11
V\u0441\u0442\u0441 international \u0423\u043a\u0440\u0430\u0438\u043d\u0430
p1417
sg13
Vhttp://tv.yandex.ua/187/channels/166
p1418
sbag3
(g4
g5
Ntp1419
Rp1420
(dp1421
g9
Vhttp://avatars.yandex.net/get-tv-shows/1333713085591M64755/orig
p1422
sg11
Vocean \u0420\u043e\u0441\u0441\u0438\u044f
p1423
sg13
Vhttp://tv.yandex.ua/2/channels/55
p1424
sbag3
(g4
g5
Ntp1425
Rp1426
(dp1427
g9
Vhttp://avatars.yandex.net/get-tv-shows/1333716022003M36980/orig
p1428
sg11
V\u0442\u0435\u043b\u0435\u043f\u0443\u0442\u0435\u0448\u0435\u0441 \u0442\u0432 \u0438\u044f \u0423\u043a\u0440\u0430\u0438\u043d\u0430
p1429
sg13
Vhttp://tv.yandex.ua/187/channels/331
p1430
sbag3
(g4
g5
Ntp1431
Rp1432
(dp1433
g9
Vhttp://avatars.yandex.net/get-tv-shows/1333708221386M8318/orig
p1434
sg11
Vmyzen tv \u0420\u043e\u0441\u0441\u0438\u044f
p1435
sg13
Vhttp://tv.yandex.ua/213/channels/141
p1436
sbag3
(g4
g5
Ntp1437
Rp1438
(dp1439
g9
Vhttp://avatars.yandex.net/get-tv-shows/1333715692247M50804/orig
p1440
sg11
V\u044e\u043c\u043e\u0440 bo x \u0420\u043e\u0441\u0441\u0438\u044f
p1441
sg13
Vhttp://tv.yandex.ua/213/channels/412
p1442
sbag3
(g4
g5
Ntp1443
Rp1444
(dp1445
g9
Vhttp://avatars.yandex.net/get-tv-shows/1333713538946M7262/orig
p1446
sg11
Vvh1 european \u0423\u043a\u0440\u0430\u0438\u043d\u0430
p1447
sg13
Vhttp://tv.yandex.ua/187/channels/491
p1448
sbag3
(g4
g5
Ntp1449
Rp1450
(dp1451
g9
Vhttp://avatars.yandex.net/get-tv-channel-logos/1344328736344M68981/orig
p1452
sg11
V\u043a\u0443 x \u043d\u044f \u0420\u043e\u0441\u0441\u0438\u044f
p1453
sg13
Vhttp://tv.yandex.ua/2/channels/614
p1454
sbag3
(g4
g5
Ntp1455
Rp1456
(dp1457
g9
Vhttp://avatars.yandex.net/get-tv-shows/1333707554614M47050/orig
p1458
sg11
V\u0437\u043e\u043e \u0423\u043a\u0440\u0430\u0438\u043d\u0430
p1459
sg13
Vhttp://tv.yandex.ua/187/channels/273
p1460
sbag3
(g4
g5
Ntp1461
Rp1462
(dp1463
g9
Vhttp://avatars.yandex.net/get-tv-shows/1333707836435M19145/orig
p1464
sg11
V\u043c\u0443\u043b\u044c\u0442\u0438\u043c\u0430\u043d\u0438\u044f \u0420\u043e\u0441\u0441\u0438\u044f
p1465
sg13
Vhttp://tv.yandex.ua/213/channels/31
p1466
sbag3
(g4
g5
Ntp1467
Rp1468
(dp1469
g9
Vhttp://avatars.yandex.net/get-tv-shows/1333713176648M89316/orig
p1470
sg11
Vtv 1000 action \u0423\u043a\u0440\u0430\u0438\u043d\u0430
p1471
sg13
Vhttp://tv.yandex.ua/187/channels/125
p1472
sbag3
(g4
g5
Ntp1473
Rp1474
(dp1475
g9
Vhttp://avatars.yandex.net/get-tv-channel-logos/1373971834060M62395/orig
p1476
sg11
V24 \u0442\u0435 x \u043d\u043e \u0423\u043a\u0440\u0430\u0438\u043d\u0430
p1477
sg13
Vhttp://tv.yandex.ua/187/channels/710
p1478
sbag3
(g4
g5
Ntp1479
Rp1480
(dp1481
g9
Vhttp://avatars.yandex.net/get-tv-shows/1333715189760M70159/orig
p1482
sg11
V\u0441\u043e\u044e\u0437 \u0423\u043a\u0440\u0430\u0438\u043d\u0430
p1483
sg13
Vhttp://tv.yandex.ua/187/channels/349
p1484
sbag3
(g4
g5
Ntp1485
Rp1486
(dp1487
g9
Vhttp://avatars.yandex.net/get-tv-shows/1333713984447M70308/orig
p1488
sg11
Veurosport \u0420\u043e\u0441\u0441\u0438\u044f
p1489
sg13
Vhttp://tv.yandex.ua/213/channels/737
p1490
sbag3
(g4
g5
Ntp1491
Rp1492
(dp1493
g9
Vhttp://avatars.yandex.net/get-tv-shows/1333708977916M89754/orig
p1494
sg11
V\u0442\u0431\u043d \u0423\u043a\u0440\u0430\u0438\u043d\u0430
p1495
sg13
Vhttp://tv.yandex.ua/187/channels/576
p1496
sbag3
(g4
g5
Ntp1497
Rp1498
(dp1499
g9
Vhttp://avatars.yandex.net/get-tv-shows/1333708977916M89754/orig
p1500
sg11
V\u0442\u0431\u043d \u0420\u043e\u0441\u0441\u0438\u044f
p1501
sg13
Vhttp://tv.yandex.ua/213/channels/576
p1502
sbag3
(g4
g5
Ntp1503
Rp1504
(dp1505
g9
Vhttp://avatars.yandex.net/get-tv-shows/1333715973315M28208/orig
p1506
sg11
Vfo x life \u0420\u043e\u0441\u0441\u0438\u044f
p1507
sg13
Vhttp://tv.yandex.ua/2/channels/615
p1508
sbag3
(g4
g5
Ntp1509
Rp1510
(dp1511
g9
Vhttp://avatars.yandex.net/get-tv-shows/1333715632130M79158/orig
p1512
sg11
V\u0442\u043d\u0432 \u0420\u043e\u0441\u0441\u0438\u044f
p1513
sg13
Vhttp://tv.yandex.ua/2/channels/180
p1514
sbag3
(g4
g5
Ntp1515
Rp1516
(dp1517
g9
Vhttp://avatars.yandex.net/get-tv-shows/1333715691315M43621/orig
p1518
sg11
V\u0438\u043b\u043b\u044e\u0437\u0438\u043e\u043d + \u0423\u043a\u0440\u0430\u0438\u043d\u0430
p1519
sg13
Vhttp://tv.yandex.ua/187/channels/123
p1520
sbag3
(g4
g5
Ntp1521
Rp1522
(dp1523
g9
Vhttp://avatars.yandex.net/get-tv-shows/1333712622127M71944/orig
p1524
sg11
Vmgm \u0420\u043e\u0441\u0441\u0438\u044f
p1525
sg13
Vhttp://tv.yandex.ua/2/channels/608
p1526
sbag3
(g4
g5
Ntp1527
Rp1528
(dp1529
g9
Vhttp://avatars.yandex.net/get-tv-channel-logos/1349091347332M99473/orig
p1530
sg11
Vfo x \u0420\u043e\u0441\u0441\u0438\u044f
p1531
sg13
Vhttp://tv.yandex.ua/213/channels/659
p1532
sbag3
(g4
g5
Ntp1533
Rp1534
(dp1535
g9
Vhttp://avatars.yandex.net/get-tv-channel-logos/1369122142477M33493/orig
p1536
sg11
V\u043e\u0431\u0449\u0435\u0441 \u0442\u0432 \u0435\u043d\u043d\u043e\u0435 \u0442\u0435\u043b\u0435\u0432\u0438\u0434\u0435\u043d\u0438\u0435 \u0440\u043e\u0441\u0441\u0438\u0438 \u0420\u043e\u0441\u0441\u0438\u044f
p1537
sg13
Vhttp://tv.yandex.ua/2/channels/1000
p1538
sbag3
(g4
g5
Ntp1539
Rp1540
(dp1541
g9
Vhttp://avatars.yandex.net/get-tv-shows/1333712702253M97202/orig
p1542
sg11
V\u0437\u0430\u0433\u043e\u0440\u043e\u0434\u043d\u0430\u044f \u0436\u0438\u0437\u043d\u044c \u0420\u043e\u0441\u0441\u0438\u044f
p1543
sg13
Vhttp://tv.yandex.ua/2/channels/21
p1544
sbag3
(g4
g5
Ntp1545
Rp1546
(dp1547
g9
Vhttp://avatars.yandex.net/get-tv-shows/1333713680513M60480/orig
p1548
sg11
V\u043d \u0442\u0432 + \u0441\u043f\u043e\u0440\u0442 + \u0423\u043a\u0440\u0430\u0438\u043d\u0430
p1549
sg13
Vhttp://tv.yandex.ua/187/channels/377
p1550
sbag3
(g4
g5
Ntp1551
Rp1552
(dp1553
g9
Vhttp://avatars.yandex.net/get-tv-channel-logos/1369919164679M36371/orig
p1554
sg11
V\u0434\u043e\u0431\u0440\u043e \u0443\u043a\u0440\u0430\u0438\u043d\u0430 \u0423\u043a\u0440\u0430\u0438\u043d\u0430
p1555
sg13
Vhttp://tv.yandex.ua/187/channels/937
p1556
sbag3
(g4
g5
Ntp1557
Rp1558
(dp1559
g9
Vhttp://avatars.yandex.net/get-tv-shows/1333716977495M19933/orig
p1560
sg11
Vdiscovery showcase \u0423\u043a\u0440\u0430\u0438\u043d\u0430
p1561
sg13
Vhttp://tv.yandex.ua/187/channels/111
p1562
sbag3
(g4
g5
Ntp1563
Rp1564
(dp1565
g9
Vhttp://avatars.yandex.net/get-tv-shows/1333715457097M72151/orig
p1566
sg11
V\u043e x \u043e\u0442\u0430 \u0438 \u0440\u044b\u0431\u0430\u043b\u043a\u0430 \u0420\u043e\u0441\u0441\u0438\u044f
p1567
sg13
Vhttp://tv.yandex.ua/213/channels/617
p1568
sbag3
(g4
g5
Ntp1569
Rp1570
(dp1571
g9
Vhttp://avatars.yandex.net/get-tv-shows/1333715673198M2663/orig
p1572
sg11
V\u043f\u0435\u0440\u0432\u044b\u0439 \u043c\u0435\u0442\u0435\u043e \u0423\u043a\u0440\u0430\u0438\u043d\u0430
p1573
sg13
Vhttp://tv.yandex.ua/187/channels/59
p1574
sbag3
(g4
g5
Ntp1575
Rp1576
(dp1577
g9
Vhttp://avatars.yandex.net/get-tv-channel-logos/1336217768352M70407/orig
p1578
sg11
V\u043a\u043e\u043c\u0435\u0434\u0438\u044f \u0420\u043e\u0441\u0441\u0438\u044f
p1579
sg13
Vhttp://tv.yandex.ua/213/channels/821
p1580
sbag3
(g4
g5
Ntp1581
Rp1582
(dp1583
g9
Vhttp://avatars.yandex.net/get-tv-shows/1333709127662M17128/orig
p1584
sg11
V\u043d\u043e\u0441\u0442\u0430\u043b\u044c\u0433\u0438\u044f \u0420\u043e\u0441\u0441\u0438\u044f
p1585
sg13
Vhttp://tv.yandex.ua/213/channels/783
p1586
sbag3
(g4
g5
Ntp1587
Rp1588
(dp1589
g9
Vhttp://avatars.yandex.net/get-tv-channel-logos/1375100533306M30018/orig
p1590
sg11
Vdeutsche welle \u0420\u043e\u0441\u0441\u0438\u044f
p1591
sg13
Vhttp://tv.yandex.ua/213/channels/355
p1592
sbag3
(g4
g5
Ntp1593
Rp1594
(dp1595
g9
Vhttp://avatars.yandex.net/get-tv-shows/1333707995986M34877/orig
p1596
sg11
V\u0438\u043d\u0434\u0438\u044f \u0423\u043a\u0440\u0430\u0438\u043d\u0430
p1597
sg13
Vhttp://tv.yandex.ua/187/channels/798
p1598
sbag3
(g4
g5
Ntp1599
Rp1600
(dp1601
g9
Vhttp://avatars.yandex.net/get-tv-shows/1333707837348M40226/orig
p1602
sg11
Vfrance 24 \u0420\u043e\u0441\u0441\u0438\u044f
p1603
sg13
Vhttp://tv.yandex.ua/2/channels/461
p1604
sbag3
(g4
g5
Ntp1605
Rp1606
(dp1607
g9
Vhttp://avatars.yandex.net/get-tv-channel-logos/1369919010062M69241/orig
p1608
sg11
V\u0441\u0438\u043d\u0435\u0440\u0433\u0438\u044f \u0420\u043e\u0441\u0441\u0438\u044f
p1609
sg13
Vhttp://tv.yandex.ua/2/channels/932
p1610
sbag3
(g4
g5
Ntp1611
Rp1612
(dp1613
g9
Vhttp://avatars.yandex.net/get-tv-shows/1333715189104M67729/orig
p1614
sg11
Vru tv \u0423\u043a\u0440\u0430\u0438\u043d\u0430
p1615
sg13
Vhttp://tv.yandex.ua/187/channels/258
p1616
sbag3
(g4
g5
Ntp1617
Rp1618
(dp1619
g9
Vhttp://avatars.yandex.net/get-tv-shows/1333713983645M99328/orig
p1620
sg11
V\u0437\u043d\u0430\u043d\u0438\u0435 \u0420\u043e\u0441\u0441\u0438\u044f
p1621
sg13
Vhttp://tv.yandex.ua/213/channels/201
p1622
sbag3
(g4
g5
Ntp1623
Rp1624
(dp1625
g9
Vhttp://avatars.yandex.net/get-tv-shows/1333715291495M67100/orig
p1626
sg11
V\u043f\u0440\u043e\u0441\u0432\u0435\u0449\u0435\u043d\u0438\u0435 \u0420\u043e\u0441\u0441\u0438\u044f
p1627
sg13
Vhttp://tv.yandex.ua/213/channels/685
p1628
sbag3
(g4
g5
Ntp1629
Rp1630
(dp1631
g9
Vhttp://avatars.yandex.net/get-tv-shows/1333713389359M36074/orig
p1632
sg11
V\u043c\u0435\u0434\u0438\u0430 \u0423\u043a\u0440\u0430\u0438\u043d\u0430
p1633
sg13
Vhttp://tv.yandex.ua/187/channels/631
p1634
sbag3
(g4
g5
Ntp1635
Rp1636
(dp1637
g9
Vhttp://avatars.yandex.net/get-tv-shows/1333713929498M22985/orig
p1638
sg11
V\u0440\u0443\u0441\u0441\u043a\u0438\u0439 \u0440\u043e\u043c\u0430\u043d \u0420\u043e\u0441\u0441\u0438\u044f
p1639
sg13
Vhttp://tv.yandex.ua/2/channels/401
p1640
sbag3
(g4
g5
Ntp1641
Rp1642
(dp1643
g9
Vhttp://avatars.yandex.net/get-tv-shows/1333713816053M8679/orig
p1644
sg11
Vfashion \u0423\u043a\u0440\u0430\u0438\u043d\u0430
p1645
sg13
Vhttp://tv.yandex.ua/187/channels/661
p1646
sbag3
(g4
g5
Ntp1647
Rp1648
(dp1649
g9
Vhttp://avatars.yandex.net/get-tv-shows/1333713975231M23496/orig
p1650
sg11
Vx x i \u0420\u043e\u0441\u0441\u0438\u044f
p1651
sg13
Vhttp://tv.yandex.ua/2/channels/309
p1652
sbag3
(g4
g5
Ntp1653
Rp1654
(dp1655
g9
Vhttp://avatars.yandex.net/get-tv-shows/1333708247585M68464/orig
p1656
sg11
V\u043e\u0440\u0443\u0436\u0438\u0435 \u0420\u043e\u0441\u0441\u0438\u044f
p1657
sg13
Vhttp://tv.yandex.ua/213/channels/376
p1658
sbag3
(g4
g5
Ntp1659
Rp1660
(dp1661
g9
Vhttp://avatars.yandex.net/get-tv-channel-logos/1369922395689M39230/orig
p1662
sg11
V\u043a\u0438\u043d\u043e 2 \u0420\u043e\u0441\u0441\u0438\u044f
p1663
sg13
Vhttp://tv.yandex.ua/213/channels/988
p1664
sbag3
(g4
g5
Ntp1665
Rp1666
(dp1667
g9
Vhttp://avatars.yandex.net/get-tv-shows/1333716877043M9588/orig
p1668
sg11
Ve x treme sports \u0423\u043a\u0440\u0430\u0438\u043d\u0430
p1669
sg13
Vhttp://tv.yandex.ua/187/channels/288
p1670
sbag3
(g4
g5
Ntp1671
Rp1672
(dp1673
g9
Vhttp://avatars.yandex.net/get-tv-shows/1333715305189M35114/orig
p1674
sg11
V\u043c\u0443\u0436\u0441\u043a\u043e\u0439 \u0420\u043e\u0441\u0441\u0438\u044f
p1675
sg13
Vhttp://tv.yandex.ua/213/channels/82
p1676
sbag3
(g4
g5
Ntp1677
Rp1678
(dp1679
g9
Vhttp://avatars.yandex.net/get-tv-shows/1333715692247M50804/orig
p1680
sg11
V\u044e\u043c\u043e\u0440 bo x \u0423\u043a\u0440\u0430\u0438\u043d\u0430
p1681
sg13
Vhttp://tv.yandex.ua/187/channels/412
p1682
sbag3
(g4
g5
Ntp1683
Rp1684
(dp1685
g9
Vhttp://avatars.yandex.net/get-tv-shows/1333715963968M59749/orig
p1686
sg11
Vanimal planet \u0423\u043a\u0440\u0430\u0438\u043d\u0430
p1687
sg13
Vhttp://tv.yandex.ua/187/channels/607
p1688
sbag3
(g4
g5
Ntp1689
Rp1690
(dp1691
g9
Vhttp://avatars.yandex.net/get-tv-shows/1333713945719M63469/orig
p1692
sg11
V\u0434\u043e\u0436\u0434\u044c \u0420\u043e\u0441\u0441\u0438\u044f
p1693
sg13
Vhttp://tv.yandex.ua/2/channels/384
p1694
sbag3
(g4
g5
Ntp1695
Rp1696
(dp1697
g9
Vhttp://avatars.yandex.net/get-tv-channel-logos/1346751438482M48687/orig
p1698
sg11
V8 \u0423\u043a\u0440\u0430\u0438\u043d\u0430
p1699
sg13
Vhttp://tv.yandex.ua/187/channels/217
p1700
sbag3
(g4
g5
Ntp1701
Rp1702
(dp1703
g9
Vhttp://avatars.yandex.net/get-tv-shows/1333718307034M58256/orig
p1704
sg11
V\u0434\u0435\u0432\u044f\u0442\u044b\u0439 \u043e\u0440\u0431\u0438\u0442\u0430 \u0420\u043e\u0441\u0441\u0438\u044f
p1705
sg13
Vhttp://tv.yandex.ua/213/channels/237
p1706
sbag3
(g4
g5
Ntp1707
Rp1708
(dp1709
g9
Vhttp://avatars.yandex.net/get-tv-channel-logos/1349091347332M99473/orig
p1710
sg11
Vfo x \u0423\u043a\u0440\u0430\u0438\u043d\u0430
p1711
sg13
Vhttp://tv.yandex.ua/187/channels/659
p1712
sbag3
(g4
g5
Ntp1713
Rp1714
(dp1715
g9
Vhttp://avatars.yandex.net/get-tv-shows/1333707848439M17779/orig
p1716
sg11
V\u0434\u043e\u043c\u0430\u0448\u043d\u0438\u0435 \u0436\u0438\u0432\u043e\u0442\u043d\u044b\u0435 \u0420\u043e\u0441\u0441\u0438\u044f
p1717
sg13
Vhttp://tv.yandex.ua/213/channels/520
p1718
sbag3
(g4
g5
Ntp1719
Rp1720
(dp1721
g9
Vhttp://avatars.yandex.net/get-tv-shows/1333708892947M65043/orig
p1722
sg11
V\u0448\u0430\u043d\u0441\u043e\u043d tb \u0420\u043e\u0441\u0441\u0438\u044f
p1723
sg13
Vhttp://tv.yandex.ua/2/channels/662
p1724
sbag3
(g4
g5
Ntp1725
Rp1726
(dp1727
g9
Vhttp://avatars.yandex.net/get-tv-shows/1333713989705M95921/orig
p1728
sg11
Veurosport 2 \u0423\u043a\u0440\u0430\u0438\u043d\u0430
p1729
sg13
Vhttp://tv.yandex.ua/187/channels/850
p1730
sbag3
(g4
g5
Ntp1731
Rp1732
(dp1733
g9
Vhttp://avatars.yandex.net/get-tv-channel-logos/1358335632205M86039/orig
p1734
sg11
Vdiscovery science \u0420\u043e\u0441\u0441\u0438\u044f
p1735
sg13
Vhttp://tv.yandex.ua/2/channels/409
p1736
sbag3
(g4
g5
Ntp1737
Rp1738
(dp1739
g9
Vhttp://avatars.yandex.net/get-tv-shows/1333715852220M49281/orig
p1740
sg11
V\u0442\u0443\u0440\u0438\u043d\u0444\u043e \u0420\u043e\u0441\u0441\u0438\u044f
p1741
sg13
Vhttp://tv.yandex.ua/2/channels/731
p1742
sbag3
(g4
g5
Ntp1743
Rp1744
(dp1745
g9
Vhttp://avatars.yandex.net/get-tv-channel-logos/1374658963600M49521/orig
p1746
sg11
Vzoo\u043f\u0430\u0440\u043a \u0423\u043a\u0440\u0430\u0438\u043d\u0430
p1747
sg13
Vhttp://tv.yandex.ua/187/channels/367
p1748
sbag3
(g4
g5
Ntp1749
Rp1750
(dp1751
g9
Vhttp://avatars.yandex.net/get-tv-shows/1333713929498M22985/orig
p1752
sg11
V\u0440\u0443\u0441\u0441\u043a\u0438\u0439 \u0440\u043e\u043c\u0430\u043d \u0420\u043e\u0441\u0441\u0438\u044f
p1753
sg13
Vhttp://tv.yandex.ua/213/channels/401
p1754
sbag3
(g4
g5
Ntp1755
Rp1756
(dp1757
g9
Vhttp://avatars.yandex.net/get-tv-channel-logos/1367839418867M60240/orig
p1758
sg11
Vsony \u0423\u043a\u0440\u0430\u0438\u043d\u0430
p1759
sg13
Vhttp://tv.yandex.ua/187/channels/311
p1760
sbag3
(g4
g5
Ntp1761
Rp1762
(dp1763
g9
Vhttp://avatars.yandex.net/get-tv-shows/1333715744438M85797/orig
p1764
sg11
V\u0443\u0441\u043f\u0435 x \u0420\u043e\u0441\u0441\u0438\u044f
p1765
sg13
Vhttp://tv.yandex.ua/2/channels/547
p1766
sbag3
(g4
g5
Ntp1767
Rp1768
(dp1769
g9
Vhttp://avatars.yandex.net/get-tv-shows/1333715973315M28208/orig
p1770
sg11
Vfo x life \u0423\u043a\u0440\u0430\u0438\u043d\u0430
p1771
sg13
Vhttp://tv.yandex.ua/187/channels/615
p1772
sbag3
(g4
g5
Ntp1773
Rp1774
(dp1775
g9
Vhttp://avatars.yandex.net/get-tv-shows/1333708713306M38200/orig
p1776
sg11
Vtiji \u0423\u043a\u0440\u0430\u0438\u043d\u0430
p1777
sg13
Vhttp://tv.yandex.ua/187/channels/555
p1778
sbag3
(g4
g5
Ntp1779
Rp1780
(dp1781
g9
Vhttp://avatars.yandex.net/get-tv-channel-logos/1357918253235M64900/orig
p1782
sg11
Vfashion one \u0420\u043e\u0441\u0441\u0438\u044f
p1783
sg13
Vhttp://tv.yandex.ua/213/channels/919
p1784
sbag3
(g4
g5
Ntp1785
Rp1786
(dp1787
g9
Vhttp://avatars.yandex.net/get-tv-shows/1333716035229M94207/orig
p1788
sg11
Vdiscovery \u0420\u043e\u0441\u0441\u0438\u044f
p1789
sg13
Vhttp://tv.yandex.ua/213/channels/325
p1790
sbag3
(g4
g5
Ntp1791
Rp1792
(dp1793
g9
Vhttp://avatars.yandex.net/get-tv-channel-logos/1352288866335M72721/orig
p1794
sg11
V\u0441\u043f\u043e\u0440\u0442 \u0423\u043a\u0440\u0430\u0438\u043d\u0430
p1795
sg13
Vhttp://tv.yandex.ua/187/channels/154
p1796
sbag3
(g4
g5
Ntp1797
Rp1798
(dp1799
g9
Vhttp://avatars.yandex.net/get-tv-shows/1333715678054M1312/orig
p1800
sg11
V\u0437\u0434\u043e\u0440\u043e\u0432\u043e\u0435 \u0420\u043e\u0441\u0441\u0438\u044f
p1801
sg13
Vhttp://tv.yandex.ua/2/channels/595
p1802
sbag3
(g4
g5
Ntp1803
Rp1804
(dp1805
g9
Vhttp://avatars.yandex.net/get-tv-shows/1333713401739M87841/orig
p1806
sg11
Vtrace urban \u0423\u043a\u0440\u0430\u0438\u043d\u0430
p1807
sg13
Vhttp://tv.yandex.ua/187/channels/473
p1808
sbag3
(g4
g5
Ntp1809
Rp1810
(dp1811
g9
Vhttp://avatars.yandex.net/get-tv-shows/1333715379935M43316/orig
p1812
sg11
V\u043a\u0438\u043d\u043e\u043b\u044e\u043a\u0441 \u0420\u043e\u0441\u0441\u0438\u044f
p1813
sg13
Vhttp://tv.yandex.ua/2/channels/8
p1814
sbag3
(g4
g5
Ntp1815
Rp1816
(dp1817
g9
Vhttp://avatars.yandex.net/get-tv-channel-logos/1372082533949M94531/orig
p1818
sg11
Vtv 1000 premium \u0420\u043e\u0441\u0441\u0438\u044f
p1819
sg13
Vhttp://tv.yandex.ua/213/channels/1013
p1820
sbag3
(g4
g5
Ntp1821
Rp1822
(dp1823
g9
Vhttp://avatars.yandex.net/get-tv-shows/1333715589076M84567/orig
p1824
sg11
Vgulli \u0423\u043a\u0440\u0430\u0438\u043d\u0430
p1825
sg13
Vhttp://tv.yandex.ua/187/channels/810
p1826
sbag3
(g4
g5
Ntp1827
Rp1828
(dp1829
g9
Vhttp://avatars.yandex.net/get-tv-channel-logos/1357919547786M75281/orig
p1830
sg11
Vparamount comedy \u0420\u043e\u0441\u0441\u0438\u044f
p1831
sg13
Vhttp://tv.yandex.ua/213/channels/920
p1832
sbag3
(g4
g5
Ntp1833
Rp1834
(dp1835
g9
Vhttp://avatars.yandex.net/get-tv-shows/1333712861918M74194/orig
p1836
sg11
V\u0440\u0430\u0434\u043e\u0441\u0442\u044c \u043c\u043e\u044f \u0420\u043e\u0441\u0441\u0438\u044f
p1837
sg13
Vhttp://tv.yandex.ua/213/channels/638
p1838
sbag3
(g4
g5
Ntp1839
Rp1840
(dp1841
g9
Vhttp://avatars.yandex.net/get-tv-shows/1333713728999M14970/orig
p1842
sg11
V\u0431\u0435\u043b\u0430\u0440\u0443\u0441\u044c \u0420\u043e\u0441\u0441\u0438\u044f
p1843
sg13
Vhttp://tv.yandex.ua/213/channels/248
p1844
sbag3
(g4
g5
Ntp1845
Rp1846
(dp1847
g9
Vhttp://avatars.yandex.net/get-tv-shows/1333715747653M72464/orig
p1848
sg11
Veuronews \u0420\u043e\u0441\u0441\u0438\u044f
p1849
sg13
Vhttp://tv.yandex.ua/213/channels/23
p1850
sbag3
(g4
g5
Ntp1851
Rp1852
(dp1853
g9
Vhttp://avatars.yandex.net/get-tv-shows/1333713457072M47395/orig
p1854
sg11
V\u0443\u043b\u044b\u0431\u043a\u0430 \u0440\u0435\u0431\u0435\u043d\u043a\u0430 \u0423\u043a\u0440\u0430\u0438\u043d\u0430
p1855
sg13
Vhttp://tv.yandex.ua/187/channels/789
p1856
sbag3
(g4
g5
Ntp1857
Rp1858
(dp1859
g9
Vhttp://avatars.yandex.net/get-tv-shows/1333715747653M72464/orig
p1860
sg11
Veuronews \u0423\u043a\u0440\u0430\u0438\u043d\u0430
p1861
sg13
Vhttp://tv.yandex.ua/187/channels/23
p1862
sbag3
(g4
g5
Ntp1863
Rp1864
(dp1865
g9
Vhttp://avatars.yandex.net/get-tv-shows/1333715204463M59925/orig
p1866
sg11
Veurosport \u0423\u043a\u0440\u0430\u0438\u043d\u0430
p1867
sg13
Vhttp://tv.yandex.ua/187/channels/560
p1868
sbag3
(g4
g5
Ntp1869
Rp1870
(dp1871
g9
Vhttp://avatars.yandex.net/get-tv-channel-logos/1375100533306M30018/orig
p1872
sg11
Vdeutsche welle \u0420\u043e\u0441\u0441\u0438\u044f
p1873
sg13
Vhttp://tv.yandex.ua/2/channels/355
p1874
sbag3
(g4
g5
Ntp1875
Rp1876
(dp1877
g9
Vhttp://avatars.yandex.net/get-tv-shows/1333713644403M21507/orig
p1878
sg11
Vviasat nature cee \u0420\u043e\u0441\u0441\u0438\u044f
p1879
sg13
Vhttp://tv.yandex.ua/213/channels/765
p1880
sbag3
(g4
g5
Ntp1881
Rp1882
(dp1883
g9
Vhttp://avatars.yandex.net/get-tv-channel-logos/1370946919911M13255/orig
p1884
sg11
Vzoom \u0423\u043a\u0440\u0430\u0438\u043d\u0430
p1885
sg13
Vhttp://tv.yandex.ua/187/channels/1009
p1886
sbag3
(g4
g5
Ntp1887
Rp1888
(dp1889
g9
Vhttp://avatars.yandex.net/get-tv-shows/1333715678544M95135/orig
p1890
sg11
V\u043c\u0435\u0433\u0430 \u0423\u043a\u0440\u0430\u0438\u043d\u0430
p1891
sg13
Vhttp://tv.yandex.ua/187/channels/788
p1892
sbag3
(g4
g5
Ntp1893
Rp1894
(dp1895
g9
Vhttp://avatars.yandex.net/get-tv-shows/1333707836435M19145/orig
p1896
sg11
V\u043c\u0443\u043b\u044c\u0442\u0438\u043c\u0430\u043d\u0438\u044f \u0420\u043e\u0441\u0441\u0438\u044f
p1897
sg13
Vhttp://tv.yandex.ua/2/channels/31
p1898
sbag3
(g4
g5
Ntp1899
Rp1900
(dp1901
g9
Vhttp://avatars.yandex.net/get-tv-shows/1333715434657M29292/orig
p1902
sg11
V\u043d \u0442\u0432 + \u0441\u043f\u043e\u0440\u0442 \u0423\u043a\u0440\u0430\u0438\u043d\u0430
p1903
sg13
Vhttp://tv.yandex.ua/187/channels/134
p1904
sbag3
(g4
g5
Ntp1905
Rp1906
(dp1907
g9
Vhttp://avatars.yandex.net/get-tv-shows/1333707848439M17779/orig
p1908
sg11
V\u0434\u043e\u043c\u0430\u0448\u043d\u0438\u0435 \u0436\u0438\u0432\u043e\u0442\u043d\u044b\u0435 \u0423\u043a\u0440\u0430\u0438\u043d\u0430
p1909
sg13
Vhttp://tv.yandex.ua/187/channels/520
p1910
sbag3
(g4
g5
Ntp1911
Rp1912
(dp1913
g9
Vhttp://avatars.yandex.net/get-tv-channel-logos/1357917709899M67755/orig
p1914
sg11
Va one \u0420\u043e\u0441\u0441\u0438\u044f
p1915
sg13
Vhttp://tv.yandex.ua/213/channels/680
p1916
sbag3
(g4
g5
Ntp1917
Rp1918
(dp1919
g9
Vhttp://avatars.yandex.net/get-tv-shows/1333708793754M69706/orig
p1920
sg11
V\u0438\u043d\u0442\u0435\u0440\u0435\u0441\u043d\u043e\u0435 \u0423\u043a\u0440\u0430\u0438\u043d\u0430
p1921
sg13
Vhttp://tv.yandex.ua/187/channels/24
p1922
sbag3
(g4
g5
Ntp1923
Rp1924
(dp1925
g9
Vhttp://avatars.yandex.net/get-tv-shows/1333716734381M94839/orig
p1926
sg11
V\u043d \u0442\u0432 + \u0441\u043f\u043e\u0440\u0442 \u043e\u043d\u043b\u0430\u0439\u043d \u0423\u043a\u0440\u0430\u0438\u043d\u0430
p1927
sg13
Vhttp://tv.yandex.ua/187/channels/183
p1928
sbag3
(g4
g5
Ntp1929
Rp1930
(dp1931
g9
Vhttp://avatars.yandex.net/get-tv-shows/1333713043514M62310/orig
p1932
sg11
Vm tv rocks \u0420\u043e\u0441\u0441\u0438\u044f
p1933
sg13
Vhttp://tv.yandex.ua/2/channels/388
p1934
sbag3
(g4
g5
Ntp1935
Rp1936
(dp1937
g9
Vhttp://avatars.yandex.net/get-tv-shows/1333712715401M79935/orig
p1938
sg11
Vtlc \u0420\u043e\u0441\u0441\u0438\u044f
p1939
sg13
Vhttp://tv.yandex.ua/213/channels/425
p1940
sbag3
(g4
g5
Ntp1941
Rp1942
(dp1943
g9
Vhttp://avatars.yandex.net/get-tv-shows/1333709246196M1207/orig
p1944
sg11
Vbaby \u0423\u043a\u0440\u0430\u0438\u043d\u0430
p1945
sg13
Vhttp://tv.yandex.ua/187/channels/308
p1946
sbag3
(g4
g5
Ntp1947
Rp1948
(dp1949
g9
Vhttp://avatars.yandex.net/get-tv-shows/1333713621438M28015/orig
p1950
sg11
Vnickelodeon \u0420\u043e\u0441\u0441\u0438\u044f
p1951
sg13
Vhttp://tv.yandex.ua/2/channels/567
p1952
sbag3
(g4
g5
Ntp1953
Rp1954
(dp1955
g9
Vhttp://avatars.yandex.net/get-tv-shows/1333715355758M56368/orig
p1956
sg11
Vlu x e \u0420\u043e\u0441\u0441\u0438\u044f
p1957
sg13
Vhttp://tv.yandex.ua/213/channels/312
p1958
sbag3
(g4
g5
Ntp1959
Rp1960
(dp1961
g9
Vhttp://avatars.yandex.net/get-tv-channel-logos/1373971834060M62395/orig
p1962
sg11
V24 \u0442\u0435 x \u043d\u043e \u0420\u043e\u0441\u0441\u0438\u044f
p1963
sg13
Vhttp://tv.yandex.ua/213/channels/710
p1964
sbag3
(g4
g5
Ntp1965
Rp1966
(dp1967
g9
Vhttp://avatars.yandex.net/get-tv-shows/1333713389359M36074/orig
p1968
sg11
V\u043c\u0435\u0434\u0438\u0430 \u0420\u043e\u0441\u0441\u0438\u044f
p1969
sg13
Vhttp://tv.yandex.ua/2/channels/631
p1970
sbag3
(g4
g5
Ntp1971
Rp1972
(dp1973
g9
Vhttp://avatars.yandex.net/get-tv-channel-logos/1334667568769M76050/orig
p1974
sg11
V\u0442\u043e\u043d\u0438\u0441 \u0423\u043a\u0440\u0430\u0438\u043d\u0430
p1975
sg13
Vhttp://tv.yandex.ua/187/channels/627
p1976
sbag3
(g4
g5
Ntp1977
Rp1978
(dp1979
g9
Vhttp://avatars.yandex.net/get-tv-shows/1333715434657M29292/orig
p1980
sg11
V\u043d \u0442\u0432 + \u0441\u043f\u043e\u0440\u0442 \u0420\u043e\u0441\u0441\u0438\u044f
p1981
sg13
Vhttp://tv.yandex.ua/213/channels/134
p1982
sbag3
(g4
g5
Ntp1983
Rp1984
(dp1985
g9
Vhttp://avatars.yandex.net/get-tv-channel-logos/1358335592919M76257/orig
p1986
sg11
Vdiscovery world \u0423\u043a\u0440\u0430\u0438\u043d\u0430
p1987
sg13
Vhttp://tv.yandex.ua/187/channels/437
p1988
sbag3
(g4
g5
Ntp1989
Rp1990
(dp1991
g9
Vhttp://avatars.yandex.net/get-tv-shows/1333708053915M20046/orig
p1992
sg11
V\u043c\u043d\u043e\u0433\u043e \u0423\u043a\u0440\u0430\u0438\u043d\u0430
p1993
sg13
Vhttp://tv.yandex.ua/187/channels/799
p1994
sbag3
(g4
g5
Ntp1995
Rp1996
(dp1997
g9
Vhttp://avatars.yandex.net/get-tv-channel-logos/1358335592919M76257/orig
p1998
sg11
Vdiscovery world \u0420\u043e\u0441\u0441\u0438\u044f
p1999
sg13
Vhttp://tv.yandex.ua/213/channels/437
p2000
sbag3
(g4
g5
Ntp2001
Rp2002
(dp2003
g9
Vhttp://avatars.yandex.net/get-tv-shows/1333713176648M89316/orig
p2004
sg11
Vtv 1000 action \u0420\u043e\u0441\u0441\u0438\u044f
p2005
sg13
Vhttp://tv.yandex.ua/2/channels/125
p2006
sbag3
(g4
g5
Ntp2007
Rp2008
(dp2009
g9
Vhttp://avatars.yandex.net/get-tv-shows/1333713816053M8679/orig
p2010
sg11
Vfashion \u0420\u043e\u0441\u0441\u0438\u044f
p2011
sg13
Vhttp://tv.yandex.ua/213/channels/661
p2012
sbag3
(g4
g5
Ntp2013
Rp2014
(dp2015
g9
Vhttp://avatars.yandex.net/get-tv-shows/1333715635729M66606/orig
p2016
sg11
Vviasat e x plorer \u0420\u043e\u0441\u0441\u0438\u044f
p2017
sg13
Vhttp://tv.yandex.ua/213/channels/521
p2018
sbag3
(g4
g5
Ntp2019
Rp2020
(dp2021
g9
Vhttp://avatars.yandex.net/get-tv-shows/1333715841246M94104/orig
p2022
sg11
V\u043e x \u043e\u0442\u043d\u0438\u043a \u0438 \u0440\u044b\u0431\u043e\u043b\u043e\u0432 \u0423\u043a\u0440\u0430\u0438\u043d\u0430
p2023
sg13
Vhttp://tv.yandex.ua/187/channels/132
p2024
sbag3
(g4
g5
Ntp2025
Rp2026
(dp2027
g9
Vhttp://avatars.yandex.net/get-tv-channel-logos/1362054666903M85138/small
p2028
sg11
V\u0431\u043e\u0439\u0446\u043e\u0432\u0441\u043a\u0438\u0439 \u043a\u043b\u0443\u0431 \u0420\u043e\u0441\u0441\u0438\u044f
p2029
sg13
Vhttp://tv.yandex.ua/213/channels/986
p2030
sbag3
(g4
g5
Ntp2031
Rp2032
(dp2033
g9
Vhttp://avatars.yandex.net/get-tv-shows/1333713807307M19303/orig
p2034
sg11
Vmusicbo x \u0423\u043a\u0440\u0430\u0438\u043d\u0430
p2035
sg13
Vhttp://tv.yandex.ua/187/channels/642
p2036
sbag3
(g4
g5
Ntp2037
Rp2038
(dp2039
g9
Vhttp://avatars.yandex.net/get-tv-shows/1333713949080M46069/orig
p2040
sg11
V\u0442\u0432 i \u0423\u043a\u0440\u0430\u0438\u043d\u0430
p2041
sg13
Vhttp://tv.yandex.ua/187/channels/650
p2042
sbag3
(g4
g5
Ntp2043
Rp2044
(dp2045
g9
Vhttp://avatars.yandex.net/get-tv-shows/1333713457072M47395/orig
p2046
sg11
V\u0443\u043b\u044b\u0431\u043a\u0430 \u0440\u0435\u0431\u0435\u043d\u043a\u0430 \u0420\u043e\u0441\u0441\u0438\u044f
p2047
sg13
Vhttp://tv.yandex.ua/2/channels/789
p2048
sbag3
(g4
g5
Ntp2049
Rp2050
(dp2051
g9
Vhttp://avatars.yandex.net/get-tv-shows/1333716057211M42929/orig
p2052
sg11
V\u043a\u0438\u043d\u043e + \u0420\u043e\u0441\u0441\u0438\u044f
p2053
sg13
Vhttp://tv.yandex.ua/2/channels/644
p2054
sbag3
(g4
g5
Ntp2055
Rp2056
(dp2057
g9
Vhttp://avatars.yandex.net/get-tv-shows/1333715354479M98366/orig
p2058
sg11
Vinvestigation discovery \u0423\u043a\u0440\u0430\u0438\u043d\u0430
p2059
sg13
Vhttp://tv.yandex.ua/187/channels/19
p2060
sbag3
(g4
g5
Ntp2061
Rp2062
(dp2063
g9
Vhttp://avatars.yandex.net/get-tv-shows/1333712862861M8549/orig
p2064
sg11
V\u0442\u0435\u043b\u0435\u043a\u043b\u0443\u0431 \u0420\u043e\u0441\u0441\u0438\u044f
p2065
sg13
Vhttp://tv.yandex.ua/2/channels/163
p2066
sbag3
(g4
g5
Ntp2067
Rp2068
(dp2069
g9
Vhttp://avatars.yandex.net/get-tv-shows/1333715355758M56368/orig
p2070
sg11
Vlu x e \u0420\u043e\u0441\u0441\u0438\u044f
p2071
sg13
Vhttp://tv.yandex.ua/2/channels/312
p2072
sbag3
(g4
g5
Ntp2073
Rp2074
(dp2075
g9
Vhttp://avatars.yandex.net/get-tv-channel-logos/1336217768352M70407/orig
p2076
sg11
V\u043a\u043e\u043c\u0435\u0434\u0438\u044f \u0423\u043a\u0440\u0430\u0438\u043d\u0430
p2077
sg13
Vhttp://tv.yandex.ua/187/channels/821
p2078
sbag3
(g4
g5
Ntp2079
Rp2080
(dp2081
g9
Vhttp://avatars.yandex.net/get-tv-shows/1333715232874M54663/orig
p2082
sg11
V\u043d\u0430\u043d\u043e \u0420\u043e\u0441\u0441\u0438\u044f
p2083
sg13
Vhttp://tv.yandex.ua/213/channels/35
p2084
sbag3
(g4
g5
Ntp2085
Rp2086
(dp2087
g9
Vhttp://avatars.yandex.net/get-tv-shows/1333715973315M28208/orig
p2088
sg11
Vfo x life \u0420\u043e\u0441\u0441\u0438\u044f
p2089
sg13
Vhttp://tv.yandex.ua/213/channels/615
p2090
sbag3
(g4
g5
Ntp2091
Rp2092
(dp2093
g9
Vhttp://avatars.yandex.net/get-tv-channel-logos/1358335632205M86039/orig
p2094
sg11
Vdiscovery science \u0423\u043a\u0440\u0430\u0438\u043d\u0430
p2095
sg13
Vhttp://tv.yandex.ua/187/channels/409
p2096
sbag3
(g4
g5
Ntp2097
Rp2098
(dp2099
g9
Vhttp://avatars.yandex.net/get-tv-shows/1333715190027M56768/orig
p2100
sg11
V\u0441\u043f\u043e\u0440\u0442 1 \u0420\u043e\u0441\u0441\u0438\u044f
p2101
sg13
Vhttp://tv.yandex.ua/2/channels/554
p2102
sbag3
(g4
g5
Ntp2103
Rp2104
(dp2105
g9
Vhttp://avatars.yandex.net/get-tv-shows/1333712652761M79477/orig
p2106
sg11
V\u043a\u0438\u0435\u0432 \u0423\u043a\u0440\u0430\u0438\u043d\u0430
p2107
sg13
Vhttp://tv.yandex.ua/187/channels/634
p2108
sbag3
(g4
g5
Ntp2109
Rp2110
(dp2111
g9
Vhttp://avatars.yandex.net/get-tv-channel-logos/1363698632033M74975/orig
p2112
sg11
V\u0442\u043e\u043d\u0443\u0441 \u0420\u043e\u0441\u0441\u0438\u044f
p2113
sg13
Vhttp://tv.yandex.ua/213/channels/637
p2114
sbag3
(g4
g5
Ntp2115
Rp2116
(dp2117
g9
Vhttp://avatars.yandex.net/get-tv-shows/1333713729069M489/orig
p2118
sg11
V\u0440 \u0442\u0432 \u043b\u044e\u0431\u0438\u043c\u043e\u0435 \u043a\u0438\u043d\u043e \u0420\u043e\u0441\u0441\u0438\u044f
p2119
sg13
Vhttp://tv.yandex.ua/213/channels/477
p2120
sbag3
(g4
g5
Ntp2121
Rp2122
(dp2123
g9
Vhttp://avatars.yandex.net/get-tv-channel-logos/1367319404756M40527/orig
p2124
sg11
Vtravel + adventure \u0420\u043e\u0441\u0441\u0438\u044f
p2125
sg13
Vhttp://tv.yandex.ua/2/channels/996
p2126
sbag3
(g4
g5
Ntp2127
Rp2128
(dp2129
g9
Vhttp://avatars.yandex.net/get-tv-shows/1333715190027M56768/orig
p2130
sg11
V\u0441\u043f\u043e\u0440\u0442 1 \u0423\u043a\u0440\u0430\u0438\u043d\u0430
p2131
sg13
Vhttp://tv.yandex.ua/187/channels/554
p2132
sbag3
(g4
g5
Ntp2133
Rp2134
(dp2135
g9
Vhttp://avatars.yandex.net/get-tv-shows/1333715659064M35098/orig
p2136
sg11
V\u0442\u0435\u043b\u0435\u043f\u0443\u0442\u0435\u0448\u0435\u0441 \u0442\u0432 \u0438\u044f \u0420\u043e\u0441\u0441\u0438\u044f
p2137
sg13
Vhttp://tv.yandex.ua/2/channels/794
p2138
sbag3
(g4
g5
Ntp2139
Rp2140
(dp2141
g9
Vhttp://avatars.yandex.net/get-tv-shows/1333716035229M94207/orig
p2142
sg11
Vdiscovery \u0423\u043a\u0440\u0430\u0438\u043d\u0430
p2143
sg13
Vhttp://tv.yandex.ua/187/channels/325
p2144
sbag3
(g4
g5
Ntp2145
Rp2146
(dp2147
g9
Vhttp://avatars.yandex.net/get-tv-shows/1333713681468M47452/orig
p2148
sg11
V\u0432\u043e\u043f\u0440\u043e\u0441\u044b \u0438 \u043e \u0442\u0432 \u0435\u0442\u044b \u0420\u043e\u0441\u0441\u0438\u044f
p2149
sg13
Vhttp://tv.yandex.ua/213/channels/333
p2150
sbag3
(g4
g5
Ntp2151
Rp2152
(dp2153
g9
Vhttp://avatars.yandex.net/get-tv-channel-logos/1358325521945M33990/orig
p2154
sg11
V\u0431\u0435\u043b\u0430\u0440\u0443\u0441\u044c 24 \u0423\u043a\u0440\u0430\u0438\u043d\u0430
p2155
sg13
Vhttp://tv.yandex.ua/187/channels/851
p2156
sbag3
(g4
g5
Ntp2157
Rp2158
(dp2159
g9
Vhttp://avatars.yandex.net/get-tv-channel-logos/1344328736344M68981/orig
p2160
sg11
V\u043a\u0443 x \u043d\u044f \u0423\u043a\u0440\u0430\u0438\u043d\u0430
p2161
sg13
Vhttp://tv.yandex.ua/187/channels/614
p2162
sbag3
(g4
g5
Ntp2163
Rp2164
(dp2165
g9
Vhttp://avatars.yandex.net/get-tv-shows/1333716077131M91231/orig
p2166
sg11
V\u0434\u043e\u043d\u0431\u0430\u0441\u0441 \u0423\u043a\u0440\u0430\u0438\u043d\u0430
p2167
sg13
Vhttp://tv.yandex.ua/187/channels/641
p2168
sbag3
(g4
g5
Ntp2169
Rp2170
(dp2171
g9
Vhttp://avatars.yandex.net/get-tv-shows/1333708776782M67800/orig
p2172
sg11
V\u043f\u043e\u0434\u043c\u043e\u0441\u043a\u043e\u0432\u044c\u0435 \u0420\u043e\u0441\u0441\u0438\u044f
p2173
sg13
Vhttp://tv.yandex.ua/213/channels/161
p2174
sbag3
(g4
g5
Ntp2175
Rp2176
(dp2177
g9
Vhttp://avatars.yandex.net/get-tv-shows/1333715747653M72464/orig
p2178
sg11
Veuronews \u0420\u043e\u0441\u0441\u0438\u044f
p2179
sg13
Vhttp://tv.yandex.ua/2/channels/23
p2180
sbag3
(g4
g5
Ntp2181
Rp2182
(dp2183
g9
Vhttp://avatars.yandex.net/get-tv-channel-logos/1356612022097M50743/orig
p2184
sg11
V\u044d\u0433\u043e\u0438\u0441\u0442 \u0420\u043e\u0441\u0441\u0438\u044f
p2185
sg13
Vhttp://tv.yandex.ua/213/channels/431
p2186
sbag3
(g4
g5
Ntp2187
Rp2188
(dp2189
g9
Vhttp://avatars.yandex.net/get-tv-shows/1333716969502M68148/orig
p2190
sg11
Vmcm pop \u0420\u043e\u0441\u0441\u0438\u044f
p2191
sg13
Vhttp://tv.yandex.ua/2/channels/804
p2192
sbag3
(g4
g5
Ntp2193
Rp2194
(dp2195
g9
Vhttp://avatars.yandex.net/get-tv-shows/1333715529423M53477/orig
p2196
sg11
Vnational geographic \u0420\u043e\u0441\u0441\u0438\u044f
p2197
sg13
Vhttp://tv.yandex.ua/2/channels/102
p2198
sbag3
(g4
g5
Ntp2199
Rp2200
(dp2201
g9
Vhttp://avatars.yandex.net/get-tv-channel-logos/1367839508718M42390/orig
p2202
sg11
Vsony sci fi \u0420\u043e\u0441\u0441\u0438\u044f
p2203
sg13
Vhttp://tv.yandex.ua/2/channels/516
p2204
sbag3
(g4
g5
Ntp2205
Rp2206
(dp2207
g9
Vhttp://avatars.yandex.net/get-tv-shows/1333718306703M45438/orig
p2208
sg11
Vbbc entertainment \u0420\u043e\u0441\u0441\u0438\u044f
p2209
sg13
Vhttp://tv.yandex.ua/2/channels/278
p2210
sbag3
(g4
g5
Ntp2211
Rp2212
(dp2213
g9
Vhttp://avatars.yandex.net/get-tv-shows/1333715467716M44576/orig
p2214
sg11
V\u0441\u043f\u043e\u0440\u0442 1 \u0420\u043e\u0441\u0441\u0438\u044f
p2215
sg13
Vhttp://tv.yandex.ua/213/channels/181
p2216
sbag3
(g4
g5
Ntp2217
Rp2218
(dp2219
g9
Vhttp://avatars.yandex.net/get-tv-shows/1333713644247M50965/orig
p2220
sg11
V\u043c\u043e\u0441\u043a\u0432\u0430 24 \u0420\u043e\u0441\u0441\u0438\u044f
p2221
sg13
Vhttp://tv.yandex.ua/213/channels/334
p2222
sbag3
(g4
g5
Ntp2223
Rp2224
(dp2225
g9
Vhttp://avatars.yandex.net/get-tv-shows/1333716745405M72465/orig
p2226
sg11
Vrusong \u0420\u043e\u0441\u0441\u0438\u044f
p2227
sg13
Vhttp://tv.yandex.ua/2/channels/591
p2228
sbag3
(g4
g5
Ntp2229
Rp2230
(dp2231
g9
Vhttp://avatars.yandex.net/get-tv-channel-logos/1357917709899M67755/orig
p2232
sg11
Va one \u0423\u043a\u0440\u0430\u0438\u043d\u0430
p2233
sg13
Vhttp://tv.yandex.ua/187/channels/680
p2234
sbag3
(g4
g5
Ntp2235
Rp2236
(dp2237
g9
Vhttp://avatars.yandex.net/get-tv-channel-logos/1365080899756M41726/small
p2238
sg11
V\u0440\u0443\u0441\u0441\u043a\u0438\u0439 \u0431\u0435\u0441\u0442\u0441\u0435\u043b\u043b\u0435\u0440 \u0420\u043e\u0441\u0441\u0438\u044f
p2239
sg13
Vhttp://tv.yandex.ua/213/channels/994
p2240
sbag3
(g4
g5
Ntp2241
Rp2242
(dp2243
g9
Vhttp://avatars.yandex.net/get-tv-shows/1333715322381M67288/orig
p2244
sg11
Vtv 1000 \u0420\u043e\u0441\u0441\u0438\u044f
p2245
sg13
Vhttp://tv.yandex.ua/2/channels/127
p2246
sbag3
(g4
g5
Ntp2247
Rp2248
(dp2249
g9
Vhttp://avatars.yandex.net/get-tv-shows/1333715692247M50804/orig
p2250
sg11
V\u044e\u043c\u043e\u0440 bo x \u0420\u043e\u0441\u0441\u0438\u044f
p2251
sg13
Vhttp://tv.yandex.ua/2/channels/412
p2252
sbag3
(g4
g5
Ntp2253
Rp2254
(dp2255
g9
Vhttp://avatars.yandex.net/get-tv-shows/1333716825980M37994/orig
p2256
sg11
Vm tv hits \u0423\u043a\u0440\u0430\u0438\u043d\u0430
p2257
sg13
Vhttp://tv.yandex.ua/187/channels/849
p2258
sbag3
(g4
g5
Ntp2259
Rp2260
(dp2261
g9
Vhttp://avatars.yandex.net/get-tv-shows/1333712862430M29121/orig
p2262
sg11
V\u0434\u0440\u0430\u0439\u0432 \u0423\u043a\u0440\u0430\u0438\u043d\u0430
p2263
sg13
Vhttp://tv.yandex.ua/187/channels/505
p2264
sbag3
(g4
g5
Ntp2265
Rp2266
(dp2267
g9
Vhttp://avatars.yandex.net/get-tv-shows/1333716732901M35094/orig
p2268
sg11
V\u043e\u0442\u043a\u0440\u044b\u0442\u044b\u0439 \u043c\u0438\u0440 \u0423\u043a\u0440\u0430\u0438\u043d\u0430
p2269
sg13
Vhttp://tv.yandex.ua/187/channels/39
p2270
sbag3
(g4
g5
Ntp2271
Rp2272
(dp2273
g9
Vhttp://avatars.yandex.net/get-tv-shows/1333713989705M95921/orig
p2274
sg11
Veurosport 2 \u0420\u043e\u0441\u0441\u0438\u044f
p2275
sg13
Vhttp://tv.yandex.ua/2/channels/850
p2276
sbag3
(g4
g5
Ntp2277
Rp2278
(dp2279
g9
Vhttp://avatars.yandex.net/get-tv-shows/1333716766094M95286/orig
p2280
sg11
V\u0442\u0440\u043e \u0420\u043e\u0441\u0441\u0438\u044f
p2281
sg13
Vhttp://tv.yandex.ua/2/channels/730
p2282
sbag3
(g4
g5
Ntp2283
Rp2284
(dp2285
g9
Vhttp://avatars.yandex.net/get-tv-shows/1333713824656M29108/orig
p2286
sg11
Vajara \u0423\u043a\u0440\u0430\u0438\u043d\u0430
p2287
sg13
Vhttp://tv.yandex.ua/187/channels/756
p2288
sbag3
(g4
g5
Ntp2289
Rp2290
(dp2291
g9
Vhttp://avatars.yandex.net/get-tv-shows/1333716722923M49423/orig
p2292
sg11
Vtv 1000 \u0440\u0443\u0441\u0441\u043a\u043e\u0435 \u043a\u0438\u043d\u043e \u0420\u043e\u0441\u0441\u0438\u044f
p2293
sg13
Vhttp://tv.yandex.ua/213/channels/267
p2294
sbag3
(g4
g5
Ntp2295
Rp2296
(dp2297
g9
Vhttp://avatars.yandex.net/get-tv-shows/1333712713031M6232/orig
p2298
sg11
Vstyle \u0420\u043e\u0441\u0441\u0438\u044f
p2299
sg13
Vhttp://tv.yandex.ua/2/channels/119
p2300
sbag3
(g4
g5
Ntp2301
Rp2302
(dp2303
g9
Vhttp://avatars.yandex.net/get-tv-shows/1333708764683M58437/orig
p2304
sg11
V\u043d \u0442\u0432 + \u0444\u0443\u0442\u0431\u043e\u043b 2 \u0423\u043a\u0440\u0430\u0438\u043d\u0430
p2305
sg13
Vhttp://tv.yandex.ua/187/channels/563
p2306
sbag3
(g4
g5
Ntp2307
Rp2308
(dp2309
g9
Vhttp://avatars.yandex.net/get-tv-channel-logos/1357806445014M68284/orig
p2310
sg11
V\u0430\u0432\u0442\u043e + \u0420\u043e\u0441\u0441\u0438\u044f
p2311
sg13
Vhttp://tv.yandex.ua/213/channels/153
p2312
sbag3
(g4
g5
Ntp2313
Rp2314
(dp2315
g9
Vhttp://avatars.yandex.net/get-tv-shows/1333712775005M93791/orig
p2316
sg11
Vviasat sport \u0420\u043e\u0441\u0441\u0438\u044f
p2317
sg13
Vhttp://tv.yandex.ua/213/channels/455
p2318
sbag3
(g4
g5
Ntp2319
Rp2320
(dp2321
g9
Vhttp://avatars.yandex.net/get-tv-shows/1333715678054M1312/orig
p2322
sg11
V\u0437\u0434\u043e\u0440\u043e\u0432\u043e\u0435 \u0423\u043a\u0440\u0430\u0438\u043d\u0430
p2323
sg13
Vhttp://tv.yandex.ua/187/channels/595
p2324
sbag3
(g4
g5
Ntp2325
Rp2326
(dp2327
g9
Vhttp://avatars.yandex.net/get-tv-shows/1333716071391M27068/orig
p2328
sg11
V\u0431\u043e\u0435\u0446 \u0420\u043e\u0441\u0441\u0438\u044f
p2329
sg13
Vhttp://tv.yandex.ua/213/channels/454
p2330
sbag3
(g4
g5
Ntp2331
Rp2332
(dp2333
g9
Vhttp://avatars.yandex.net/get-tv-shows/1333715224166M18872/orig
p2334
sg11
V\u043d\u043e\u0432\u044b\u0439 \u0423\u043a\u0440\u0430\u0438\u043d\u0430
p2335
sg13
Vhttp://tv.yandex.ua/187/channels/128
p2336
sbag3
(g4
g5
Ntp2337
Rp2338
(dp2339
g9
Vhttp://avatars.yandex.net/get-tv-shows/1333717651949M12497/orig
p2340
sg11
V\u0444\u0443\u0442\u0431\u043e\u043b \u0420\u043e\u0441\u0441\u0438\u044f
p2341
sg13
Vhttp://tv.yandex.ua/2/channels/328
p2342
sbag3
(g4
g5
Ntp2343
Rp2344
(dp2345
g9
Vhttp://avatars.yandex.net/get-tv-shows/1333713040296M59201/orig
p2346
sg11
Vworld music \u0423\u043a\u0440\u0430\u0438\u043d\u0430
p2347
sg13
Vhttp://tv.yandex.ua/187/channels/91
p2348
sbag3
(g4
g5
Ntp2349
Rp2350
(dp2351
g9
Vhttp://avatars.yandex.net/get-tv-shows/1333713401739M87841/orig
p2352
sg11
Vtrace urban \u0420\u043e\u0441\u0441\u0438\u044f
p2353
sg13
Vhttp://tv.yandex.ua/2/channels/473
p2354
sbag3
(g4
g5
Ntp2355
Rp2356
(dp2357
g9
Vhttp://avatars.yandex.net/get-tv-shows/1333713983645M99328/orig
p2358
sg11
V\u0437\u043d\u0430\u043d\u0438\u0435 \u0420\u043e\u0441\u0441\u0438\u044f
p2359
sg13
Vhttp://tv.yandex.ua/2/channels/201
p2360
sbag3
(g4
g5
Ntp2361
Rp2362
(dp2363
g9
Vhttp://avatars.yandex.net/get-tv-channel-logos/1352298708156M61329/orig
p2364
sg11
V\u043c\u0430\u0442\u044c \u0438 \u0434\u0438\u0442\u044f \u0420\u043e\u0441\u0441\u0438\u044f
p2365
sg13
Vhttp://tv.yandex.ua/213/channels/618
p2366
sbag3
(g4
g5
Ntp2367
Rp2368
(dp2369
g9
Vhttp://avatars.yandex.net/get-tv-shows/1333716722923M49423/orig
p2370
sg11
Vtv 1000 \u0440\u0443\u0441\u0441\u043a\u043e\u0435 \u043a\u0438\u043d\u043e \u0420\u043e\u0441\u0441\u0438\u044f
p2371
sg13
Vhttp://tv.yandex.ua/2/channels/267
p2372
sbag3
(g4
g5
Ntp2373
Rp2374
(dp2375
g9
Vhttp://avatars.yandex.net/get-tv-shows/1333708154865M86208/orig
p2376
sg11
V\u0440\u0435\u0442\u0440\u043e \u0420\u043e\u0441\u0441\u0438\u044f
p2377
sg13
Vhttp://tv.yandex.ua/213/channels/6
p2378
sbag3
(g4
g5
Ntp2379
Rp2380
(dp2381
g9
Vhttp://avatars.yandex.net/get-tv-shows/1333716825980M37994/orig
p2382
sg11
Vm tv hits \u0420\u043e\u0441\u0441\u0438\u044f
p2383
sg13
Vhttp://tv.yandex.ua/2/channels/849
p2384
sbag3
(g4
g5
Ntp2385
Rp2386
(dp2387
g9
Vhttp://avatars.yandex.net/get-tv-shows/1333715354479M98366/orig
p2388
sg11
Vinvestigation discovery \u0420\u043e\u0441\u0441\u0438\u044f
p2389
sg13
Vhttp://tv.yandex.ua/213/channels/19
p2390
sbag3
(g4
g5
Ntp2391
Rp2392
(dp2393
g9
Vhttp://avatars.yandex.net/get-tv-shows/1333713481818M96462/orig
p2394
sg11
Vlu x e tv \u0423\u043a\u0440\u0430\u0438\u043d\u0430
p2395
sg13
Vhttp://tv.yandex.ua/187/channels/442
p2396
sbag3
(g4
g5
Ntp2397
Rp2398
(dp2399
g9
Vhttp://avatars.yandex.net/get-tv-shows/1333713681468M47452/orig
p2400
sg11
V\u0432\u043e\u043f\u0440\u043e\u0441\u044b \u0438 \u043e \u0442\u0432 \u0435\u0442\u044b \u0420\u043e\u0441\u0441\u0438\u044f
p2401
sg13
Vhttp://tv.yandex.ua/2/channels/333
p2402
sbag3
(g4
g5
Ntp2403
Rp2404
(dp2405
g9
Vhttp://avatars.yandex.net/get-tv-shows/1334158126325M33910/orig
p2406
sg11
V\u0440\u0430\u0437 \u0423\u043a\u0440\u0430\u0438\u043d\u0430
p2407
sg13
Vhttp://tv.yandex.ua/187/channels/363
p2408
sbag3
(g4
g5
Ntp2409
Rp2410
(dp2411
g9
Vhttp://avatars.yandex.net/get-tv-shows/1333713216376M58195/orig
p2412
sg11
V\u0441\u043f\u0430\u0441 \u0420\u043e\u0441\u0441\u0438\u044f
p2413
sg13
Vhttp://tv.yandex.ua/213/channels/447
p2414
sbag3
(g4
g5
Ntp2415
Rp2416
(dp2417
g9
Vhttp://avatars.yandex.net/get-tv-shows/1333715322381M67288/orig
p2418
sg11
Vtv 1000 \u0420\u043e\u0441\u0441\u0438\u044f
p2419
sg13
Vhttp://tv.yandex.ua/213/channels/127
p2420
sbag3
(g4
g5
Ntp2421
Rp2422
(dp2423
g9
Vhttp://avatars.yandex.net/get-tv-channel-logos/1346751438482M48687/orig
p2424
sg11
V8 \u0420\u043e\u0441\u0441\u0438\u044f
p2425
sg13
Vhttp://tv.yandex.ua/213/channels/217
p2426
sbag3
(g4
g5
Ntp2427
Rp2428
(dp2429
g9
Vhttp://avatars.yandex.net/get-tv-channel-logos/1349091347332M99473/orig
p2430
sg11
Vfo x \u0420\u043e\u0441\u0441\u0438\u044f
p2431
sg13
Vhttp://tv.yandex.ua/2/channels/659
p2432
sbag3
(g4
g5
Ntp2433
Rp2434
(dp2435
g9
Vhttp://avatars.yandex.net/get-tv-channel-logos/1357806445014M68284/orig
p2436
sg11
V\u0430\u0432\u0442\u043e + \u0420\u043e\u0441\u0441\u0438\u044f
p2437
sg13
Vhttp://tv.yandex.ua/2/channels/153
p2438
sbag3
(g4
g5
Ntp2439
Rp2440
(dp2441
g9
Vhttp://avatars.yandex.net/get-tv-shows/1333715246259M47961/orig
p2442
sg11
V\u0441\u043f\u043e\u0440\u0442 \u0441\u043e\u044e\u0437 \u0420\u043e\u0441\u0441\u0438\u044f
p2443
sg13
Vhttp://tv.yandex.ua/2/channels/306
p2444
sbag3
(g4
g5
Ntp2445
Rp2446
(dp2447
g9
Vhttp://avatars.yandex.net/get-tv-shows/1333708395005M37754/orig
p2448
sg11
V\u043f\u0435\u0440\u0432\u044b\u0439 \u043d\u0430\u0446\u0438\u043e\u043d\u0430\u043b\u044c\u043d\u044b\u0439 \u0443\u043a\u0440\u0430\u0438\u043d\u0430 \u0423\u043a\u0440\u0430\u0438\u043d\u0430
p2449
sg13
Vhttp://tv.yandex.ua/187/channels/773
p2450
sbag3
(g4
g5
Ntp2451
Rp2452
(dp2453
g9
Vhttp://avatars.yandex.net/get-tv-shows/1333718306703M45438/orig
p2454
sg11
Vbbc entertainment \u0420\u043e\u0441\u0441\u0438\u044f
p2455
sg13
Vhttp://tv.yandex.ua/213/channels/278
p2456
sbag3
(g4
g5
Ntp2457
Rp2458
(dp2459
g9
Vhttp://avatars.yandex.net/get-tv-shows/1333716766094M95286/orig
p2460
sg11
V\u0442\u0440\u043e \u0423\u043a\u0440\u0430\u0438\u043d\u0430
p2461
sg13
Vhttp://tv.yandex.ua/187/channels/730
p2462
sbag3
(g4
g5
Ntp2463
Rp2464
(dp2465
g9
Vhttp://avatars.yandex.net/get-tv-shows/1333715814729M63454/orig
p2466
sg11
Vzee \u0423\u043a\u0440\u0430\u0438\u043d\u0430
p2467
sg13
Vhttp://tv.yandex.ua/187/channels/626
p2468
sbag3
(g4
g5
Ntp2469
Rp2470
(dp2471
g9
Vhttp://avatars.yandex.net/get-tv-shows/1333713774748M13525/orig
p2472
sg11
Vbloomberg \u0420\u043e\u0441\u0441\u0438\u044f
p2473
sg13
Vhttp://tv.yandex.ua/2/channels/463
p2474
sbag3
(g4
g5
Ntp2475
Rp2476
(dp2477
g9
Vhttp://avatars.yandex.net/get-tv-shows/1333716745405M72465/orig
p2478
sg11
Vrusong \u0420\u043e\u0441\u0441\u0438\u044f
p2479
sg13
Vhttp://tv.yandex.ua/213/channels/591
p2480
sbag3
(g4
g5
Ntp2481
Rp2482
(dp2483
g9
Vhttp://avatars.yandex.net/get-tv-shows/1333715841246M94104/orig
p2484
sg11
V\u043e x \u043e\u0442\u043d\u0438\u043a \u0438 \u0440\u044b\u0431\u043e\u043b\u043e\u0432 \u0420\u043e\u0441\u0441\u0438\u044f
p2485
sg13
Vhttp://tv.yandex.ua/213/channels/132
p2486
sbag3
(g4
g5
Ntp2487
Rp2488
(dp2489
g9
Vhttp://avatars.yandex.net/get-tv-shows/1333713085591M64755/orig
p2490
sg11
Vocean \u0423\u043a\u0440\u0430\u0438\u043d\u0430
p2491
sg13
Vhttp://tv.yandex.ua/187/channels/55
p2492
sbag3
(g4
g5
Ntp2493
Rp2494
(dp2495
g9
Vhttp://avatars.yandex.net/get-tv-shows/1333713725548M83943/orig
p2496
sg11
V\u0440\u0436\u0434 \u0420\u043e\u0441\u0441\u0438\u044f
p2497
sg13
Vhttp://tv.yandex.ua/213/channels/509
p2498
sbag3
(g4
g5
Ntp2499
Rp2500
(dp2501
g9
Vhttp://avatars.yandex.net/get-tv-channel-logos/1357919415462M55430/orig
p2502
sg11
Vnick jr \u0420\u043e\u0441\u0441\u0438\u044f
p2503
sg13
Vhttp://tv.yandex.ua/213/channels/917
p2504
sbag3
(g4
g5
Ntp2505
Rp2506
(dp2507
g9
Vhttp://avatars.yandex.net/get-tv-shows/1333715265608M77219/orig
p2508
sg11
Vbbc world \u0423\u043a\u0440\u0430\u0438\u043d\u0430
p2509
sg13
Vhttp://tv.yandex.ua/187/channels/828
p2510
sbag3
(g4
g5
Ntp2511
Rp2512
(dp2513
g9
Vhttp://avatars.yandex.net/get-tv-channel-logos/1372153845103M40568/orig
p2514
sg11
V2 + 2 \u0423\u043a\u0440\u0430\u0438\u043d\u0430
p2515
sg13
Vhttp://tv.yandex.ua/187/channels/583
p2516
sbag3
(g4
g5
Ntp2517
Rp2518
(dp2519
g9
Vhttp://avatars.yandex.net/get-tv-shows/1333713621438M28015/orig
p2520
sg11
Vnickelodeon \u0420\u043e\u0441\u0441\u0438\u044f
p2521
sg13
Vhttp://tv.yandex.ua/213/channels/567
p2522
sbag3
(g4
g5
Ntp2523
Rp2524
(dp2525
g9
Vhttp://avatars.yandex.net/get-tv-shows/1333708154865M86208/orig
p2526
sg11
V\u0440\u0435\u0442\u0440\u043e \u0423\u043a\u0440\u0430\u0438\u043d\u0430
p2527
sg13
Vhttp://tv.yandex.ua/187/channels/6
p2528
sbag3
(g4
g5
Ntp2529
Rp2530
(dp2531
g9
Vhttp://avatars.yandex.net/get-tv-shows/1333713621438M28015/orig
p2532
sg11
Vnickelodeon \u0423\u043a\u0440\u0430\u0438\u043d\u0430
p2533
sg13
Vhttp://tv.yandex.ua/187/channels/567
p2534
sbag3
(g4
g5
Ntp2535
Rp2536
(dp2537
g9
Vhttp://avatars.yandex.net/get-tv-channel-logos/1357919285434M73777/orig
p2538
sg11
Vnhk world \u0420\u043e\u0441\u0441\u0438\u044f
p2539
sg13
Vhttp://tv.yandex.ua/213/channels/921
p2540
sbag3
(g4
g5
Ntp2541
Rp2542
(dp2543
g9
Vhttp://avatars.yandex.net/get-tv-shows/1333713251839M53909/orig
p2544
sg11
Vnat geo wild \u0423\u043a\u0440\u0430\u0438\u043d\u0430
p2545
sg13
Vhttp://tv.yandex.ua/187/channels/807
p2546
sbag3
(g4
g5
Ntp2547
Rp2548
(dp2549
g9
Vhttp://avatars.yandex.net/get-tv-shows/1333713460684M81763/orig
p2550
sg11
Vcartoon network \u0420\u043e\u0441\u0441\u0438\u044f
p2551
sg13
Vhttp://tv.yandex.ua/2/channels/601
p2552
sbag3
(g4
g5
Ntp2553
Rp2554
(dp2555
g9
Vhttp://avatars.yandex.net/get-tv-shows/1333715618467M47634/orig
p2556
sg11
V\u043a\u043e\u043c\u0435\u0434\u0438 \u0420\u043e\u0441\u0441\u0438\u044f
p2557
sg13
Vhttp://tv.yandex.ua/213/channels/51
p2558
sbag3
(g4
g5
Ntp2559
Rp2560
(dp2561
g9
Vhttp://avatars.yandex.net/get-tv-channel-logos/1334667133239M67794/orig
p2562
sg11
V\u0442\u0435\u0442 \u0423\u043a\u0440\u0430\u0438\u043d\u0430
p2563
sg13
Vhttp://tv.yandex.ua/187/channels/479
p2564
sbag3
(g4
g5
Ntp2565
Rp2566
(dp2567
g9
Vhttp://avatars.yandex.net/get-tv-shows/1333713578373M76326/orig
p2568
sg11
Vbridge \u0420\u043e\u0441\u0441\u0438\u044f
p2569
sg13
Vhttp://tv.yandex.ua/213/channels/151
p2570
sbag3
(g4
g5
Ntp2571
Rp2572
(dp2573
g9
Vhttp://avatars.yandex.net/get-tv-channel-logos/1376043882964M61429/orig
p2574
sg11
V\u0440\u043e\u0441\u0441\u0438\u044f 1 \u0420\u043e\u0441\u0441\u0438\u044f
p2575
sg13
Vhttp://tv.yandex.ua/213/channels/711
p2576
sbag3
(g4
g5
Ntp2577
Rp2578
(dp2579
g9
Vhttp://avatars.yandex.net/get-tv-shows/1333715529423M53477/orig
p2580
sg11
Vnational geographic \u0423\u043a\u0440\u0430\u0438\u043d\u0430
p2581
sg13
Vhttp://tv.yandex.ua/187/channels/102
p2582
sbag3
(g4
g5
Ntp2583
Rp2584
(dp2585
g9
Vhttp://avatars.yandex.net/get-tv-shows/1333715204463M59925/orig
p2586
sg11
Veurosport \u0420\u043e\u0441\u0441\u0438\u044f
p2587
sg13
Vhttp://tv.yandex.ua/2/channels/560
p2588
sbag3
(g4
g5
Ntp2589
Rp2590
(dp2591
g9
Vhttp://avatars.yandex.net/get-tv-shows/1333708247585M68464/orig
p2592
sg11
V\u043e\u0440\u0443\u0436\u0438\u0435 \u0420\u043e\u0441\u0441\u0438\u044f
p2593
sg13
Vhttp://tv.yandex.ua/2/channels/376
p2594
sbag3
(g4
g5
Ntp2595
Rp2596
(dp2597
g9
Vhttp://avatars.yandex.net/get-tv-channel-logos/1363698632033M74975/orig
p2598
sg11
V\u0442\u043e\u043d\u0443\u0441 \u0423\u043a\u0440\u0430\u0438\u043d\u0430
p2599
sg13
Vhttp://tv.yandex.ua/187/channels/637
p2600
sbag3
(g4
g5
Ntp2601
Rp2602
(dp2603
g9
Vhttp://avatars.yandex.net/get-tv-shows/1333709239764M13305/orig
p2604
sg11
Vlife \u0420\u043e\u0441\u0441\u0438\u044f
p2605
sg13
Vhttp://tv.yandex.ua/2/channels/415
p2606
sbag3
(g4
g5
Ntp2607
Rp2608
(dp2609
g9
Vhttp://avatars.yandex.net/get-tv-shows/1333716791539M48053/orig
p2610
sg11
Vtdk \u0420\u043e\u0441\u0441\u0438\u044f
p2611
sg13
Vhttp://tv.yandex.ua/213/channels/776
p2612
sbag3
(g4
g5
Ntp2613
Rp2614
(dp2615
g9
Vhttp://avatars.yandex.net/get-tv-channel-logos/1358325521945M33990/orig
p2616
sg11
V\u0431\u0435\u043b\u0430\u0440\u0443\u0441\u044c 24 \u0420\u043e\u0441\u0441\u0438\u044f
p2617
sg13
Vhttp://tv.yandex.ua/213/channels/851
p2618
sbag3
(g4
g5
Ntp2619
Rp2620
(dp2621
g9
Vhttp://avatars.yandex.net/get-tv-shows/1333715529423M53477/orig
p2622
sg11
Vnational geographic \u0420\u043e\u0441\u0441\u0438\u044f
p2623
sg13
Vhttp://tv.yandex.ua/213/channels/102
p2624
sbag3
(g4
g5
Ntp2625
Rp2626
(dp2627
g9
Vhttp://avatars.yandex.net/get-tv-shows/1333715678250M70241/orig
p2628
sg11
Vmotors \u0423\u043a\u0440\u0430\u0438\u043d\u0430
p2629
sg13
Vhttp://tv.yandex.ua/187/channels/531
p2630
sbag3
(g4
g5
Ntp2631
Rp2632
(dp2633
g9
Vhttp://avatars.yandex.net/get-tv-channel-logos/1356771171081M25756/orig
p2634
sg11
V\u0434\u0435\u0442\u0441\u043a\u0438\u0439 \u043c\u0438\u0440 \u0420\u043e\u0441\u0441\u0438\u044f
p2635
sg13
Vhttp://tv.yandex.ua/213/channels/747
p2636
sbag3
(g4
g5
Ntp2637
Rp2638
(dp2639
g9
Vhttp://avatars.yandex.net/get-tv-shows/1333713201452M27295/orig
p2640
sg11
V\u043a1 \u0423\u043a\u0440\u0430\u0438\u043d\u0430
p2641
sg13
Vhttp://tv.yandex.ua/187/channels/453
p2642
sbag3
(g4
g5
Ntp2643
Rp2644
(dp2645
g9
Vhttp://avatars.yandex.net/get-tv-shows/1333715666639M78532/orig
p2646
sg11
Vfashion \u0423\u043a\u0440\u0430\u0438\u043d\u0430
p2647
sg13
Vhttp://tv.yandex.ua/187/channels/121
p2648
sbag3
(g4
g5
Ntp2649
Rp2650
(dp2651
g9
Vhttp://avatars.yandex.net/get-tv-shows/1333708043568M30613/orig
p2652
sg11
V\u043d \u0442\u0432 + \u0442\u0435\u043d\u043d\u0438\u0441 \u0423\u043a\u0440\u0430\u0438\u043d\u0430
p2653
sg13
Vhttp://tv.yandex.ua/187/channels/358
p2654
sbag3
(g4
g5
Ntp2655
Rp2656
(dp2657
g9
Vhttp://avatars.yandex.net/get-tv-shows/1333715189760M70159/orig
p2658
sg11
V\u0441\u043e\u044e\u0437 \u0420\u043e\u0441\u0441\u0438\u044f
p2659
sg13
Vhttp://tv.yandex.ua/213/channels/349
p2660
sbag3
(g4
g5
Ntp2661
Rp2662
(dp2663
g9
Vhttp://avatars.yandex.net/get-tv-shows/1333713729069M489/orig
p2664
sg11
V\u0440 \u0442\u0432 \u043b\u044e\u0431\u0438\u043c\u043e\u0435 \u043a\u0438\u043d\u043e \u0423\u043a\u0440\u0430\u0438\u043d\u0430
p2665
sg13
Vhttp://tv.yandex.ua/187/channels/477
p2666
sbag3
(g4
g5
Ntp2667
Rp2668
(dp2669
g9
Vhttp://avatars.yandex.net/get-tv-shows/1333713010310M30552/orig
p2670
sg11
V\u0430\u0433\u0440\u043e \u0423\u043a\u0440\u0430\u0438\u043d\u0430
p2671
sg13
Vhttp://tv.yandex.ua/187/channels/11
p2672
sbag3
(g4
g5
Ntp2673
Rp2674
(dp2675
g9
Vhttp://avatars.yandex.net/get-tv-shows/1333713975231M23496/orig
p2676
sg11
Vx x i \u0420\u043e\u0441\u0441\u0438\u044f
p2677
sg13
Vhttp://tv.yandex.ua/213/channels/309
p2678
sbag3
(g4
g5
Ntp2679
Rp2680
(dp2681
g9
Vhttp://avatars.yandex.net/get-tv-channel-logos/1357908652792M87979/orig
p2682
sg11
V\u0438\u043d\u0432\u0430 \u043c\u0435\u0434\u0438\u0430 \u0420\u043e\u0441\u0441\u0438\u044f
p2683
sg13
Vhttp://tv.yandex.ua/213/channels/916
p2684
sbag3
(g4
g5
Ntp2685
Rp2686
(dp2687
g9
Vhttp://avatars.yandex.net/get-tv-shows/1333712622127M71944/orig
p2688
sg11
Vmgm \u0423\u043a\u0440\u0430\u0438\u043d\u0430
p2689
sg13
Vhttp://tv.yandex.ua/187/channels/608
p2690
sbag3
(g4
g5
Ntp2691
Rp2692
(dp2693
g9
Vhttp://avatars.yandex.net/get-tv-channel-logos/1335163736667M48278/orig
p2694
sg11
V\u043d \u0442\u0432 \u0420\u043e\u0441\u0441\u0438\u044f
p2695
sg13
Vhttp://tv.yandex.ua/213/channels/162
p2696
sbag3
(g4
g5
Ntp2697
Rp2698
(dp2699
g9
Vhttp://avatars.yandex.net/get-tv-channel-logos/1357918127889M80429/orig
p2700
sg11
Vdiscovery \u0432\u043e\u0441\u0442\u043e\u0447\u043d\u0430\u044f \u0435\u0432\u0440\u043e\u043f\u0430 \u0420\u043e\u0441\u0441\u0438\u044f
p2701
sg13
Vhttp://tv.yandex.ua/213/channels/928
p2702
sbag3
(g4
g5
Ntp2703
Rp2704
(dp2705
g9
Vhttp://avatars.yandex.net/get-tv-shows/1333716835613M81770/orig
p2706
sg11
Venter \u0444\u0438\u043b\u044c\u043c \u0423\u043a\u0440\u0430\u0438\u043d\u0430
p2707
sg13
Vhttp://tv.yandex.ua/187/channels/281
p2708
sbag3
(g4
g5
Ntp2709
Rp2710
(dp2711
g9
Vhttp://avatars.yandex.net/get-tv-shows/1333712775005M93791/orig
p2712
sg11
Vviasat sport \u0420\u043e\u0441\u0441\u0438\u044f
p2713
sg13
Vhttp://tv.yandex.ua/2/channels/455
p2714
sbag3
(g4
g5
Ntp2715
Rp2716
(dp2717
g9
Vhttp://avatars.yandex.net/get-tv-shows/1333715379935M43316/orig
p2718
sg11
V\u043a\u0438\u043d\u043e\u043b\u044e\u043a\u0441 \u0420\u043e\u0441\u0441\u0438\u044f
p2719
sg13
Vhttp://tv.yandex.ua/213/channels/8
p2720
sbag3
(g4
g5
Ntp2721
Rp2722
(dp2723
g9
Vhttp://avatars.yandex.net/get-tv-shows/1334158126325M33910/orig
p2724
sg11
V\u0440\u0430\u0437 \u0420\u043e\u0441\u0441\u0438\u044f
p2725
sg13
Vhttp://tv.yandex.ua/213/channels/363
p2726
sbag3
(g4
g5
Ntp2727
Rp2728
(dp2729
g9
Vhttp://avatars.yandex.net/get-tv-shows/1333713840422M72865/orig
p2730
sg11
Vmezzo \u0423\u043a\u0440\u0430\u0438\u043d\u0430
p2731
sg13
Vhttp://tv.yandex.ua/187/channels/575
p2732
sbag3
(g4
g5
Ntp2733
Rp2734
(dp2735
g9
Vhttp://avatars.yandex.net/get-tv-shows/1333713751068M18827/orig
p2736
sg11
Vcnbc \u0420\u043e\u0441\u0441\u0438\u044f
p2737
sg13
Vhttp://tv.yandex.ua/213/channels/831
p2738
sbag3
(g4
g5
Ntp2739
Rp2740
(dp2741
g9
Vhttp://avatars.yandex.net/get-tv-shows/1333716969502M68148/orig
p2742
sg11
Vmcm pop \u0423\u043a\u0440\u0430\u0438\u043d\u0430
p2743
sg13
Vhttp://tv.yandex.ua/187/channels/804
p2744
sbag3
(g4
g5
Ntp2745
Rp2746
(dp2747
g9
Vhttp://avatars.yandex.net/get-tv-shows/1333712861918M74194/orig
p2748
sg11
V\u0440\u0430\u0434\u043e\u0441\u0442\u044c \u043c\u043e\u044f \u0420\u043e\u0441\u0441\u0438\u044f
p2749
sg13
Vhttp://tv.yandex.ua/2/channels/638
p2750
sbag3
(g4
g5
Ntp2751
Rp2752
(dp2753
g9
Vhttp://avatars.yandex.net/get-tv-shows/1333715265608M77219/orig
p2754
sg11
Vbbc world \u0420\u043e\u0441\u0441\u0438\u044f
p2755
sg13
Vhttp://tv.yandex.ua/2/channels/828
p2756
sbag3
(g4
g5
Ntp2757
Rp2758
(dp2759
g9
Vhttp://avatars.yandex.net/get-tv-channel-logos/1364374254767M13856/orig
p2760
sg11
V\u043d\u0430\u0443\u043a\u0430 2 0 \u0423\u043a\u0440\u0430\u0438\u043d\u0430
p2761
sg13
Vhttp://tv.yandex.ua/187/channels/723
p2762
sbag3
(g4
g5
Ntp2763
Rp2764
(dp2765
g9
Vhttp://avatars.yandex.net/get-tv-shows/1333713186198M12220/orig
p2766
sg11
V5 \u0423\u043a\u0440\u0430\u0438\u043d\u0430
p2767
sg13
Vhttp://tv.yandex.ua/187/channels/586
p2768
sbag3
(g4
g5
Ntp2769
Rp2770
(dp2771
g9
Vhttp://avatars.yandex.net/get-tv-shows/1333713175752M17275/orig
p2772
sg11
V365 \u0420\u043e\u0441\u0441\u0438\u044f
p2773
sg13
Vhttp://tv.yandex.ua/2/channels/250
p2774
sbag3
(g4
g5
Ntp2775
Rp2776
(dp2777
g9
Vhttp://avatars.yandex.net/get-tv-channel-logos/1356772574955M48259/orig
p2778
sg11
V\u0435\u0434\u0430 \u0420\u043e\u0441\u0441\u0438\u044f
p2779
sg13
Vhttp://tv.yandex.ua/2/channels/930
p2780
sbag3
(g4
g5
Ntp2781
Rp2782
(dp2783
g9
Vhttp://avatars.yandex.net/get-tv-shows/1333709127662M17128/orig
p2784
sg11
V\u043d\u043e\u0441\u0442\u0430\u043b\u044c\u0433\u0438\u044f \u0420\u043e\u0441\u0441\u0438\u044f
p2785
sg13
Vhttp://tv.yandex.ua/2/channels/783
p2786
sbag3
(g4
g5
Ntp2787
Rp2788
(dp2789
g9
Vhttp://avatars.yandex.net/get-tv-shows/1333708316300M57639/orig
p2790
sg11
V\u043a\u0438\u043d\u043e\u043a\u043b\u0443\u0431 \u0420\u043e\u0441\u0441\u0438\u044f
p2791
sg13
Vhttp://tv.yandex.ua/213/channels/462
p2792
sbag3
(g4
g5
Ntp2793
Rp2794
(dp2795
g9
Vhttp://avatars.yandex.net/get-tv-shows/1333713578162M89138/orig
p2796
sg11
V\u043d \u0442\u0432 + \u0431\u0430\u0441\u043a\u0435\u0442\u0431\u043e\u043b \u0420\u043e\u0441\u0441\u0438\u044f
p2797
sg13
Vhttp://tv.yandex.ua/213/channels/697
p2798
sbag3
(g4
g5
Ntp2799
Rp2800
(dp2801
g9
Vhttp://avatars.yandex.net/get-tv-shows/1333716803563M50186/orig
p2802
sg11
V\u043a x \u043b \u0420\u043e\u0441\u0441\u0438\u044f
p2803
sg13
Vhttp://tv.yandex.ua/2/channels/481
p2804
sbag3
(g4
g5
Ntp2805
Rp2806
(dp2807
g9
Vhttp://avatars.yandex.net/get-tv-shows/1333715233719M49792/orig
p2808
sg11
Vbiz tv \u0420\u043e\u0441\u0441\u0438\u044f
p2809
sg13
Vhttp://tv.yandex.ua/213/channels/797
p2810
sbag3
(g4
g5
Ntp2811
Rp2812
(dp2813
g9
Vhttp://avatars.yandex.net/get-tv-shows/1333713807307M19303/orig
p2814
sg11
Vmusicbo x \u0420\u043e\u0441\u0441\u0438\u044f
p2815
sg13
Vhttp://tv.yandex.ua/213/channels/642
p2816
sbag3
(g4
g5
Ntp2817
Rp2818
(dp2819
g9
Vhttp://avatars.yandex.net/get-tv-shows/1333713481818M96462/orig
p2820
sg11
Vlu x e tv \u0420\u043e\u0441\u0441\u0438\u044f
p2821
sg13
Vhttp://tv.yandex.ua/2/channels/442
p2822
sbag3
(g4
g5
Ntp2823
Rp2824
(dp2825
g9
Vhttp://avatars.yandex.net/get-tv-channel-logos/1348587696219M11284/orig
p2826
sg11
V\u0435\u0432\u0440\u043e\u043a\u0438\u043d\u043e \u0423\u043a\u0440\u0430\u0438\u043d\u0430
p2827
sg13
Vhttp://tv.yandex.ua/187/channels/352
p2828
sbag3
(g4
g5
Ntp2829
Rp2830
(dp2831
g9
Vhttp://avatars.yandex.net/get-tv-channel-logos/1356612144844M65707/orig
p2832
sg11
V\u043f\u0438\u043a\u0441\u0435\u043b\u044c \u0423\u043a\u0440\u0430\u0438\u043d\u0430
p2833
sg13
Vhttp://tv.yandex.ua/187/channels/940
p2834
sbag3
(g4
g5
Ntp2835
Rp2836
(dp2837
g9
Vhttp://avatars.yandex.net/get-tv-channel-logos/1356612022097M50743/orig
p2838
sg11
V\u044d\u0433\u043e\u0438\u0441\u0442 \u0423\u043a\u0440\u0430\u0438\u043d\u0430
p2839
sg13
Vhttp://tv.yandex.ua/187/channels/431
p2840
sbag3
(g4
g5
Ntp2841
Rp2842
(dp2843
g9
Vhttp://avatars.yandex.net/get-tv-shows/1333713433570M85481/orig
p2844
sg11
Vnat geo wild \u0420\u043e\u0441\u0441\u0438\u044f
p2845
sg13
Vhttp://tv.yandex.ua/2/channels/223
p2846
sbag3
(g4
g5
Ntp2847
Rp2848
(dp2849
g9
Vhttp://avatars.yandex.net/get-tv-shows/1333708104672M58814/orig
p2850
sg11
V\u043e2 \u0442\u0432 \u0420\u043e\u0441\u0441\u0438\u044f
p2851
sg13
Vhttp://tv.yandex.ua/213/channels/777
p2852
sbag3
(g4
g5
Ntp2853
Rp2854
(dp2855
g9
Vhttp://avatars.yandex.net/get-tv-shows/1333715246259M47961/orig
p2856
sg11
V\u0441\u043f\u043e\u0440\u0442 \u0441\u043e\u044e\u0437 \u0420\u043e\u0441\u0441\u0438\u044f
p2857
sg13
Vhttp://tv.yandex.ua/213/channels/306
p2858
sbag3
(g4
g5
Ntp2859
Rp2860
(dp2861
g9
Vhttp://avatars.yandex.net/get-tv-shows/1333709420684M86785/orig
p2862
sg11
Vm tv european \u0420\u043e\u0441\u0441\u0438\u044f
p2863
sg13
Vhttp://tv.yandex.ua/2/channels/270
p2864
sbag3
(g4
g5
Ntp2865
Rp2866
(dp2867
g9
Vhttp://avatars.yandex.net/get-tv-channel-logos/1376043754084M51542/orig
p2868
sg11
V\u0440\u043e\u0441\u0441\u0438\u044f 24 \u0420\u043e\u0441\u0441\u0438\u044f
p2869
sg13
Vhttp://tv.yandex.ua/213/channels/291
p2870
sbag3
(g4
g5
Ntp2871
Rp2872
(dp2873
g9
Vhttp://avatars.yandex.net/get-tv-shows/1333713925399M49999/orig
p2874
sg11
V\u0441\u043f\u043e\u0440\u0442 \u0423\u043a\u0440\u0430\u0438\u043d\u0430
p2875
sg13
Vhttp://tv.yandex.ua/187/channels/429
p2876
sbag3
(g4
g5
Ntp2877
Rp2878
(dp2879
g9
Vhttp://avatars.yandex.net/get-tv-shows/1333713682028M49283/orig
p2880
sg11
Vmcm top \u0423\u043a\u0440\u0430\u0438\u043d\u0430
p2881
sg13
Vhttp://tv.yandex.ua/187/channels/533
p2882
sbag3
(g4
g5
Ntp2883
Rp2884
(dp2885
g9
Vhttp://avatars.yandex.net/get-tv-channel-logos/1358335592919M76257/orig
p2886
sg11
Vdiscovery world \u0420\u043e\u0441\u0441\u0438\u044f
p2887
sg13
Vhttp://tv.yandex.ua/2/channels/437
p2888
sbag3
(g4
g5
Ntp2889
Rp2890
(dp2891
g9
Vhttp://avatars.yandex.net/get-tv-shows/1333715776098M80324/orig
p2892
sg11
V\u043c1 \u0423\u043a\u0440\u0430\u0438\u043d\u0430
p2893
sg13
Vhttp://tv.yandex.ua/187/channels/632
p2894
sbag3
(g4
g5
Ntp2895
Rp2896
(dp2897
g9
Vhttp://avatars.yandex.net/get-tv-shows/1333712756259M40685/orig
p2898
sg11
V\u0441\u043e\u0432\u0435\u0440\u0448\u0435\u043d\u043d\u043e \u0441\u0435\u043a\u0440\u0435\u0442\u043d\u043e \u0423\u043a\u0440\u0430\u0438\u043d\u0430
p2899
sg13
Vhttp://tv.yandex.ua/187/channels/275
p2900
sbag3
(g4
g5
Ntp2901
Rp2902
(dp2903
g9
Vhttp://avatars.yandex.net/get-tv-shows/1333713476494M63548/orig
p2904
sg11
V\u0432\u043a\u0442 \u0420\u043e\u0441\u0441\u0438\u044f
p2905
sg13
Vhttp://tv.yandex.ua/213/channels/421
p2906
sbag3
(g4
g5
Ntp2907
Rp2908
(dp2909
g9
Vhttp://avatars.yandex.net/get-tv-shows/1333713093430M11517/orig
p2910
sg11
V\u043a\u0438\u043d\u043e x \u0438\u0442 \u0420\u043e\u0441\u0441\u0438\u044f
p2911
sg13
Vhttp://tv.yandex.ua/2/channels/542
p2912
sbag3
(g4
g5
Ntp2913
Rp2914
(dp2915
g9
Vhttp://avatars.yandex.net/get-tv-shows/1333708797928M94347/orig
p2916
sg11
Vm tv dance \u0420\u043e\u0441\u0441\u0438\u044f
p2917
sg13
Vhttp://tv.yandex.ua/213/channels/332
p2918
sbag3
(g4
g5
Ntp2919
Rp2920
(dp2921
g9
Vhttp://avatars.yandex.net/get-tv-shows/1333713868645M58659/orig
p2922
sg11
Vcnn \u0420\u043e\u0441\u0441\u0438\u044f
p2923
sg13
Vhttp://tv.yandex.ua/2/channels/495
p2924
sbag3
(g4
g5
Ntp2925
Rp2926
(dp2927
g9
Vhttp://avatars.yandex.net/get-tv-shows/1333707995986M34877/orig
p2928
sg11
V\u0438\u043d\u0434\u0438\u044f \u0420\u043e\u0441\u0441\u0438\u044f
p2929
sg13
Vhttp://tv.yandex.ua/213/channels/798
p2930
sbag3
(g4
g5
Ntp2931
Rp2932
(dp2933
g9
Vhttp://avatars.yandex.net/get-tv-shows/1333712655464M52829/orig
p2934
sg11
Vvh1 classic \u0420\u043e\u0441\u0441\u0438\u044f
p2935
sg13
Vhttp://tv.yandex.ua/2/channels/156
p2936
sbag3
(g4
g5
Ntp2937
Rp2938
(dp2939
g9
Vhttp://avatars.yandex.net/get-tv-shows/1333716819878M97368/orig
p2940
sg11
V\u0437\u0430\u0433\u043e\u0440\u043e\u0434\u043d\u044b\u0439 \u0420\u043e\u0441\u0441\u0438\u044f
p2941
sg13
Vhttp://tv.yandex.ua/213/channels/705
p2942
sbag3
(g4
g5
Ntp2943
Rp2944
(dp2945
g9
Vhttp://avatars.yandex.net/get-tv-shows/1333713708028M30550/orig
p2946
sg11
Vtv 5 \u0420\u043e\u0441\u0441\u0438\u044f
p2947
sg13
Vhttp://tv.yandex.ua/213/channels/589
p2948
sbag3
(g4
g5
Ntp2949
Rp2950
(dp2951
g9
Vhttp://avatars.yandex.net/get-tv-channel-logos/1376043255845M78983/orig
p2952
sg11
V\u0446\u0435\u043d\u0442\u0440 \u0420\u043e\u0441\u0441\u0438\u044f
p2953
sg13
Vhttp://tv.yandex.ua/213/channels/649
p2954
sbag3
(g4
g5
Ntp2955
Rp2956
(dp2957
g9
Vhttp://avatars.yandex.net/get-tv-shows/1333715641594M53127/orig
p2958
sg11
Vo \u0423\u043a\u0440\u0430\u0438\u043d\u0430
p2959
sg13
Vhttp://tv.yandex.ua/187/channels/167
p2960
sbag3
(g4
g5
Ntp2961
Rp2962
(dp2963
g9
Vhttp://avatars.yandex.net/get-tv-shows/1333713401739M87841/orig
p2964
sg11
Vtrace urban \u0420\u043e\u0441\u0441\u0438\u044f
p2965
sg13
Vhttp://tv.yandex.ua/213/channels/473
p2966
sbag3
(g4
g5
Ntp2967
Rp2968
(dp2969
g9
Vhttp://avatars.yandex.net/get-tv-channel-logos/1375100533306M30018/orig
p2970
sg11
Vdeutsche welle \u0423\u043a\u0440\u0430\u0438\u043d\u0430
p2971
sg13
Vhttp://tv.yandex.ua/187/channels/355
p2972
sbag3
(g4
g5
Ntp2973
Rp2974
(dp2975
g9
Vhttp://avatars.yandex.net/get-tv-shows/1333716913379M87044/orig
p2976
sg11
V\u0432\u0441\u0435\u0433\u0434\u0430 \u0441 \u0442\u043e\u0431\u043e\u0439 \u0420\u043e\u0441\u0441\u0438\u044f
p2977
sg13
Vhttp://tv.yandex.ua/213/channels/604
p2978
sbag3
(g4
g5
Ntp2979
Rp2980
(dp2981
g9
Vhttp://avatars.yandex.net/get-tv-shows/1333713578162M89138/orig
p2982
sg11
V\u043d \u0442\u0432 + \u0431\u0430\u0441\u043a\u0435\u0442\u0431\u043e\u043b \u0423\u043a\u0440\u0430\u0438\u043d\u0430
p2983
sg13
Vhttp://tv.yandex.ua/187/channels/697
p2984
sbag3
(g4
g5
Ntp2985
Rp2986
(dp2987
g9
Vhttp://avatars.yandex.net/get-tv-shows/1333716035229M94207/orig
p2988
sg11
Vdiscovery \u0420\u043e\u0441\u0441\u0438\u044f
p2989
sg13
Vhttp://tv.yandex.ua/2/channels/325
p2990
sbag3
(g4
g5
Ntp2991
Rp2992
(dp2993
g9
Vhttp://avatars.yandex.net/get-tv-shows/1333713175752M17275/orig
p2994
sg11
V365 \u0420\u043e\u0441\u0441\u0438\u044f
p2995
sg13
Vhttp://tv.yandex.ua/213/channels/250
p2996
sbag3
(g4
g5
Ntp2997
Rp2998
(dp2999
g9
Vhttp://avatars.yandex.net/get-tv-shows/1333715997298M69767/orig
p3000
sg11
V\u043a\u0442\u043e \u0435\u0441\u0442\u044c \u043a\u0442\u043e \u0420\u043e\u0441\u0441\u0438\u044f
p3001
sg13
Vhttp://tv.yandex.ua/213/channels/769
p3002
sbag3
(g4
g5
Ntp3003
Rp3004
(dp3005
g9
Vhttp://avatars.yandex.net/get-tv-shows/1333715589076M84567/orig
p3006
sg11
Vgulli \u0420\u043e\u0441\u0441\u0438\u044f
p3007
sg13
Vhttp://tv.yandex.ua/213/channels/810
p3008
sbag3
(g4
g5
Ntp3009
Rp3010
(dp3011
g9
Vhttp://avatars.yandex.net/get-tv-channel-logos/1352288866335M72721/orig
p3012
sg11
V\u0441\u043f\u043e\u0440\u0442 \u0420\u043e\u0441\u0441\u0438\u044f
p3013
sg13
Vhttp://tv.yandex.ua/2/channels/154
p3014
sbag3
(g4
g5
Ntp3015
Rp3016
(dp3017
g9
Vhttp://avatars.yandex.net/get-tv-shows/1333713694458M58917/orig
p3018
sg11
Vm tv music \u0423\u043a\u0440\u0430\u0438\u043d\u0430
p3019
sg13
Vhttp://tv.yandex.ua/187/channels/430
p3020
sbag3
(g4
g5
Ntp3021
Rp3022
(dp3023
g9
Vhttp://avatars.yandex.net/get-tv-shows/1333713528423M49234/orig
p3024
sg11
Vuniversal \u0420\u043e\u0441\u0441\u0438\u044f
p3025
sg13
Vhttp://tv.yandex.ua/213/channels/213
p3026
sbag3
(g4
g5
Ntp3027
Rp3028
(dp3029
g9
Vhttp://avatars.yandex.net/get-tv-shows/1333712756259M40685/orig
p3030
sg11
V\u0441\u043e\u0432\u0435\u0440\u0448\u0435\u043d\u043d\u043e \u0441\u0435\u043a\u0440\u0435\u0442\u043d\u043e \u0420\u043e\u0441\u0441\u0438\u044f
p3031
sg13
Vhttp://tv.yandex.ua/2/channels/275
p3032
sbag3
(g4
g5
Ntp3033
Rp3034
(dp3035
g9
Vhttp://avatars.yandex.net/get-tv-channel-logos/1376043644426M13305/orig
p3036
sg11
V\u0440\u0435\u043d \u0423\u043a\u0440\u0430\u0438\u043d\u0430
p3037
sg13
Vhttp://tv.yandex.ua/187/channels/689
p3038
sbag3
(g4
g5
Ntp3039
Rp3040
(dp3041
g9
Vhttp://avatars.yandex.net/get-tv-shows/1333712655586M1831/orig
p3042
sg11
Vpro business \u0420\u043e\u0441\u0441\u0438\u044f
p3043
sg13
Vhttp://tv.yandex.ua/2/channels/214
p3044
sbag3
(g4
g5
Ntp3045
Rp3046
(dp3047
g9
Vhttp://avatars.yandex.net/get-tv-shows/1333707549264M49253/orig
p3048
sg11
Vworld fashion \u0423\u043a\u0440\u0430\u0438\u043d\u0430
p3049
sg13
Vhttp://tv.yandex.ua/187/channels/346
p3050
sbag3
(g4
g5
Ntp3051
Rp3052
(dp3053
g9
Vhttp://avatars.yandex.net/get-tv-shows/1333712655586M1831/orig
p3054
sg11
Vpro business \u0420\u043e\u0441\u0441\u0438\u044f
p3055
sg13
Vhttp://tv.yandex.ua/213/channels/214
p3056
sbag3
(g4
g5
Ntp3057
Rp3058
(dp3059
g9
Vhttp://avatars.yandex.net/get-tv-shows/1333716791539M48053/orig
p3060
sg11
Vtdk \u0423\u043a\u0440\u0430\u0438\u043d\u0430
p3061
sg13
Vhttp://tv.yandex.ua/187/channels/776
p3062
sbag3
(g4
g5
Ntp3063
Rp3064
(dp3065
g9
Vhttp://avatars.yandex.net/get-tv-shows/1333708540363M22180/orig
p3066
sg11
Vm tv live \u0420\u043e\u0441\u0441\u0438\u044f
p3067
sg13
Vhttp://tv.yandex.ua/213/channels/382
p3068
sbag3
(g4
g5
Ntp3069
Rp3070
(dp3071
g9
Vhttp://avatars.yandex.net/get-tv-shows/1333715630513M36394/orig
p3072
sg11
V\u043d \u0442\u0432 + \u0444\u0443\u0442\u0431\u043e\u043b \u0420\u043e\u0441\u0441\u0438\u044f
p3073
sg13
Vhttp://tv.yandex.ua/213/channels/664
p3074
sbag3
(g4
g5
Ntp3075
Rp3076
(dp3077
g9
Vhttp://avatars.yandex.net/get-tv-shows/1333713528423M49234/orig
p3078
sg11
Vuniversal \u0420\u043e\u0441\u0441\u0438\u044f
p3079
sg13
Vhttp://tv.yandex.ua/2/channels/213
p3080
sbag3
(g4
g5
Ntp3081
Rp3082
(dp3083
g9
Vhttp://avatars.yandex.net/get-tv-shows/1333715993038M13981/orig
p3084
sg11
V\u043c\u0443\u0437\u044b\u043a\u0430 \u043f\u0435\u0440\u0432\u043e\u0433\u043e \u0423\u043a\u0440\u0430\u0438\u043d\u0430
p3085
sg13
Vhttp://tv.yandex.ua/187/channels/715
p3086
sbag3
(g4
g5
Ntp3087
Rp3088
(dp3089
g9
Vhttp://avatars.yandex.net/get-tv-shows/1333708147128M24922/orig
p3090
sg11
V\u043a\u0438\u043d\u043e\u043c\u0430\u043d\u0438\u044f \u0420\u043e\u0441\u0441\u0438\u044f
p3091
sg13
Vhttp://tv.yandex.ua/213/channels/646
p3092
sbag3
(g4
g5
Ntp3093
Rp3094
(dp3095
g9
Vhttp://avatars.yandex.net/get-tv-shows/1333707984831M90146/orig
p3096
sg11
V\u043c\u0438\u0440 \u0441\u0435\u0440\u0438\u0430\u043b\u0430 \u0423\u043a\u0440\u0430\u0438\u043d\u0430
p3097
sg13
Vhttp://tv.yandex.ua/187/channels/145
p3098
sbag3
(g4
g5
Ntp3099
Rp3100
(dp3101
g9
Vhttp://avatars.yandex.net/get-tv-shows/1333715626042M2466/orig
p3102
sg11
Vnickelodeon \u0420\u043e\u0441\u0441\u0438\u044f
p3103
sg13
Vhttp://tv.yandex.ua/213/channels/423
p3104
sbag3
(g4
g5
Ntp3105
Rp3106
(dp3107
g9
Vhttp://avatars.yandex.net/get-tv-shows/1333713043514M62310/orig
p3108
sg11
Vm tv rocks \u0423\u043a\u0440\u0430\u0438\u043d\u0430
p3109
sg13
Vhttp://tv.yandex.ua/187/channels/388
p3110
sbag3
(g4
g5
Ntp3111
Rp3112
(dp3113
g9
Vhttp://avatars.yandex.net/get-tv-channel-logos/1369922630950M25883/orig
p3114
sg11
Vencyclo \u0420\u043e\u0441\u0441\u0438\u044f
p3115
sg13
Vhttp://tv.yandex.ua/2/channels/989
p3116
sbag3
(g4
g5
Ntp3117
Rp3118
(dp3119
g9
Vhttp://avatars.yandex.net/get-tv-shows/1333715993038M13981/orig
p3120
sg11
V\u043c\u0443\u0437\u044b\u043a\u0430 \u043f\u0435\u0440\u0432\u043e\u0433\u043e \u0420\u043e\u0441\u0441\u0438\u044f
p3121
sg13
Vhttp://tv.yandex.ua/2/channels/715
p3122
sbag3
(g4
g5
Ntp3123
Rp3124
(dp3125
g9
Vhttp://avatars.yandex.net/get-tv-shows/1333707554614M47050/orig
p3126
sg11
V\u0437\u043e\u043e \u0420\u043e\u0441\u0441\u0438\u044f
p3127
sg13
Vhttp://tv.yandex.ua/213/channels/273
p3128
sbag3
(g4
g5
Ntp3129
Rp3130
(dp3131
g9
Vhttp://avatars.yandex.net/get-tv-channel-logos/1376043396510M88835/orig
p3132
sg11
V\u043d\u0435\u0432\u0441\u043a\u0438\u0439 \u0434\u043e\u043c\u0430\u0448\u043d\u0438\u0439 \u0420\u043e\u0441\u0441\u0438\u044f
p3133
sg13
Vhttp://tv.yandex.ua/2/channels/222
p3134
sbag3
(g4
g5
Ntp3135
Rp3136
(dp3137
g9
Vhttp://avatars.yandex.net/get-tv-shows/1333715659064M35098/orig
p3138
sg11
V\u0442\u0435\u043b\u0435\u043f\u0443\u0442\u0435\u0448\u0435\u0441 \u0442\u0432 \u0438\u044f \u0423\u043a\u0440\u0430\u0438\u043d\u0430
p3139
sg13
Vhttp://tv.yandex.ua/187/channels/794
p3140
sbag3
(g4
g5
Ntp3141
Rp3142
(dp3143
g9
Vhttp://avatars.yandex.net/get-tv-shows/1333713010310M30552/orig
p3144
sg11
V\u0430\u0433\u0440\u043e \u0420\u043e\u0441\u0441\u0438\u044f
p3145
sg13
Vhttp://tv.yandex.ua/2/channels/11
p3146
sbag3
(g4
g5
Ntp3147
Rp3148
(dp3149
g9
Vhttp://avatars.yandex.net/get-tv-shows/1333715410270M23339/orig
p3150
sg11
Vviasat history \u0420\u043e\u0441\u0441\u0438\u044f
p3151
sg13
Vhttp://tv.yandex.ua/213/channels/277
p3152
sbag3
(g4
g5
Ntp3153
Rp3154
(dp3155
g9
Vhttp://avatars.yandex.net/get-tv-shows/1333713925399M49999/orig
p3156
sg11
V\u0441\u043f\u043e\u0440\u0442 \u0420\u043e\u0441\u0441\u0438\u044f
p3157
sg13
Vhttp://tv.yandex.ua/213/channels/429
p3158
sbag3
(g4
g5
Ntp3159
Rp3160
(dp3161
g9
Vhttp://avatars.yandex.net/get-tv-shows/1333713708028M30550/orig
p3162
sg11
Vtv 5 \u0420\u043e\u0441\u0441\u0438\u044f
p3163
sg13
Vhttp://tv.yandex.ua/2/channels/589
p3164
sbag3
(g4
g5
Ntp3165
Rp3166
(dp3167
g9
Vhttp://avatars.yandex.net/get-tv-shows/1333713010310M30552/orig
p3168
sg11
V\u0430\u0433\u0440\u043e \u0420\u043e\u0441\u0441\u0438\u044f
p3169
sg13
Vhttp://tv.yandex.ua/213/channels/11
p3170
sbag3
(g4
g5
Ntp3171
Rp3172
(dp3173
g9
Vhttp://avatars.yandex.net/get-tv-shows/1333709246196M1207/orig
p3174
sg11
Vbaby \u0420\u043e\u0441\u0441\u0438\u044f
p3175
sg13
Vhttp://tv.yandex.ua/2/channels/308
p3176
sbag3
(g4
g5
Ntp3177
Rp3178
(dp3179
g9
Vhttp://avatars.yandex.net/get-tv-channel-logos/1368788546205M17763/orig
p3180
sg11
V\u0440\u0431\u043a \u0420\u043e\u0441\u0441\u0438\u044f
p3181
sg13
Vhttp://tv.yandex.ua/2/channels/743
p3182
sbag3
(g4
g5
Ntp3183
Rp3184
(dp3185
g9
Vhttp://avatars.yandex.net/get-tv-shows/1333715691315M43621/orig
p3186
sg11
V\u0438\u043b\u043b\u044e\u0437\u0438\u043e\u043d + \u0420\u043e\u0441\u0441\u0438\u044f
p3187
sg13
Vhttp://tv.yandex.ua/213/channels/123
p3188
sbag3
(g4
g5
Ntp3189
Rp3190
(dp3191
g9
Vhttp://avatars.yandex.net/get-tv-shows/1333713698572M2584/orig
p3192
sg11
Vmezzo live \u0423\u043a\u0440\u0430\u0438\u043d\u0430
p3193
sg13
Vhttp://tv.yandex.ua/187/channels/801
p3194
sbag3
(g4
g5
Ntp3195
Rp3196
(dp3197
g9
Vhttp://avatars.yandex.net/get-tv-shows/1333707984831M90146/orig
p3198
sg11
V\u043c\u0438\u0440 \u0441\u0435\u0440\u0438\u0430\u043b\u0430 \u0420\u043e\u0441\u0441\u0438\u044f
p3199
sg13
Vhttp://tv.yandex.ua/2/channels/145
p3200
sbag3
(g4
g5
Ntp3201
Rp3202
(dp3203
g9
Vhttp://avatars.yandex.net/get-tv-shows/1333716891806M18999/orig
p3204
sg11
V\u043a\u0438\u043d\u043e\u043f\u043e\u043a\u0430\u0437 \u0420\u043e\u0441\u0441\u0438\u044f
p3205
sg13
Vhttp://tv.yandex.ua/213/channels/22
p3206
sbag3
(g4
g5
Ntp3207
Rp3208
(dp3209
g9
Vhttp://avatars.yandex.net/get-tv-shows/1333717714948M87568/orig
p3210
sg11
V\u0442\u0438\u043d \u0423\u043a\u0440\u0430\u0438\u043d\u0430
p3211
sg13
Vhttp://tv.yandex.ua/187/channels/716
p3212
sbag3
(g4
g5
Ntp3213
Rp3214
(dp3215
g9
Vhttp://avatars.yandex.net/get-tv-shows/1333713680513M60480/orig
p3216
sg11
V\u043d \u0442\u0432 + \u0441\u043f\u043e\u0440\u0442 + \u0420\u043e\u0441\u0441\u0438\u044f
p3217
sg13
Vhttp://tv.yandex.ua/213/channels/377
p3218
sbag3
(g4
g5
Ntp3219
Rp3220
(dp3221
g9
Vhttp://avatars.yandex.net/get-tv-shows/1333708797928M94347/orig
p3222
sg11
Vm tv dance \u0420\u043e\u0441\u0441\u0438\u044f
p3223
sg13
Vhttp://tv.yandex.ua/2/channels/332
p3224
sbag3
(g4
g5
Ntp3225
Rp3226
(dp3227
g9
Vhttp://avatars.yandex.net/get-tv-shows/1333716913379M87044/orig
p3228
sg11
V\u0432\u0441\u0435\u0433\u0434\u0430 \u0441 \u0442\u043e\u0431\u043e\u0439 \u0423\u043a\u0440\u0430\u0438\u043d\u0430
p3229
sg13
Vhttp://tv.yandex.ua/187/channels/604
p3230
sbag3
(g4
g5
Ntp3231
Rp3232
(dp3233
g9
Vhttp://avatars.yandex.net/get-tv-shows/1333713578373M76326/orig
p3234
sg11
Vbridge \u0423\u043a\u0440\u0430\u0438\u043d\u0430
p3235
sg13
Vhttp://tv.yandex.ua/187/channels/151
p3236
sbag3
(g4
g5
Ntp3237
Rp3238
(dp3239
g9
Vhttp://avatars.yandex.net/get-tv-shows/1333715600209M27625/orig
p3240
sg11
V\u043a\u0438\u043d\u043e\u043f\u043e\u043a\u0430\u0437 2 \u0420\u043e\u0441\u0441\u0438\u044f
p3241
sg13
Vhttp://tv.yandex.ua/213/channels/741
p3242
sbag3
(g4
g5
Ntp3243
Rp3244
(dp3245
g9
Vhttp://avatars.yandex.net/get-tv-channel-logos/1372082533949M94531/orig
p3246
sg11
Vtv 1000 premium \u0420\u043e\u0441\u0441\u0438\u044f
p3247
sg13
Vhttp://tv.yandex.ua/2/channels/1013
p3248
sbag3
(g4
g5
Ntp3249
Rp3250
(dp3251
g9
Vhttp://avatars.yandex.net/get-tv-channel-logos/1362478351587M95662/orig
p3252
sg11
V\u043f\u0435\u0440\u0432\u044b\u0439 \u0420\u043e\u0441\u0441\u0438\u044f
p3253
sg13
Vhttp://tv.yandex.ua/213/channels/983
p3254
sbag3
(g4
g5
Ntp3255
Rp3256
(dp3257
g9
Vhttp://avatars.yandex.net/get-tv-channel-logos/1369922630950M25883/orig
p3258
sg11
Vencyclo \u0420\u043e\u0441\u0441\u0438\u044f
p3259
sg13
Vhttp://tv.yandex.ua/213/channels/989
p3260
sbag3
(g4
g5
Ntp3261
Rp3262
(dp3263
g9
Vhttp://avatars.yandex.net/get-tv-channel-logos/1363334808588M99509/orig
p3264
sg11
V\u0441\u0442\u0441 \u043f\u0435\u0442\u0435\u0440\u0431\u0443\u0440\u0433 \u0420\u043e\u0441\u0441\u0438\u044f
p3265
sg13
Vhttp://tv.yandex.ua/2/channels/654
p3266
sbag3
(g4
g5
Ntp3267
Rp3268
(dp3269
g9
Vhttp://avatars.yandex.net/get-tv-channel-logos/1356596026566M65418/orig
p3270
sg11
V\u043c\u0438\u0440 \u0420\u043e\u0441\u0441\u0438\u044f
p3271
sg13
Vhttp://tv.yandex.ua/213/channels/726
p3272
sbag3
(g4
g5
Ntp3273
Rp3274
(dp3275
g9
Vhttp://avatars.yandex.net/get-tv-shows/1333715632130M79158/orig
p3276
sg11
V\u0442\u043d\u0432 \u0423\u043a\u0440\u0430\u0438\u043d\u0430
p3277
sg13
Vhttp://tv.yandex.ua/187/channels/180
p3278
sbag3
(g4
g5
Ntp3279
Rp3280
(dp3281
g9
Vhttp://avatars.yandex.net/get-tv-channel-logos/1348587696219M11284/orig
p3282
sg11
V\u0435\u0432\u0440\u043e\u043a\u0438\u043d\u043e \u0420\u043e\u0441\u0441\u0438\u044f
p3283
sg13
Vhttp://tv.yandex.ua/213/channels/352
p3284
sbag3
(g4
g5
Ntp3285
Rp3286
(dp3287
g9
Vhttp://avatars.yandex.net/get-tv-shows/1333715673198M2663/orig
p3288
sg11
V\u043f\u0435\u0440\u0432\u044b\u0439 \u043c\u0435\u0442\u0435\u043e \u0420\u043e\u0441\u0441\u0438\u044f
p3289
sg13
Vhttp://tv.yandex.ua/213/channels/59
p3290
sbag3
(g4
g5
Ntp3291
Rp3292
(dp3293
g9
Vhttp://avatars.yandex.net/get-tv-shows/1333715322381M67288/orig
p3294
sg11
Vtv 1000 \u0423\u043a\u0440\u0430\u0438\u043d\u0430
p3295
sg13
Vhttp://tv.yandex.ua/187/channels/127
p3296
sbag3
(g4
g5
Ntp3297
Rp3298
(dp3299
g9
Vhttp://avatars.yandex.net/get-tv-channel-logos/1364301043753M88131/orig
p3300
sg11
Vrussian travel guide \u0420\u043e\u0441\u0441\u0438\u044f
p3301
sg13
Vhttp://tv.yandex.ua/213/channels/648
p3302
sbag3
(g4
g5
Ntp3303
Rp3304
(dp3305
g9
Vhttp://avatars.yandex.net/get-tv-channel-logos/1344328736344M68981/orig
p3306
sg11
V\u043a\u0443 x \u043d\u044f \u0420\u043e\u0441\u0441\u0438\u044f
p3307
sg13
Vhttp://tv.yandex.ua/213/channels/614
p3308
sbag3
(g4
g5
Ntp3309
Rp3310
(dp3311
g9
Vhttp://avatars.yandex.net/get-tv-shows/1333708911984M73554/orig
p3312
sg11
Vamazing life \u0420\u043e\u0441\u0441\u0438\u044f
p3313
sg13
Vhttp://tv.yandex.ua/2/channels/658
p3314
sbag3
(g4
g5
Ntp3315
Rp3316
(dp3317
g9
Vhttp://avatars.yandex.net/get-tv-shows/1333715748744M67529/orig
p3318
sg11
Vdiva universal \u0420\u043e\u0441\u0441\u0438\u044f
p3319
sg13
Vhttp://tv.yandex.ua/213/channels/713
p3320
sbag3
(g4
g5
Ntp3321
Rp3322
(dp3323
g9
Vhttp://avatars.yandex.net/get-tv-channel-logos/1352298708156M61329/orig
p3324
sg11
V\u043c\u0430\u0442\u044c \u0438 \u0434\u0438\u0442\u044f \u0420\u043e\u0441\u0441\u0438\u044f
p3325
sg13
Vhttp://tv.yandex.ua/2/channels/618
p3326
sbag3
(g4
g5
Ntp3327
Rp3328
(dp3329
g9
Vhttp://avatars.yandex.net/get-tv-shows/1333713251839M53909/orig
p3330
sg11
Vnat geo wild \u0420\u043e\u0441\u0441\u0438\u044f
p3331
sg13
Vhttp://tv.yandex.ua/213/channels/807
p3332
sbag3
(g4
g5
Ntp3333
Rp3334
(dp3335
g9
Vhttp://avatars.yandex.net/get-tv-shows/1333713764780M72648/orig
p3336
sg11
V\u043c\u043e\u044f \u043f\u043b\u0430\u043d\u0435\u0442\u0430 \u0420\u043e\u0441\u0441\u0438\u044f
p3337
sg13
Vhttp://tv.yandex.ua/213/channels/675
p3338
sbag3
(g4
g5
Ntp3339
Rp3340
(dp3341
g9
Vhttp://avatars.yandex.net/get-tv-shows/1333709116007M94471/orig
p3342
sg11
V\u0440\u0443\u0441\u0441\u043a\u0438\u0439 \u044d\u043a\u0441\u0442\u0440\u0438\u043c \u0420\u043e\u0441\u0441\u0438\u044f
p3343
sg13
Vhttp://tv.yandex.ua/2/channels/406
p3344
sbag3
(g4
g5
Ntp3345
Rp3346
(dp3347
g9
Vhttp://avatars.yandex.net/get-tv-shows/1333713538946M7262/orig
p3348
sg11
Vvh1 european \u0420\u043e\u0441\u0441\u0438\u044f
p3349
sg13
Vhttp://tv.yandex.ua/213/channels/491
p3350
sbag3
(g4
g5
Ntp3351
Rp3352
(dp3353
g9
Vhttp://avatars.yandex.net/get-tv-channel-logos/1364280081653M61461/orig
p3354
sg11
V5 \u0420\u043e\u0441\u0441\u0438\u044f
p3355
sg13
Vhttp://tv.yandex.ua/2/channels/504
p3356
sbag3
(g4
g5
Ntp3357
Rp3358
(dp3359
g9
Vhttp://avatars.yandex.net/get-tv-channel-logos/1356612022097M50743/orig
p3360
sg11
V\u044d\u0433\u043e\u0438\u0441\u0442 \u0420\u043e\u0441\u0441\u0438\u044f
p3361
sg13
Vhttp://tv.yandex.ua/2/channels/431
p3362
sbag3
(g4
g5
Ntp3363
Rp3364
(dp3365
g9
Vhttp://avatars.yandex.net/get-tv-shows/1333713418795M13518/orig
p3366
sg11
V\u0443\u0441\u0430\u0434\u044c\u0431\u0430 \u0423\u043a\u0440\u0430\u0438\u043d\u0430
p3367
sg13
Vhttp://tv.yandex.ua/187/channels/779
p3368
sbag3
(g4
g5
Ntp3369
Rp3370
(dp3371
g9
Vhttp://avatars.yandex.net/get-tv-channel-logos/1372082501132M90264/orig
p3372
sg11
Vtv 1000 megahit \u0420\u043e\u0441\u0441\u0438\u044f
p3373
sg13
Vhttp://tv.yandex.ua/213/channels/1012
p3374
sbag3
(g4
g5
Ntp3375
Rp3376
(dp3377
g9
Vhttp://avatars.yandex.net/get-tv-channel-logos/1335452077321M11620/orig
p3378
sg11
V\u0437\u0432\u0435\u0437\u0434\u0430 \u0420\u043e\u0441\u0441\u0438\u044f
p3379
sg13
Vhttp://tv.yandex.ua/2/channels/405
p3380
sbag3
(g4
g5
Ntp3381
Rp3382
(dp3383
g9
Vhttp://avatars.yandex.net/get-tv-shows/1333712760038M4940/orig
p3384
sg11
V\u0438\u043d\u0442\u0435\u0440 \u0423\u043a\u0440\u0430\u0438\u043d\u0430
p3385
sg13
Vhttp://tv.yandex.ua/187/channels/677
p3386
sbag3
(g4
g5
Ntp3387
Rp3388
(dp3389
g9
Vhttp://avatars.yandex.net/get-tv-channel-logos/1368713267762M92996/orig
p3390
sg11
V\u043a\u043e\u043c\u0441\u043e\u043c\u043e\u043b\u044c\u0441\u043a\u0430\u044f \u043f\u0440\u0430\u0432\u0434\u0430 \u0420\u043e\u0441\u0441\u0438\u044f
p3391
sg13
Vhttp://tv.yandex.ua/213/channels/852
p3392
sbag3
(g4
g5
Ntp3393
Rp3394
(dp3395
g9
Vhttp://avatars.yandex.net/get-tv-channel-logos/1373971834060M62395/orig
p3396
sg11
V24 \u0442\u0435 x \u043d\u043e \u0420\u043e\u0441\u0441\u0438\u044f
p3397
sg13
Vhttp://tv.yandex.ua/2/channels/710
p3398
sbag3
(g4
g5
Ntp3399
Rp3400
(dp3401
g9
Vhttp://avatars.yandex.net/get-tv-channel-logos/1369922395689M39230/orig
p3402
sg11
V\u043a\u0438\u043d\u043e 2 \u0420\u043e\u0441\u0441\u0438\u044f
p3403
sg13
Vhttp://tv.yandex.ua/2/channels/988
p3404
sbag3
(g4
g5
Ntp3405
Rp3406
(dp3407
g9
Vhttp://avatars.yandex.net/get-tv-shows/1333715600209M27625/orig
p3408
sg11
V\u043a\u0438\u043d\u043e\u043f\u043e\u043a\u0430\u0437 2 \u0423\u043a\u0440\u0430\u0438\u043d\u0430
p3409
sg13
Vhttp://tv.yandex.ua/187/channels/741
p3410
sbag3
(g4
g5
Ntp3411
Rp3412
(dp3413
g9
Vhttp://avatars.yandex.net/get-tv-shows/1333716022003M36980/orig
p3414
sg11
V\u0442\u0435\u043b\u0435\u043f\u0443\u0442\u0435\u0448\u0435\u0441 \u0442\u0432 \u0438\u044f \u0420\u043e\u0441\u0441\u0438\u044f
p3415
sg13
Vhttp://tv.yandex.ua/2/channels/331
p3416
sbag3
(g4
g5
Ntp3417
Rp3418
(dp3419
g9
Vhttp://avatars.yandex.net/get-tv-shows/1333715603725M3088/orig
p3420
sg11
Veuropa plus \u0420\u043e\u0441\u0441\u0438\u044f
p3421
sg13
Vhttp://tv.yandex.ua/2/channels/681
p3422
sbag3
(g4
g5
Ntp3423
Rp3424
(dp3425
g9
Vhttp://avatars.yandex.net/get-tv-shows/1333713835801M19218/orig
p3426
sg11
V\u0444\u0435\u043d\u0438\u043a\u0441 + \u043a\u0438\u043d\u043e \u0423\u043a\u0440\u0430\u0438\u043d\u0430
p3427
sg13
Vhttp://tv.yandex.ua/187/channels/686
p3428
sbag3
(g4
g5
Ntp3429
Rp3430
(dp3431
g9
Vhttp://avatars.yandex.net/get-tv-shows/1333713846214M68965/orig
p3432
sg11
Vfine living network \u0420\u043e\u0441\u0441\u0438\u044f
p3433
sg13
Vhttp://tv.yandex.ua/2/channels/393
p3434
sbag3
(g4
g5
Ntp3435
Rp3436
(dp3437
g9
Vhttp://avatars.yandex.net/get-tv-shows/1333712713031M6232/orig
p3438
sg11
Vstyle \u0420\u043e\u0441\u0441\u0438\u044f
p3439
sg13
Vhttp://tv.yandex.ua/213/channels/119
p3440
sbag3
(g4
g5
Ntp3441
Rp3442
(dp3443
g9
Vhttp://avatars.yandex.net/get-tv-shows/1333715634924M39412/orig
p3444
sg11
V\u043a\u0443\u043b\u044c\u0442\u0443\u0440\u0430 \u0420\u043e\u0441\u0441\u0438\u044f
p3445
sg13
Vhttp://tv.yandex.ua/213/channels/187
p3446
sbag3
(g4
g5
Ntp3447
Rp3448
(dp3449
g9
Vhttp://avatars.yandex.net/get-tv-channel-logos/1376043396510M88835/orig
p3450
sg11
V\u0434\u043e\u043c\u0430\u0448\u043d\u0438\u0439 \u0420\u043e\u0441\u0441\u0438\u044f
p3451
sg13
Vhttp://tv.yandex.ua/213/channels/304
p3452
sbag3
(g4
g5
Ntp3453
Rp3454
(dp3455
g9
Vhttp://avatars.yandex.net/get-tv-shows/1333715806060M27456/orig
p3456
sg11
V1 + 1 \u0423\u043a\u0440\u0430\u0438\u043d\u0430
p3457
sg13
Vhttp://tv.yandex.ua/187/channels/620
p3458
sbag3
(g4
g5
Ntp3459
Rp3460
(dp3461
g9
Vhttp://avatars.yandex.net/get-tv-shows/1333716106733M58501/orig
p3462
sg11
Vda vinci \u0420\u043e\u0441\u0441\u0438\u044f
p3463
sg13
Vhttp://tv.yandex.ua/213/channels/410
p3464
sbag3
(g4
g5
Ntp3465
Rp3466
(dp3467
g9
Vhttp://avatars.yandex.net/get-tv-shows/1333716071391M27068/orig
p3468
sg11
V\u0431\u043e\u0435\u0446 \u0423\u043a\u0440\u0430\u0438\u043d\u0430
p3469
sg13
Vhttp://tv.yandex.ua/187/channels/454
p3470
sbag3
(g4
g5
Ntp3471
Rp3472
(dp3473
g9
Vhttp://avatars.yandex.net/get-tv-shows/1333713835801M19218/orig
p3474
sg11
V\u0444\u0435\u043d\u0438\u043a\u0441 + \u043a\u0438\u043d\u043e \u0420\u043e\u0441\u0441\u0438\u044f
p3475
sg13
Vhttp://tv.yandex.ua/2/channels/686
p3476
sbag3
(g4
g5
Ntp3477
Rp3478
(dp3479
g9
Vhttp://avatars.yandex.net/get-tv-shows/1333715233669M19318/orig
p3480
sg11
Vfo x life \u0423\u043a\u0440\u0430\u0438\u043d\u0430
p3481
sg13
Vhttp://tv.yandex.ua/187/channels/464
p3482
sbag3
(g4
g5
Ntp3483
Rp3484
(dp3485
g9
Vhttp://avatars.yandex.net/get-tv-shows/1333713682028M49283/orig
p3486
sg11
Vmcm top \u0420\u043e\u0441\u0441\u0438\u044f
p3487
sg13
Vhttp://tv.yandex.ua/213/channels/533
p3488
sbag3
(g4
g5
Ntp3489
Rp3490
(dp3491
g9
Vhttp://avatars.yandex.net/get-tv-channel-logos/1372082475931M61842/orig
p3492
sg11
Vtv 1000 comedy \u0420\u043e\u0441\u0441\u0438\u044f
p3493
sg13
Vhttp://tv.yandex.ua/2/channels/1011
p3494
sbag3
(g4
g5
Ntp3495
Rp3496
(dp3497
g9
Vhttp://avatars.yandex.net/get-tv-shows/1333708104672M58814/orig
p3498
sg11
V\u043e2 \u0442\u0432 \u0423\u043a\u0440\u0430\u0438\u043d\u0430
p3499
sg13
Vhttp://tv.yandex.ua/187/channels/777
p3500
sbag3
(g4
g5
Ntp3501
Rp3502
(dp3503
g9
Vhttp://avatars.yandex.net/get-tv-shows/1333715673198M2663/orig
p3504
sg11
V\u043f\u0435\u0440\u0432\u044b\u0439 \u043c\u0435\u0442\u0435\u043e \u0420\u043e\u0441\u0441\u0438\u044f
p3505
sg13
Vhttp://tv.yandex.ua/2/channels/59
p3506
sbag3
(g4
g5
Ntp3507
Rp3508
(dp3509
g9
Vhttp://avatars.yandex.net/get-tv-shows/1333715618467M47634/orig
p3510
sg11
V\u043a\u043e\u043c\u0435\u0434\u0438 \u0423\u043a\u0440\u0430\u0438\u043d\u0430
p3511
sg13
Vhttp://tv.yandex.ua/187/channels/51
p3512
sbag3
(g4
g5
Ntp3513
Rp3514
(dp3515
g9
Vhttp://avatars.yandex.net/get-tv-channel-logos/1376307789416M32176/orig
p3516
sg11
V\u0443\u043a\u0440\u0430\u0438\u043d\u0430 \u0423\u043a\u0440\u0430\u0438\u043d\u0430
p3517
sg13
Vhttp://tv.yandex.ua/187/channels/326
p3518
sbag3
(g4
g5
Ntp3519
Rp3520
(dp3521
g9
Vhttp://avatars.yandex.net/get-tv-shows/1333715997298M69767/orig
p3522
sg11
V\u043a\u0442\u043e \u0435\u0441\u0442\u044c \u043a\u0442\u043e \u0420\u043e\u0441\u0441\u0438\u044f
p3523
sg13
Vhttp://tv.yandex.ua/2/channels/769
p3524
sbag3
(g4
g5
Ntp3525
Rp3526
(dp3527
g9
Vhttp://avatars.yandex.net/get-tv-channel-logos/1362477710764M24329/orig
p3528
sg11
V\u0440\u043e\u0441\u0441\u0438\u044f \u0420\u043e\u0441\u0441\u0438\u044f
p3529
sg13
Vhttp://tv.yandex.ua/2/channels/984
p3530
sbag3
(g4
g5
Ntp3531
Rp3532
(dp3533
g9
Vhttp://avatars.yandex.net/get-tv-shows/1333715355758M56368/orig
p3534
sg11
Vlu x e \u0423\u043a\u0440\u0430\u0438\u043d\u0430
p3535
sg13
Vhttp://tv.yandex.ua/187/channels/312
p3536
sbag3
(g4
g5
Ntp3537
Rp3538
(dp3539
g9
Vhttp://avatars.yandex.net/get-tv-channel-logos/1336217768352M70407/orig
p3540
sg11
V\u043a\u043e\u043c\u0435\u0434\u0438\u044f \u0420\u043e\u0441\u0441\u0438\u044f
p3541
sg13
Vhttp://tv.yandex.ua/2/channels/821
p3542
sbag3
(g4
g5
Ntp3543
Rp3544
(dp3545
g9
Vhttp://avatars.yandex.net/get-tv-shows/1333713378901M21893/orig
p3546
sg11
Vpro \u0432\u0441\u0435 \u0423\u043a\u0440\u0430\u0438\u043d\u0430
p3547
sg13
Vhttp://tv.yandex.ua/187/channels/458
p3548
sbag3
(g4
g5
Ntp3549
Rp3550
(dp3551
g9
Vhttp://avatars.yandex.net/get-tv-shows/1333713688755M57280/orig
p3552
sg11
V\u0432\u0440\u0435\u043c\u044f \u0420\u043e\u0441\u0441\u0438\u044f
p3553
sg13
Vhttp://tv.yandex.ua/2/channels/669
p3554
sbag3
(g4
g5
Ntp3555
Rp3556
(dp3557
g9
Vhttp://avatars.yandex.net/get-tv-shows/1333715666639M78532/orig
p3558
sg11
Vfashion \u0420\u043e\u0441\u0441\u0438\u044f
p3559
sg13
Vhttp://tv.yandex.ua/213/channels/121
p3560
sbag3
(g4
g5
Ntp3561
Rp3562
(dp3563
g9
Vhttp://avatars.yandex.net/get-tv-shows/1333715997298M69767/orig
p3564
sg11
V\u043a\u0442\u043e \u0435\u0441\u0442\u044c \u043a\u0442\u043e \u0423\u043a\u0440\u0430\u0438\u043d\u0430
p3565
sg13
Vhttp://tv.yandex.ua/187/channels/769
p3566
sbag3
(g4
g5
Ntp3567
Rp3568
(dp3569
g9
Vhttp://avatars.yandex.net/get-tv-channel-logos/1354613590167M12325/orig
p3570
sg11
Vcbs drama \u0420\u043e\u0441\u0441\u0438\u044f
p3571
sg13
Vhttp://tv.yandex.ua/2/channels/911
p3572
sbag3
(g4
g5
Ntp3573
Rp3574
(dp3575
g9
Vhttp://avatars.yandex.net/get-tv-channel-logos/1348227921654M54810/orig
p3576
sg11
V\u043c\u0443\u0437 \u0420\u043e\u0441\u0441\u0438\u044f
p3577
sg13
Vhttp://tv.yandex.ua/2/channels/897
p3578
sbag3
(g4
g5
Ntp3579
Rp3580
(dp3581
g9
Vhttp://avatars.yandex.net/get-tv-shows/1333713418822M90839/orig
p3582
sg11
Vanimal planet \u0420\u043e\u0441\u0441\u0438\u044f
p3583
sg13
Vhttp://tv.yandex.ua/2/channels/365
p3584
sbag3
(g4
g5
Ntp3585
Rp3586
(dp3587
g9
Vhttp://avatars.yandex.net/get-tv-channel-logos/1372674525850M28668/orig
p3588
sg11
V\u043f\u044f\u0442\u043d\u0438\u0446\u0430 \u0420\u043e\u0441\u0441\u0438\u044f
p3589
sg13
Vhttp://tv.yandex.ua/2/channels/1001
p3590
sbag3
(g4
g5
Ntp3591
Rp3592
(dp3593
g9
Vhttp://avatars.yandex.net/get-tv-shows/1333713644403M21507/orig
p3594
sg11
Vviasat nature cee \u0420\u043e\u0441\u0441\u0438\u044f
p3595
sg13
Vhttp://tv.yandex.ua/2/channels/765
p3596
sbag3
(g4
g5
Ntp3597
Rp3598
(dp3599
g9
Vhttp://avatars.yandex.net/get-tv-channel-logos/1362477710764M24329/orig
p3600
sg11
V\u0440\u043e\u0441\u0441\u0438\u044f \u0420\u043e\u0441\u0441\u0438\u044f
p3601
sg13
Vhttp://tv.yandex.ua/213/channels/984
p3602
sbag3
(g4
g5
Ntp3603
Rp3604
(dp3605
g9
Vhttp://avatars.yandex.net/get-tv-channel-logos/1347983572357M54298/orig
p3606
sg11
V\u0442\u0432 3 \u0420\u043e\u0441\u0441\u0438\u044f
p3607
sg13
Vhttp://tv.yandex.ua/2/channels/279
p3608
sbag3
(g4
g5
Ntp3609
Rp3610
(dp3611
g9
Vhttp://avatars.yandex.net/get-tv-shows/1333715624031M64884/orig
p3612
sg11
V\u043f\u0435\u0440\u0435\u0446 \u0420\u043e\u0441\u0441\u0438\u044f
p3613
sg13
Vhttp://tv.yandex.ua/2/channels/511
p3614
sbag3
(g4
g5
Ntp3615
Rp3616
(dp3617
g9
Vhttp://avatars.yandex.net/get-tv-shows/1333713221007M92670/orig
p3618
sg11
V\u0448\u0430\u043d\u0442 \u0420\u043e\u0441\u0441\u0438\u044f
p3619
sg13
Vhttp://tv.yandex.ua/213/channels/795
p3620
sbag3
(g4
g5
Ntp3621
Rp3622
(dp3623
g9
Vhttp://avatars.yandex.net/get-tv-shows/1333708053915M20046/orig
p3624
sg11
V\u043c\u043d\u043e\u0433\u043e \u0420\u043e\u0441\u0441\u0438\u044f
p3625
sg13
Vhttp://tv.yandex.ua/213/channels/799
p3626
sbag3
(g4
g5
Ntp3627
Rp3628
(dp3629
g9
Vhttp://avatars.yandex.net/get-tv-shows/1333712702253M97202/orig
p3630
sg11
V\u0437\u0430\u0433\u043e\u0440\u043e\u0434\u043d\u0430\u044f \u0436\u0438\u0437\u043d\u044c \u0423\u043a\u0440\u0430\u0438\u043d\u0430
p3631
sg13
Vhttp://tv.yandex.ua/187/channels/21
p3632
sbag3
(g4
g5
Ntp3633
Rp3634
(dp3635
g9
Vhttp://avatars.yandex.net/get-tv-shows/1333716819878M97368/orig
p3636
sg11
V\u0437\u0430\u0433\u043e\u0440\u043e\u0434\u043d\u044b\u0439 \u0423\u043a\u0440\u0430\u0438\u043d\u0430
p3637
sg13
Vhttp://tv.yandex.ua/187/channels/705
p3638
sbag3
(g4
g5
Ntp3639
Rp3640
(dp3641
g9
Vhttp://avatars.yandex.net/get-tv-channel-logos/1374658963600M49521/orig
p3642
sg11
Vzoo\u043f\u0430\u0440\u043a \u0420\u043e\u0441\u0441\u0438\u044f
p3643
sg13
Vhttp://tv.yandex.ua/213/channels/367
p3644
sbag3
(g4
g5
Ntp3645
Rp3646
(dp3647
g9
Vhttp://avatars.yandex.net/get-tv-channel-logos/1374053775778M12226/small
p3648
sg11
Vimage \u0420\u043e\u0441\u0441\u0438\u044f
p3649
sg13
Vhttp://tv.yandex.ua/2/channels/1016
p3650
sbag3
(g4
g5
Ntp3651
Rp3652
(dp3653
g9
Vhttp://avatars.yandex.net/get-tv-shows/1333715667706M25067/orig
p3654
sg11
Vic tv \u0423\u043a\u0440\u0430\u0438\u043d\u0430
p3655
sg13
Vhttp://tv.yandex.ua/187/channels/709
p3656
sbag3
(g4
g5
Ntp3657
Rp3658
(dp3659
g9
Vhttp://avatars.yandex.net/get-tv-channel-logos/1357913701365M55366/orig
p3660
sg11
Vsony turbo \u0420\u043e\u0441\u0441\u0438\u044f
p3661
sg13
Vhttp://tv.yandex.ua/2/channels/935
p3662
sbag3
(g4
g5
Ntp3663
Rp3664
(dp3665
g9
Vhttp://avatars.yandex.net/get-tv-shows/1333716823193M39207/orig
p3666
sg11
Vkidsco \u0423\u043a\u0440\u0430\u0438\u043d\u0430
p3667
sg13
Vhttp://tv.yandex.ua/187/channels/598
p3668
sbag3
(g4
g5
Ntp3669
Rp3670
(dp3671
g9
Vhttp://avatars.yandex.net/get-tv-channel-logos/1348227921654M54810/orig
p3672
sg11
V\u043c\u0443\u0437 \u0420\u043e\u0441\u0441\u0438\u044f
p3673
sg13
Vhttp://tv.yandex.ua/213/channels/897
p3674
sbag3
(g4
g5
Ntp3675
Rp3676
(dp3677
g9
Vhttp://avatars.yandex.net/get-tv-shows/1333715984312M65283/orig
p3678
sg11
V\u0442\u0435\u043b\u0435\u043a\u0430\u0444\u0435 \u0420\u043e\u0441\u0441\u0438\u044f
p3679
sg13
Vhttp://tv.yandex.ua/2/channels/173
p3680
sbag3
(g4
g5
Ntp3681
Rp3682
(dp3683
g9
Vhttp://avatars.yandex.net/get-tv-shows/1333715232241M630/orig
p3684
sg11
V\u043f\u0441\u0438 x \u043e\u043b\u043e\u0433\u0438\u044f 21 \u0420\u043e\u0441\u0441\u0438\u044f
p3685
sg13
Vhttp://tv.yandex.ua/2/channels/434
p3686
sbag3
(g4
g5
Ntp3687
Rp3688
(dp3689
g9
Vhttp://avatars.yandex.net/get-tv-shows/1333716896322M65134/orig
p3690
sg11
Vbbc \u0423\u043a\u0440\u0430\u0438\u043d\u0430
p3691
sg13
Vhttp://tv.yandex.ua/187/channels/502
p3692
sbag3
(g4
g5
Ntp3693
Rp3694
(dp3695
g9
Vhttp://avatars.yandex.net/get-tv-shows/1333707965006M57212/orig
p3696
sg11
V\u0437\u0430\u043a\u043e\u043d \u0420\u043e\u0441\u0441\u0438\u044f
p3697
sg13
Vhttp://tv.yandex.ua/2/channels/178
p3698
sbag3
(g4
g5
Ntp3699
Rp3700
(dp3701
g9
Vhttp://avatars.yandex.net/get-tv-channel-logos/1368008780295M56858/orig
p3702
sg11
V\u0441\u0442\u0440\u0430\u043d\u0430 \u0423\u043a\u0440\u0430\u0438\u043d\u0430
p3703
sg13
Vhttp://tv.yandex.ua/187/channels/284
p3704
sbag3
(g4
g5
Ntp3705
Rp3706
(dp3707
g9
Vhttp://avatars.yandex.net/get-tv-shows/1333716722923M49423/orig
p3708
sg11
Vtv 1000 \u0440\u0443\u0441\u0441\u043a\u043e\u0435 \u043a\u0438\u043d\u043e \u0423\u043a\u0440\u0430\u0438\u043d\u0430
p3709
sg13
Vhttp://tv.yandex.ua/187/channels/267
p3710
sbag3
(g4
g5
Ntp3711
Rp3712
(dp3713
g9
Vhttp://avatars.yandex.net/get-tv-shows/1333715590594M58125/orig
p3714
sg11
V\u043d\u0442\u043d \u0423\u043a\u0440\u0430\u0438\u043d\u0430
p3715
sg13
Vhttp://tv.yandex.ua/187/channels/140
p3716
sbag3
(g4
g5
Ntp3717
Rp3718
(dp3719
g9
Vhttp://avatars.yandex.net/get-tv-shows/1333713764780M72648/orig
p3720
sg11
V\u043c\u043e\u044f \u043f\u043b\u0430\u043d\u0435\u0442\u0430 \u0420\u043e\u0441\u0441\u0438\u044f
p3721
sg13
Vhttp://tv.yandex.ua/2/channels/675
p3722
sbag3
(g4
g5
Ntp3723
Rp3724
(dp3725
g9
Vhttp://avatars.yandex.net/get-tv-channel-logos/1369919010062M69241/orig
p3726
sg11
V\u0441\u0438\u043d\u0435\u0440\u0433\u0438\u044f \u0420\u043e\u0441\u0441\u0438\u044f
p3727
sg13
Vhttp://tv.yandex.ua/213/channels/932
p3728
sbag3
(g4
g5
Ntp3729
Rp3730
(dp3731
g9
Vhttp://avatars.yandex.net/get-tv-shows/1333715291495M67100/orig
p3732
sg11
V\u043f\u0440\u043e\u0441\u0432\u0435\u0449\u0435\u043d\u0438\u0435 \u0420\u043e\u0441\u0441\u0438\u044f
p3733
sg13
Vhttp://tv.yandex.ua/2/channels/685
p3734
sbag3
(g4
g5
Ntp3735
Rp3736
(dp3737
g9
Vhttp://avatars.yandex.net/get-tv-shows/1333715462882M95375/orig
p3738
sg11
Vjimjam \u0423\u043a\u0440\u0430\u0438\u043d\u0430
p3739
sg13
Vhttp://tv.yandex.ua/187/channels/494
p3740
sbag3
(g4
g5
Ntp3741
Rp3742
(dp3743
g9
Vhttp://avatars.yandex.net/get-tv-shows/1333715603725M3088/orig
p3744
sg11
Veuropa plus \u0420\u043e\u0441\u0441\u0438\u044f
p3745
sg13
Vhttp://tv.yandex.ua/213/channels/681
p3746
sbag3
(g4
g5
Ntp3747
Rp3748
(dp3749
g9
Vhttp://avatars.yandex.net/get-tv-shows/1333713816053M8679/orig
p3750
sg11
Vfashion \u0420\u043e\u0441\u0441\u0438\u044f
p3751
sg13
Vhttp://tv.yandex.ua/2/channels/661
p3752
sbag3
(g4
g5
Ntp3753
Rp3754
(dp3755
g9
Vhttp://avatars.yandex.net/get-tv-shows/1333716106733M58501/orig
p3756
sg11
Vda vinci \u0423\u043a\u0440\u0430\u0438\u043d\u0430
p3757
sg13
Vhttp://tv.yandex.ua/187/channels/410
p3758
sbag3
(g4
g5
Ntp3759
Rp3760
(dp3761
g9
Vhttp://avatars.yandex.net/get-tv-shows/1333715291495M67100/orig
p3762
sg11
V\u043f\u0440\u043e\u0441\u0432\u0435\u0449\u0435\u043d\u0438\u0435 \u0423\u043a\u0440\u0430\u0438\u043d\u0430
p3763
sg13
Vhttp://tv.yandex.ua/187/channels/685
p3764
sbag3
(g4
g5
Ntp3765
Rp3766
(dp3767
g9
Vhttp://avatars.yandex.net/get-tv-channel-logos/1376043754084M51542/orig
p3768
sg11
V\u0440\u043e\u0441\u0441\u0438\u044f 24 \u0420\u043e\u0441\u0441\u0438\u044f
p3769
sg13
Vhttp://tv.yandex.ua/2/channels/291
p3770
sbag3
(g4
g5
Ntp3771
Rp3772
(dp3773
g9
Vhttp://avatars.yandex.net/get-tv-shows/1333715354479M98366/orig
p3774
sg11
Vinvestigation discovery \u0420\u043e\u0441\u0441\u0438\u044f
p3775
sg13
Vhttp://tv.yandex.ua/2/channels/19
p3776
sbag3
(g4
g5
Ntp3777
Rp3778
(dp3779
g9
Vhttp://avatars.yandex.net/get-tv-shows/1333708316300M57639/orig
p3780
sg11
V\u043a\u0438\u043d\u043e\u043a\u043b\u0443\u0431 \u0423\u043a\u0440\u0430\u0438\u043d\u0430
p3781
sg13
Vhttp://tv.yandex.ua/187/channels/462
p3782
sbag3
(g4
g5
Ntp3783
Rp3784
(dp3785
g9
Vhttp://avatars.yandex.net/get-tv-shows/1333715800906M7024/orig
p3786
sg11
V\u043b\u044f \u043c\u0438\u043d\u043e\u0440 \u0420\u043e\u0441\u0441\u0438\u044f
p3787
sg13
Vhttp://tv.yandex.ua/213/channels/257
p3788
sbag3
(g4
g5
Ntp3789
Rp3790
(dp3791
g9
Vhttp://avatars.yandex.net/get-tv-shows/1333716977495M19933/orig
p3792
sg11
Vdiscovery showcase \u0420\u043e\u0441\u0441\u0438\u044f
p3793
sg13
Vhttp://tv.yandex.ua/213/channels/111
p3794
sbag3
(g4
g5
Ntp3795
Rp3796
(dp3797
g9
Vhttp://avatars.yandex.net/get-tv-channel-logos/1373971720537M51364/orig
p3798
sg11
V24 \u0434\u043e\u043a \u0420\u043e\u0441\u0441\u0438\u044f
p3799
sg13
Vhttp://tv.yandex.ua/213/channels/16
p3800
sbag3
(g4
g5
Ntp3801
Rp3802
(dp3803
g9
Vhttp://avatars.yandex.net/get-tv-shows/1333709317667M77343/orig
p3804
sg11
Vnational geographic \u0423\u043a\u0440\u0430\u0438\u043d\u0430
p3805
sg13
Vhttp://tv.yandex.ua/187/channels/389
p3806
sbag3
(g4
g5
Ntp3807
Rp3808
(dp3809
g9
Vhttp://avatars.yandex.net/get-tv-shows/1333712713031M6232/orig
p3810
sg11
Vstyle \u0423\u043a\u0440\u0430\u0438\u043d\u0430
p3811
sg13
Vhttp://tv.yandex.ua/187/channels/119
p3812
sbag3
(g4
g5
Ntp3813
Rp3814
(dp3815
g9
Vhttp://avatars.yandex.net/get-tv-shows/1333715457146M21776/orig
p3816
sg11
Vmusicbo x ru \u0420\u043e\u0441\u0441\u0438\u044f
p3817
sg13
Vhttp://tv.yandex.ua/213/channels/25
p3818
sbag3
(g4
g5
Ntp3819
Rp3820
(dp3821
g9
Vhttp://avatars.yandex.net/get-tv-shows/1333713807307M19303/orig
p3822
sg11
Vmusicbo x \u0420\u043e\u0441\u0441\u0438\u044f
p3823
sg13
Vhttp://tv.yandex.ua/2/channels/642
p3824
sbag3
(g4
g5
Ntp3825
Rp3826
(dp3827
g9
Vhttp://avatars.yandex.net/get-tv-channel-logos/1348227921654M54810/orig
p3828
sg11
V\u043c\u0443\u0437 \u0423\u043a\u0440\u0430\u0438\u043d\u0430
p3829
sg13
Vhttp://tv.yandex.ua/187/channels/897
p3830
sbag3
(g4
g5
Ntp3831
Rp3832
(dp3833
g9
Vhttp://avatars.yandex.net/get-tv-channel-logos/1357917814887M75013/orig
p3834
sg11
Vboomerang \u0420\u043e\u0441\u0441\u0438\u044f
p3835
sg13
Vhttp://tv.yandex.ua/2/channels/929
p3836
sbag3
(g4
g5
Ntp3837
Rp3838
(dp3839
g9
Vhttp://avatars.yandex.net/get-tv-shows/1333716891806M18999/orig
p3840
sg11
V\u043a\u0438\u043d\u043e\u043f\u043e\u043a\u0430\u0437 \u0423\u043a\u0440\u0430\u0438\u043d\u0430
p3841
sg13
Vhttp://tv.yandex.ua/187/channels/22
p3842
sbag3
(g4
g5
Ntp3843
Rp3844
(dp3845
g9
Vhttp://avatars.yandex.net/get-tv-shows/1333713824656M29108/orig
p3846
sg11
Vajara \u0420\u043e\u0441\u0441\u0438\u044f
p3847
sg13
Vhttp://tv.yandex.ua/2/channels/756
p3848
sbag3
(g4
g5
Ntp3849
Rp3850
(dp3851
g9
Vhttp://avatars.yandex.net/get-tv-shows/1333708043568M30613/orig
p3852
sg11
V\u043d \u0442\u0432 + \u0442\u0435\u043d\u043d\u0438\u0441 \u0420\u043e\u0441\u0441\u0438\u044f
p3853
sg13
Vhttp://tv.yandex.ua/2/channels/358
p3854
sbag3
(g4
g5
Ntp3855
Rp3856
(dp3857
g9
Vhttp://avatars.yandex.net/get-tv-shows/1333715618499M86752/orig
p3858
sg11
Vs tv \u0420\u043e\u0441\u0441\u0438\u044f
p3859
sg13
Vhttp://tv.yandex.ua/213/channels/165
p3860
sbag3
(g4
g5
Ntp3861
Rp3862
(dp3863
g9
Vhttp://avatars.yandex.net/get-tv-shows/1333708797928M94347/orig
p3864
sg11
Vm tv dance \u0423\u043a\u0440\u0430\u0438\u043d\u0430
p3865
sg13
Vhttp://tv.yandex.ua/187/channels/332
p3866
sbag3
(g4
g5
Ntp3867
Rp3868
(dp3869
g9
Vhttp://avatars.yandex.net/get-tv-channel-logos/1357918127889M80429/orig
p3870
sg11
Vdiscovery \u0432\u043e\u0441\u0442\u043e\u0447\u043d\u0430\u044f \u0435\u0432\u0440\u043e\u043f\u0430 \u0420\u043e\u0441\u0441\u0438\u044f
p3871
sg13
Vhttp://tv.yandex.ua/2/channels/928
p3872
sbag3
(g4
g5
Ntp3873
Rp3874
(dp3875
g9
Vhttp://avatars.yandex.net/get-tv-shows/1333717714948M87568/orig
p3876
sg11
V\u0442\u0438\u043d \u0420\u043e\u0441\u0441\u0438\u044f
p3877
sg13
Vhttp://tv.yandex.ua/2/channels/716
p3878
sbag3
(g4
g5
Ntp3879
Rp3880
(dp3881
g9
Vhttp://avatars.yandex.net/get-tv-shows/1333718307034M58256/orig
p3882
sg11
V\u0434\u0435\u0432\u044f\u0442\u044b\u0439 \u043e\u0440\u0431\u0438\u0442\u0430 \u0423\u043a\u0440\u0430\u0438\u043d\u0430
p3883
sg13
Vhttp://tv.yandex.ua/187/channels/237
p3884
sbag3
(g4
g5
Ntp3885
Rp3886
(dp3887
g9
Vhttp://avatars.yandex.net/get-tv-channel-logos/1373972048303M89132/orig
p3888
sg11
V\u043f\u0430\u0440\u043a \u0440\u0430\u0437\u0432\u043b\u0435\u0447\u0435\u043d\u0438\u0439 \u0420\u043e\u0441\u0441\u0438\u044f
p3889
sg13
Vhttp://tv.yandex.ua/2/channels/37
p3890
sbag3
(g4
g5
Ntp3891
Rp3892
(dp3893
g9
Vhttp://avatars.yandex.net/get-tv-shows/1333715225057M89214/orig
p3894
sg11
V\u043a\u0438\u043d\u043e\u0441\u043e\u044e\u0437 \u0423\u043a\u0440\u0430\u0438\u043d\u0430
p3895
sg13
Vhttp://tv.yandex.ua/187/channels/71
p3896
sbag3
(g4
g5
Ntp3897
Rp3898
(dp3899
g9
Vhttp://avatars.yandex.net/get-tv-shows/1333716106733M58501/orig
p3900
sg11
Vda vinci \u0420\u043e\u0441\u0441\u0438\u044f
p3901
sg13
Vhttp://tv.yandex.ua/2/channels/410
p3902
sbag3
(g4
g5
Ntp3903
Rp3904
(dp3905
g9
Vhttp://avatars.yandex.net/get-tv-channel-logos/1357918360691M18459/orig
p3906
sg11
Vgala x y \u0420\u043e\u0441\u0441\u0438\u044f
p3907
sg13
Vhttp://tv.yandex.ua/213/channels/924
p3908
sbag3
(g4
g5
Ntp3909
Rp3910
(dp3911
g9
Vhttp://avatars.yandex.net/get-tv-shows/1333715718019M10577/orig
p3912
sg11
V\u0448\u043a\u043e\u043b\u044c\u043d\u0438\u043a \u0420\u043e\u0441\u0441\u0438\u044f
p3913
sg13
Vhttp://tv.yandex.ua/213/channels/61
p3914
sbag3
(g4
g5
Ntp3915
Rp3916
(dp3917
g9
Vhttp://avatars.yandex.net/get-tv-shows/1333713251839M53909/orig
p3918
sg11
Vnat geo wild \u0420\u043e\u0441\u0441\u0438\u044f
p3919
sg13
Vhttp://tv.yandex.ua/2/channels/807
p3920
sbag3
(g4
g5
Ntp3921
Rp3922
(dp3923
g9
Vhttp://avatars.yandex.net/get-tv-channel-logos/1368713267762M92996/orig
p3924
sg11
V\u043a\u043e\u043c\u0441\u043e\u043c\u043e\u043b\u044c\u0441\u043a\u0430\u044f \u043f\u0440\u0430\u0432\u0434\u0430 \u0423\u043a\u0440\u0430\u0438\u043d\u0430
p3925
sg13
Vhttp://tv.yandex.ua/187/channels/852
p3926
sbag3
(g4
g5
Ntp3927
Rp3928
(dp3929
g9
Vhttp://avatars.yandex.net/get-tv-shows/1333713259234M5321/orig
p3930
sg11
V\u043a\u0430\u0440\u0443\u0441\u0435\u043b\u044c int \u0423\u043a\u0440\u0430\u0438\u043d\u0430
p3931
sg13
Vhttp://tv.yandex.ua/187/channels/465
p3932
sbag3
(g4
g5
Ntp3933
Rp3934
(dp3935
g9
Vhttp://avatars.yandex.net/get-tv-shows/1333713925399M49999/orig
p3936
sg11
V\u0441\u043f\u043e\u0440\u0442 \u0420\u043e\u0441\u0441\u0438\u044f
p3937
sg13
Vhttp://tv.yandex.ua/2/channels/429
p3938
sbag3
(g4
g5
Ntp3939
Rp3940
(dp3941
g9
Vhttp://avatars.yandex.net/get-tv-channel-logos/1356772440257M50638/orig
p3942
sg11
V\u0435\u0434\u0430 \u0420\u043e\u0441\u0441\u0438\u044f
p3943
sg13
Vhttp://tv.yandex.ua/213/channels/931
p3944
sbag3
(g4
g5
Ntp3945
Rp3946
(dp3947
g9
Vhttp://avatars.yandex.net/get-tv-shows/1333715678250M70241/orig
p3948
sg11
Vmotors \u0420\u043e\u0441\u0441\u0438\u044f
p3949
sg13
Vhttp://tv.yandex.ua/213/channels/531
p3950
sbag3
(g4
g5
Ntp3951
Rp3952
(dp3953
g9
Vhttp://avatars.yandex.net/get-tv-shows/1333713093430M11517/orig
p3954
sg11
V\u043a\u0438\u043d\u043e x \u0438\u0442 \u0423\u043a\u0440\u0430\u0438\u043d\u0430
p3955
sg13
Vhttp://tv.yandex.ua/187/channels/542
p3956
sbag3
(g4
g5
Ntp3957
Rp3958
(dp3959
g9
Vhttp://avatars.yandex.net/get-tv-shows/1333709239764M13305/orig
p3960
sg11
Vlife \u0420\u043e\u0441\u0441\u0438\u044f
p3961
sg13
Vhttp://tv.yandex.ua/213/channels/415
p3962
sbag3
(g4
g5
Ntp3963
Rp3964
(dp3965
g9
Vhttp://avatars.yandex.net/get-tv-shows/1333708221386M8318/orig
p3966
sg11
Vmyzen tv \u0420\u043e\u0441\u0441\u0438\u044f
p3967
sg13
Vhttp://tv.yandex.ua/2/channels/141
p3968
sbag3
(g4
g5
Ntp3969
Rp3970
(dp3971
g9
Vhttp://avatars.yandex.net/get-tv-shows/1333707837348M40226/orig
p3972
sg11
Vfrance 24 \u0423\u043a\u0440\u0430\u0438\u043d\u0430
p3973
sg13
Vhttp://tv.yandex.ua/187/channels/461
p3974
sbag3
(g4
g5
Ntp3975
Rp3976
(dp3977
g9
Vhttp://avatars.yandex.net/get-tv-shows/1333713578162M89138/orig
p3978
sg11
V\u043d \u0442\u0432 + \u0431\u0430\u0441\u043a\u0435\u0442\u0431\u043e\u043b \u0420\u043e\u0441\u0441\u0438\u044f
p3979
sg13
Vhttp://tv.yandex.ua/2/channels/697
p3980
sbag3
(g4
g5
Ntp3981
Rp3982
(dp3983
g9
Vhttp://avatars.yandex.net/get-tv-shows/1333715744438M85797/orig
p3984
sg11
V\u0443\u0441\u043f\u0435 x \u0423\u043a\u0440\u0430\u0438\u043d\u0430
p3985
sg13
Vhttp://tv.yandex.ua/187/channels/547
p3986
sbag3
(g4
g5
Ntp3987
Rp3988
(dp3989
g9
Vhttp://avatars.yandex.net/get-tv-shows/1333715618499M86752/orig
p3990
sg11
Vs tv \u0423\u043a\u0440\u0430\u0438\u043d\u0430
p3991
sg13
Vhttp://tv.yandex.ua/187/channels/165
p3992
sbag3
(g4
g5
Ntp3993
Rp3994
(dp3995
g9
Vhttp://avatars.yandex.net/get-tv-channel-logos/1352298708156M61329/orig
p3996
sg11
V\u043c\u0430\u0442\u044c \u0438 \u0434\u0438\u0442\u044f \u0423\u043a\u0440\u0430\u0438\u043d\u0430
p3997
sg13
Vhttp://tv.yandex.ua/187/channels/618
p3998
sbag3
(g4
g5
Ntp3999
Rp4000
(dp4001
g9
Vhttp://avatars.yandex.net/get-tv-shows/1333715545258M24133/orig
p4002
sg11
Voutdoor \u0420\u043e\u0441\u0441\u0438\u044f
p4003
sg13
Vhttp://tv.yandex.ua/213/channels/322
p4004
sbag3
(g4
g5
Ntp4005
Rp4006
(dp4007
g9
Vhttp://avatars.yandex.net/get-tv-shows/1333715412490M65597/orig
p4008
sg11
Vrussia today \u0423\u043a\u0440\u0430\u0438\u043d\u0430
p4009
sg13
Vhttp://tv.yandex.ua/187/channels/313
p4010
sbag3
(g4
g5
Ntp4011
Rp4012
(dp4013
g9
Vhttp://avatars.yandex.net/get-tv-shows/1333715814729M63454/orig
p4014
sg11
Vzee \u0420\u043e\u0441\u0441\u0438\u044f
p4015
sg13
Vhttp://tv.yandex.ua/2/channels/626
p4016
sbag3
(g4
g5
Ntp4017
Rp4018
(dp4019
g9
Vhttp://avatars.yandex.net/get-tv-shows/1333712655586M1831/orig
p4020
sg11
Vpro business \u0423\u043a\u0440\u0430\u0438\u043d\u0430
p4021
sg13
Vhttp://tv.yandex.ua/187/channels/214
p4022
sbag3
(g4
g5
Ntp4023
Rp4024
(dp4025
g9
Vhttp://avatars.yandex.net/get-tv-shows/1333715711561M94479/orig
p4026
sg11
V\u0442\u043d\u0442 \u0420\u043e\u0441\u0441\u0438\u044f
p4027
sg13
Vhttp://tv.yandex.ua/213/channels/353
p4028
sbag3
(g4
g5
Ntp4029
Rp4030
(dp4031
g9
Vhttp://avatars.yandex.net/get-tv-channel-logos/1357918486310M81107/orig
p4032
sg11
Viconcerts \u0420\u043e\u0441\u0441\u0438\u044f
p4033
sg13
Vhttp://tv.yandex.ua/2/channels/927
p4034
sbag3
(g4
g5
Ntp4035
Rp4036
(dp4037
g9
Vhttp://avatars.yandex.net/get-tv-channel-logos/1373971951264M72543/orig
p4038
sg11
V\u043d\u0430\u0441\u0442\u043e\u044f\u0449\u0435\u0435 \u0441\u0442\u0440\u0430\u0448\u043d\u043e\u0435 \u0442\u0435\u043b\u0435\u0432\u0438\u0434\u0435\u043d\u0438\u0435 \u0420\u043e\u0441\u0441\u0438\u044f
p4039
sg13
Vhttp://tv.yandex.ua/2/channels/518
p4040
sbag3
(g4
g5
Ntp4041
Rp4042
(dp4043
g9
Vhttp://avatars.yandex.net/get-tv-shows/1333715883475M39981/orig
p4044
sg11
V\u043d\u0430\u0448\u0435 \u043a\u0438\u043d\u043e \u0420\u043e\u0441\u0441\u0438\u044f
p4045
sg13
Vhttp://tv.yandex.ua/2/channels/12
p4046
sbag3
(g4
g5
Ntp4047
Rp4048
(dp4049
g9
Vhttp://avatars.yandex.net/get-tv-shows/1333713764780M72648/orig
p4050
sg11
V\u043c\u043e\u044f \u043f\u043b\u0430\u043d\u0435\u0442\u0430 \u0423\u043a\u0440\u0430\u0438\u043d\u0430
p4051
sg13
Vhttp://tv.yandex.ua/187/channels/675
p4052
sbag3
(g4
g5
Ntp4053
Rp4054
(dp4055
g9
Vhttp://avatars.yandex.net/get-tv-channel-logos/1372674525850M28668/orig
p4056
sg11
V\u043f\u044f\u0442\u043d\u0438\u0446\u0430 \u0420\u043e\u0441\u0441\u0438\u044f
p4057
sg13
Vhttp://tv.yandex.ua/213/channels/1003
p4058
sbag3
(g4
g5
Ntp4059
Rp4060
(dp4061
g9
Vhttp://avatars.yandex.net/get-tv-shows/1333713418795M13518/orig
p4062
sg11
V\u0443\u0441\u0430\u0434\u044c\u0431\u0430 \u0420\u043e\u0441\u0441\u0438\u044f
p4063
sg13
Vhttp://tv.yandex.ua/213/channels/779
p4064
sbag3
(g4
g5
Ntp4065
Rp4066
(dp4067
g9
Vhttp://avatars.yandex.net/get-tv-channel-logos/1357920601762M75520/orig
p4068
sg11
V\u043e\u0441\u0442 \u0420\u043e\u0441\u0441\u0438\u044f
p4069
sg13
Vhttp://tv.yandex.ua/2/channels/926
p4070
sbag3
(g4
g5
Ntp4071
Rp4072
(dp4073
g9
Vhttp://avatars.yandex.net/get-tv-shows/1333708746764M31248/orig
p4074
sg11
V\u043d\u0435\u0434\u0432\u0438\u0436\u0438\u043c\u043e\u0441\u0442\u044c \u0420\u043e\u0441\u0441\u0438\u044f
p4075
sg13
Vhttp://tv.yandex.ua/213/channels/552
p4076
sbag3
(g4
g5
Ntp4077
Rp4078
(dp4079
g9
Vhttp://avatars.yandex.net/get-tv-channel-logos/1356772574955M48259/orig
p4080
sg11
V\u0435\u0434\u0430 \u0420\u043e\u0441\u0441\u0438\u044f
p4081
sg13
Vhttp://tv.yandex.ua/213/channels/930
p4082
sbag3
(g4
g5
Ntp4083
Rp4084
(dp4085
g9
Vhttp://avatars.yandex.net/get-tv-shows/1333715635729M66606/orig
p4086
sg11
Vviasat e x plorer \u0420\u043e\u0441\u0441\u0438\u044f
p4087
sg13
Vhttp://tv.yandex.ua/2/channels/521
p4088
sbag3
(g4
g5
Ntp4089
Rp4090
(dp4091
g9
Vhttp://avatars.yandex.net/get-tv-channel-logos/1364301043753M88131/orig
p4092
sg11
Vrussian travel guide \u0423\u043a\u0440\u0430\u0438\u043d\u0430
p4093
sg13
Vhttp://tv.yandex.ua/187/channels/648
p4094
sbag3
(g4
g5
Ntp4095
Rp4096
(dp4097
g9
Vhttp://avatars.yandex.net/get-tv-channel-logos/1373971951264M72543/orig
p4098
sg11
V\u043d\u0430\u0441\u0442\u043e\u044f\u0449\u0435\u0435 \u0441\u0442\u0440\u0430\u0448\u043d\u043e\u0435 \u0442\u0435\u043b\u0435\u0432\u0438\u0434\u0435\u043d\u0438\u0435 \u0423\u043a\u0440\u0430\u0438\u043d\u0430
p4099
sg13
Vhttp://tv.yandex.ua/187/channels/518
p4100
sbag3
(g4
g5
Ntp4101
Rp4102
(dp4103
g9
Vhttp://avatars.yandex.net/get-tv-channel-logos/1368008780295M56858/orig
p4104
sg11
V\u0441\u0442\u0440\u0430\u043d\u0430 \u0420\u043e\u0441\u0441\u0438\u044f
p4105
sg13
Vhttp://tv.yandex.ua/213/channels/284
p4106
sbag3
(g4
g5
Ntp4107
Rp4108
(dp4109
g9
Vhttp://avatars.yandex.net/get-tv-shows/1333715800906M7024/orig
p4110
sg11
V\u043b\u044f \u043c\u0438\u043d\u043e\u0440 \u0423\u043a\u0440\u0430\u0438\u043d\u0430
p4111
sg13
Vhttp://tv.yandex.ua/187/channels/257
p4112
sbag3
(g4
g5
Ntp4113
Rp4114
(dp4115
g9
Vhttp://avatars.yandex.net/get-tv-shows/1333716732901M35094/orig
p4116
sg11
V\u043e\u0442\u043a\u0440\u044b\u0442\u044b\u0439 \u043c\u0438\u0440 \u0420\u043e\u0441\u0441\u0438\u044f
p4117
sg13
Vhttp://tv.yandex.ua/2/channels/39
p4118
sbag3
(g4
g5
Ntp4119
Rp4120
(dp4121
g9
Vhttp://avatars.yandex.net/get-tv-channel-logos/1368535239323M73822/orig
p4122
sg11
V\u0442\u0435\u0430\u0442\u0440 \u0420\u043e\u0441\u0441\u0438\u044f
p4123
sg13
Vhttp://tv.yandex.ua/213/channels/925
p4124
sbag3
(g4
g5
Ntp4125
Rp4126
(dp4127
g9
Vhttp://avatars.yandex.net/get-tv-shows/1333713976352M79712/orig
p4128
sg11
Vnewsone \u0423\u043a\u0440\u0430\u0438\u043d\u0430
p4129
sg13
Vhttp://tv.yandex.ua/187/channels/247
p4130
sbag3
(g4
g5
Ntp4131
Rp4132
(dp4133
g9
Vhttp://avatars.yandex.net/get-tv-shows/1333715589076M84567/orig
p4134
sg11
Vgulli \u0420\u043e\u0441\u0441\u0438\u044f
p4135
sg13
Vhttp://tv.yandex.ua/2/channels/810
p4136
sbag3
(g4
g5
Ntp4137
Rp4138
(dp4139
g9
Vhttp://avatars.yandex.net/get-tv-shows/1333715883475M39981/orig
p4140
sg11
V\u043d\u0430\u0448\u0435 \u043a\u0438\u043d\u043e \u0423\u043a\u0440\u0430\u0438\u043d\u0430
p4141
sg13
Vhttp://tv.yandex.ua/187/channels/12
p4142
sbag3
(g4
g5
Ntp4143
Rp4144
(dp4145
g9
Vhttp://avatars.yandex.net/get-tv-shows/1333713840422M72865/orig
p4146
sg11
Vmezzo \u0420\u043e\u0441\u0441\u0438\u044f
p4147
sg13
Vhttp://tv.yandex.ua/213/channels/575
p4148
sbag3
(g4
g5
Ntp4149
Rp4150
(dp4151
g9
Vhttp://avatars.yandex.net/get-tv-shows/1333713729069M489/orig
p4152
sg11
V\u0440 \u0442\u0432 \u043b\u044e\u0431\u0438\u043c\u043e\u0435 \u043a\u0438\u043d\u043e \u0420\u043e\u0441\u0441\u0438\u044f
p4153
sg13
Vhttp://tv.yandex.ua/2/channels/477
p4154
sbag3
(g4
g5
Ntp4155
Rp4156
(dp4157
g9
Vhttp://avatars.yandex.net/get-tv-shows/1333713846214M68965/orig
p4158
sg11
Vfine living network \u0423\u043a\u0440\u0430\u0438\u043d\u0430
p4159
sg13
Vhttp://tv.yandex.ua/187/channels/393
p4160
sbag3
(g4
g5
Ntp4161
Rp4162
(dp4163
g9
Vhttp://avatars.yandex.net/get-tv-shows/1333708221386M8318/orig
p4164
sg11
Vmyzen tv \u0423\u043a\u0440\u0430\u0438\u043d\u0430
p4165
sg13
Vhttp://tv.yandex.ua/187/channels/141
p4166
sbag3
(g4
g5
Ntp4167
Rp4168
(dp4169
g9
Vhttp://avatars.yandex.net/get-tv-shows/1333716734381M94839/orig
p4170
sg11
V\u043d \u0442\u0432 + \u0441\u043f\u043e\u0440\u0442 \u043e\u043d\u043b\u0430\u0439\u043d \u0420\u043e\u0441\u0441\u0438\u044f
p4171
sg13
Vhttp://tv.yandex.ua/2/channels/183
p4172
sbag3
(g4
g5
Ntp4173
Rp4174
(dp4175
g9
Vhttp://avatars.yandex.net/get-tv-shows/1333713945719M63469/orig
p4176
sg11
V\u0434\u043e\u0436\u0434\u044c \u0423\u043a\u0440\u0430\u0438\u043d\u0430
p4177
sg13
Vhttp://tv.yandex.ua/187/channels/384
p4178
sbag3
(g4
g5
Ntp4179
Rp4180
(dp4181
g9
Vhttp://avatars.yandex.net/get-tv-channel-logos/1348587696219M11284/orig
p4182
sg11
V\u0435\u0432\u0440\u043e\u043a\u0438\u043d\u043e \u0420\u043e\u0441\u0441\u0438\u044f
p4183
sg13
Vhttp://tv.yandex.ua/2/channels/352
p4184
sbag3
(g4
g5
Ntp4185
Rp4186
(dp4187
g9
Vhttp://avatars.yandex.net/get-tv-shows/1333715281884M92118/orig
p4188
sg11
V\u043d\u0430\u0448\u0435 \u043d\u043e\u0432\u043e\u0435 \u043a\u0438\u043d\u043e \u0423\u043a\u0440\u0430\u0438\u043d\u0430
p4189
sg13
Vhttp://tv.yandex.ua/187/channels/485
p4190
sbag3
(g4
g5
Ntp4191
Rp4192
(dp4193
g9
Vhttp://avatars.yandex.net/get-tv-channel-logos/1362054668561M49179/small
p4194
sg11
Vanimal planet \u0420\u043e\u0441\u0441\u0438\u044f
p4195
sg13
Vhttp://tv.yandex.ua/213/channels/990
p4196
sbag3
(g4
g5
Ntp4197
Rp4198
(dp4199
g9
Vhttp://avatars.yandex.net/get-tv-shows/1333712701189M79995/orig
p4200
sg11
Venglish club \u0423\u043a\u0440\u0430\u0438\u043d\u0430
p4201
sg13
Vhttp://tv.yandex.ua/187/channels/757
p4202
sbag3
(g4
g5
Ntp4203
Rp4204
(dp4205
g9
Vhttp://avatars.yandex.net/get-tv-shows/1333713946027M27822/orig
p4206
sg11
V34 \u0442\u0435\u043b\u0435\u043a\u0430\u043d\u0430\u043b \u0423\u043a\u0440\u0430\u0438\u043d\u0430
p4207
sg13
Vhttp://tv.yandex.ua/187/channels/561
p4208
sbag3
(g4
g5
Ntp4209
Rp4210
(dp4211
g9
Vhttp://avatars.yandex.net/get-tv-channel-logos/1368535239323M73822/orig
p4212
sg11
V\u0442\u0435\u0430\u0442\u0440 \u0420\u043e\u0441\u0441\u0438\u044f
p4213
sg13
Vhttp://tv.yandex.ua/2/channels/925
p4214
sbag3
(g4
g5
Ntp4215
Rp4216
(dp4217
g9
Vhttp://avatars.yandex.net/get-tv-shows/1333713835801M19218/orig
p4218
sg11
V\u0444\u0435\u043d\u0438\u043a\u0441 + \u043a\u0438\u043d\u043e \u0420\u043e\u0441\u0441\u0438\u044f
p4219
sg13
Vhttp://tv.yandex.ua/213/channels/686
p4220
sbag3
(g4
g5
Ntp4221
Rp4222
(dp4223
g9
Vhttp://avatars.yandex.net/get-tv-channel-logos/1354613569498M70821/orig
p4224
sg11
Vcbs reality \u0420\u043e\u0441\u0441\u0438\u044f
p4225
sg13
Vhttp://tv.yandex.ua/2/channels/912
p4226
sbag3
(g4
g5
Ntp4227
Rp4228
(dp4229
g9
Vhttp://avatars.yandex.net/get-tv-channel-logos/1357918360691M18459/orig
p4230
sg11
Vgala x y \u0420\u043e\u0441\u0441\u0438\u044f
p4231
sg13
Vhttp://tv.yandex.ua/2/channels/924
p4232
sbag3
(g4
g5
Ntp4233
Rp4234
(dp4235
g9
Vhttp://avatars.yandex.net/get-tv-shows/1333713481818M96462/orig
p4236
sg11
Vlu x e tv \u0420\u043e\u0441\u0441\u0438\u044f
p4237
sg13
Vhttp://tv.yandex.ua/213/channels/442
p4238
sbag3
(g4
g5
Ntp4239
Rp4240
(dp4241
g9
Vhttp://avatars.yandex.net/get-tv-shows/1333709127662M17128/orig
p4242
sg11
V\u043d\u043e\u0441\u0442\u0430\u043b\u044c\u0433\u0438\u044f \u0423\u043a\u0440\u0430\u0438\u043d\u0430
p4243
sg13
Vhttp://tv.yandex.ua/187/channels/783
p4244
sbag3
(g4
g5
Ntp4245
Rp4246
(dp4247
g9
Vhttp://avatars.yandex.net/get-tv-channel-logos/1354613590167M12325/orig
p4248
sg11
Vcbs drama \u0420\u043e\u0441\u0441\u0438\u044f
p4249
sg13
Vhttp://tv.yandex.ua/213/channels/911
p4250
sbag3
(g4
g5
Ntp4251
Rp4252
(dp4253
g9
Vhttp://avatars.yandex.net/get-tv-channel-logos/1376043969739M84761/orig
p4254
sg11
V\u0440\u043e\u0441\u0441\u0438\u044f 2 \u0420\u043e\u0441\u0441\u0438\u044f
p4255
sg13
Vhttp://tv.yandex.ua/213/channels/515
p4256
sbag3
(g4
g5
Ntp4257
Rp4258
(dp4259
g9
Vhttp://avatars.yandex.net/get-tv-shows/1333715232241M630/orig
p4260
sg11
V\u043f\u0441\u0438 x \u043e\u043b\u043e\u0433\u0438\u044f 21 \u0423\u043a\u0440\u0430\u0438\u043d\u0430
p4261
sg13
Vhttp://tv.yandex.ua/187/channels/434
p4262
sbag3
(g4
g5
Ntp4263
Rp4264
(dp4265
g9
Vhttp://avatars.yandex.net/get-tv-shows/1333713483747M17455/orig
p4266
sg11
V\u0442\u0435\u043b\u0435\u043a\u0430\u043d\u0430\u043b 21 + \u0423\u043a\u0440\u0430\u0438\u043d\u0430
p4267
sg13
Vhttp://tv.yandex.ua/187/channels/492
p4268
sbag3
(g4
g5
Ntp4269
Rp4270
(dp4271
g9
Vhttp://avatars.yandex.net/get-tv-shows/1333716896322M65134/orig
p4272
sg11
Vbbc \u0420\u043e\u0441\u0441\u0438\u044f
p4273
sg13
Vhttp://tv.yandex.ua/213/channels/502
p4274
sbag3
(g4
g5
Ntp4275
Rp4276
(dp4277
g9
Vhttp://avatars.yandex.net/get-tv-shows/1333716724098M99858/orig
p4278
sg11
V\u043a\u0438\u043d\u043e\u043f\u043e\u043a\u0430\u0437 1 \u0420\u043e\u0441\u0441\u0438\u044f
p4279
sg13
Vhttp://tv.yandex.ua/213/channels/138
p4280
sbag3
(g4
g5
Ntp4281
Rp4282
(dp4283
g9
Vhttp://avatars.yandex.net/get-tv-channel-logos/1357920601762M75520/orig
p4284
sg11
V\u043e\u0441\u0442 \u0420\u043e\u0441\u0441\u0438\u044f
p4285
sg13
Vhttp://tv.yandex.ua/213/channels/926
p4286
sbag3
(g4
g5
Ntp4287
Rp4288
(dp4289
g9
Vhttp://avatars.yandex.net/get-tv-shows/1333715457097M72151/orig
p4290
sg11
V\u043e x \u043e\u0442\u0430 \u0438 \u0440\u044b\u0431\u0430\u043b\u043a\u0430 \u0420\u043e\u0441\u0441\u0438\u044f
p4291
sg13
Vhttp://tv.yandex.ua/2/channels/617
p4292
sbag3
(g4
g5
Ntp4293
Rp4294
(dp4295
g9
Vhttp://avatars.yandex.net/get-tv-shows/1333715305189M35114/orig
p4296
sg11
V\u043c\u0443\u0436\u0441\u043a\u043e\u0439 \u0420\u043e\u0441\u0441\u0438\u044f
p4297
sg13
Vhttp://tv.yandex.ua/2/channels/82
p4298
sbag3
(g4
g5
Ntp4299
Rp4300
(dp4301
g9
Vhttp://avatars.yandex.net/get-tv-channel-logos/1376043644426M13305/orig
p4302
sg11
V\u0440\u0435\u043d \u0420\u043e\u0441\u0441\u0438\u044f
p4303
sg13
Vhttp://tv.yandex.ua/213/channels/18
p4304
sbag3
(g4
g5
Ntp4305
Rp4306
(dp4307
g9
Vhttp://avatars.yandex.net/get-tv-shows/1333715457097M72151/orig
p4308
sg11
V\u043e x \u043e\u0442\u0430 \u0438 \u0440\u044b\u0431\u0430\u043b\u043a\u0430 \u0423\u043a\u0440\u0430\u0438\u043d\u0430
p4309
sg13
Vhttp://tv.yandex.ua/187/channels/617
p4310
sbag3
(g4
g5
Ntp4311
Rp4312
(dp4313
g9
Vhttp://avatars.yandex.net/get-tv-shows/1333715462882M95375/orig
p4314
sg11
Vjimjam \u0420\u043e\u0441\u0441\u0438\u044f
p4315
sg13
Vhttp://tv.yandex.ua/2/channels/494
p4316
sbag3
(g4
g5
Ntp4317
Rp4318
(dp4319
g9
Vhttp://avatars.yandex.net/get-tv-shows/1333713160319M54984/orig
p4320
sg11
V\u0436\u0438\u0432\u0438 \u0420\u043e\u0441\u0441\u0438\u044f
p4321
sg13
Vhttp://tv.yandex.ua/213/channels/113
p4322
sbag3
(g4
g5
Ntp4323
Rp4324
(dp4325
g9
Vhttp://avatars.yandex.net/get-tv-shows/1333715630513M36394/orig
p4326
sg11
V\u043d \u0442\u0432 + \u0444\u0443\u0442\u0431\u043e\u043b \u0420\u043e\u0441\u0441\u0438\u044f
p4327
sg13
Vhttp://tv.yandex.ua/2/channels/664
p4328
sbag3
(g4
g5
Ntp4329
Rp4330
(dp4331
g9
Vhttp://avatars.yandex.net/get-tv-shows/1333715412490M65597/orig
p4332
sg11
Vrussia today \u0420\u043e\u0441\u0441\u0438\u044f
p4333
sg13
Vhttp://tv.yandex.ua/2/channels/313
p4334
sbag3
(g4
g5
Ntp4335
Rp4336
(dp4337
g9
Vhttp://avatars.yandex.net/get-tv-shows/1333715232874M54663/orig
p4338
sg11
V\u043d\u0430\u043d\u043e \u0423\u043a\u0440\u0430\u0438\u043d\u0430
p4339
sg13
Vhttp://tv.yandex.ua/187/channels/35
p4340
sbag3
(g4
g5
Ntp4341
Rp4342
(dp4343
g9
Vhttp://avatars.yandex.net/get-tv-shows/1333708746764M31248/orig
p4344
sg11
V\u043d\u0435\u0434\u0432\u0438\u0436\u0438\u043c\u043e\u0441\u0442\u044c \u0420\u043e\u0441\u0441\u0438\u044f
p4345
sg13
Vhttp://tv.yandex.ua/2/channels/552
p4346
sbag3
(g4
g5
Ntp4347
Rp4348
(dp4349
g9
Vhttp://avatars.yandex.net/get-tv-channel-logos/1373972048303M89132/orig
p4350
sg11
V\u043f\u0430\u0440\u043a \u0440\u0430\u0437\u0432\u043b\u0435\u0447\u0435\u043d\u0438\u0439 \u0423\u043a\u0440\u0430\u0438\u043d\u0430
p4351
sg13
Vhttp://tv.yandex.ua/187/channels/37
p4352
sbag3
(g4
g5
Ntp4353
Rp4354
(dp4355
g9
Vhttp://avatars.yandex.net/get-tv-channel-logos/1363334808588M99509/orig
p4356
sg11
V\u0441\u0442\u0441 \u0420\u043e\u0441\u0441\u0438\u044f
p4357
sg13
Vhttp://tv.yandex.ua/213/channels/79
p4358
sbag3
(g4
g5
Ntp4359
Rp4360
(dp4361
g9
Vhttp://avatars.yandex.net/get-tv-shows/1333715457146M21776/orig
p4362
sg11
Vmusicbo x ru \u0420\u043e\u0441\u0441\u0438\u044f
p4363
sg13
Vhttp://tv.yandex.ua/2/channels/25
p4364
sbag3
(g4
g5
Ntp4365
Rp4366
(dp4367
g9
Vhttp://avatars.yandex.net/get-tv-shows/1333707582031M183/orig
p4368
sg11
V\u043f\u0440\u0435\u043c\u044c\u0435\u0440\u0430 \u0420\u043e\u0441\u0441\u0438\u044f
p4369
sg13
Vhttp://tv.yandex.ua/213/channels/566
p4370
sbag3
(g4
g5
Ntp4371
Rp4372
(dp4373
g9
Vhttp://avatars.yandex.net/get-tv-shows/1333707582031M183/orig
p4374
sg11
V\u043f\u0440\u0435\u043c\u044c\u0435\u0440\u0430 \u0423\u043a\u0440\u0430\u0438\u043d\u0430
p4375
sg13
Vhttp://tv.yandex.ua/187/channels/566
p4376
sbag3
(g4
g5
Ntp4377
Rp4378
(dp4379
g9
Vhttp://avatars.yandex.net/get-tv-shows/1333707984831M90146/orig
p4380
sg11
V\u043c\u0438\u0440 \u0441\u0435\u0440\u0438\u0430\u043b\u0430 \u0420\u043e\u0441\u0441\u0438\u044f
p4381
sg13
Vhttp://tv.yandex.ua/213/channels/145
p4382
sbag3
(g4
g5
Ntp4383
Rp4384
(dp4385
g9
Vhttp://avatars.yandex.net/get-tv-shows/1333716796927M20496/orig
p4386
sg11
Vab moteurs \u0420\u043e\u0441\u0441\u0438\u044f
p4387
sg13
Vhttp://tv.yandex.ua/2/channels/579
p4388
sbag3
(g4
g5
Ntp4389
Rp4390
(dp4391
g9
Vhttp://avatars.yandex.net/get-tv-shows/1333713580540M89714/orig
p4392
sg11
V\u043f\u0435\u0440\u0432\u044b\u0439 \u0420\u043e\u0441\u0441\u0438\u044f
p4393
sg13
Vhttp://tv.yandex.ua/213/channels/146
p4394
sbag3
(g4
g5
Ntp4395
Rp4396
(dp4397
g9
Vhttp://avatars.yandex.net/get-tv-shows/1333715434657M29292/orig
p4398
sg11
V\u043d \u0442\u0432 + \u0441\u043f\u043e\u0440\u0442 \u0420\u043e\u0441\u0441\u0438\u044f
p4399
sg13
Vhttp://tv.yandex.ua/2/channels/134
p4400
sbag3
(g4
g5
Ntp4401
Rp4402
(dp4403
g9
Vhttp://avatars.yandex.net/get-tv-shows/1333716057211M42929/orig
p4404
sg11
V\u043a\u0438\u043d\u043e + \u0423\u043a\u0440\u0430\u0438\u043d\u0430
p4405
sg13
Vhttp://tv.yandex.ua/187/channels/644
p4406
sbag3
(g4
g5
Ntp4407
Rp4408
(dp4409
g9
Vhttp://avatars.yandex.net/get-tv-shows/1333708977916M89754/orig
p4410
sg11
V\u0442\u0431\u043d \u0420\u043e\u0441\u0441\u0438\u044f
p4411
sg13
Vhttp://tv.yandex.ua/2/channels/576
p4412
sbag3
(g4
g5
Ntp4413
Rp4414
(dp4415
g9
Vhttp://avatars.yandex.net/get-tv-channel-logos/1376043882964M61429/orig
p4416
sg11
V\u0440\u043e\u0441\u0441\u0438\u044f 1 \u0420\u043e\u0441\u0441\u0438\u044f
p4417
sg13
Vhttp://tv.yandex.ua/2/channels/317
p4418
sbag3
(g4
g5
Ntp4419
Rp4420
(dp4421
g9
Vhttp://avatars.yandex.net/get-tv-channel-logos/1356772326416M40210/orig
p4422
sg11
V\u043f\u0435\u0440\u0432\u044b\u0439 \u0438\u043d\u0442\u0435\u0440\u043d\u0435\u0442 \u0420\u043e\u0441\u0441\u0438\u044f
p4423
sg13
Vhttp://tv.yandex.ua/2/channels/922
p4424
sbag3
(g4
g5
Ntp4425
Rp4426
(dp4427
g9
Vhttp://avatars.yandex.net/get-tv-channel-logos/1357913701365M55366/orig
p4428
sg11
Vsony turbo \u0420\u043e\u0441\u0441\u0438\u044f
p4429
sg13
Vhttp://tv.yandex.ua/213/channels/935
p4430
sbag3
(g4
g5
Ntp4431
Rp4432
(dp4433
g9
Vhttp://avatars.yandex.net/get-tv-shows/1333708713306M38200/orig
p4434
sg11
Vtiji \u0420\u043e\u0441\u0441\u0438\u044f
p4435
sg13
Vhttp://tv.yandex.ua/213/channels/555
p4436
sbag3
(g4
g5
Ntp4437
Rp4438
(dp4439
g9
Vhttp://avatars.yandex.net/get-tv-shows/1333712861918M74194/orig
p4440
sg11
V\u0440\u0430\u0434\u043e\u0441\u0442\u044c \u043c\u043e\u044f \u0423\u043a\u0440\u0430\u0438\u043d\u0430
p4441
sg13
Vhttp://tv.yandex.ua/187/channels/638
p4442
sbag3
(g4
g5
Ntp4443
Rp4444
(dp4445
g9
Vhttp://avatars.yandex.net/get-tv-shows/1333713578373M76326/orig
p4446
sg11
Vbridge \u0420\u043e\u0441\u0441\u0438\u044f
p4447
sg13
Vhttp://tv.yandex.ua/2/channels/151
p4448
sbag3
(g4
g5
Ntp4449
Rp4450
(dp4451
g9
Vhttp://avatars.yandex.net/get-tv-shows/1333713868645M58659/orig
p4452
sg11
Vcnn \u0420\u043e\u0441\u0441\u0438\u044f
p4453
sg13
Vhttp://tv.yandex.ua/213/channels/495
p4454
sbag3
(g4
g5
Ntp4455
Rp4456
(dp4457
g9
Vhttp://avatars.yandex.net/get-tv-channel-logos/1356771171081M25756/orig
p4458
sg11
V\u0434\u0435\u0442\u0441\u043a\u0438\u0439 \u043c\u0438\u0440 \u0423\u043a\u0440\u0430\u0438\u043d\u0430
p4459
sg13
Vhttp://tv.yandex.ua/187/channels/747
p4460
sbag3
(g4
g5
Ntp4461
Rp4462
(dp4463
g9
Vhttp://avatars.yandex.net/get-tv-channel-logos/1368788546205M17763/orig
p4464
sg11
V\u0440\u0431\u043a \u0423\u043a\u0440\u0430\u0438\u043d\u0430
p4465
sg13
Vhttp://tv.yandex.ua/187/channels/743
p4466
sbag3
(g4
g5
Ntp4467
Rp4468
(dp4469
g9
Vhttp://avatars.yandex.net/get-tv-channel-logos/1357919285434M73777/orig
p4470
sg11
Vnhk world \u0420\u043e\u0441\u0441\u0438\u044f
p4471
sg13
Vhttp://tv.yandex.ua/2/channels/921
p4472
sbag3
(g4
g5
Ntp4473
Rp4474
(dp4475
g9
Vhttp://avatars.yandex.net/get-tv-shows/1333713176648M89316/orig
p4476
sg11
Vtv 1000 action \u0420\u043e\u0441\u0441\u0438\u044f
p4477
sg13
Vhttp://tv.yandex.ua/213/channels/125
p4478
sbag3
(g4
g5
Ntp4479
Rp4480
(dp4481
g9
Vhttp://avatars.yandex.net/get-tv-shows/1333715632130M79158/orig
p4482
sg11
V\u0442\u043d\u0432 \u0420\u043e\u0441\u0441\u0438\u044f
p4483
sg13
Vhttp://tv.yandex.ua/213/channels/180
p4484
sbag3
(g4
g5
Ntp4485
Rp4486
(dp4487
g9
Vhttp://avatars.yandex.net/get-tv-shows/1333709116007M94471/orig
p4488
sg11
V\u0440\u0443\u0441\u0441\u043a\u0438\u0439 \u044d\u043a\u0441\u0442\u0440\u0438\u043c \u0420\u043e\u0441\u0441\u0438\u044f
p4489
sg13
Vhttp://tv.yandex.ua/213/channels/406
p4490
sbag3
(g4
g5
Ntp4491
Rp4492
(dp4493
g9
Vhttp://avatars.yandex.net/get-tv-shows/1333713698572M2584/orig
p4494
sg11
Vmezzo live \u0420\u043e\u0441\u0441\u0438\u044f
p4495
sg13
Vhttp://tv.yandex.ua/213/channels/801
p4496
sbag3
(g4
g5
Ntp4497
Rp4498
(dp4499
g9
Vhttp://avatars.yandex.net/get-tv-shows/1333713751068M18827/orig
p4500
sg11
Vcnbc \u0423\u043a\u0440\u0430\u0438\u043d\u0430
p4501
sg13
Vhttp://tv.yandex.ua/187/channels/831
p4502
sbag3
(g4
g5
Ntp4503
Rp4504
(dp4505
g9
Vhttp://avatars.yandex.net/get-tv-shows/1333708053915M20046/orig
p4506
sg11
V\u043c\u043d\u043e\u0433\u043e \u0420\u043e\u0441\u0441\u0438\u044f
p4507
sg13
Vhttp://tv.yandex.ua/2/channels/799
p4508
sbag3
(g4
g5
Ntp4509
Rp4510
(dp4511
g9
Vhttp://avatars.yandex.net/get-tv-channel-logos/1348587808200M68387/orig
p4512
sg11
V\u0440\u0443\u0441\u0441\u043a\u0438\u0439 \u0438\u043b\u043b\u044e\u0437\u0438\u043e\u043d \u0423\u043a\u0440\u0430\u0438\u043d\u0430
p4513
sg13
Vhttp://tv.yandex.ua/187/channels/53
p4514
sbag3
(g4
g5
Ntp4515
Rp4516
(dp4517
g9
Vhttp://avatars.yandex.net/get-tv-shows/1333716896322M65134/orig
p4518
sg11
Vbbc \u0420\u043e\u0441\u0441\u0438\u044f
p4519
sg13
Vhttp://tv.yandex.ua/2/channels/502
p4520
sbag3
(g4
g5
Ntp4521
Rp4522
(dp4523
g9
Vhttp://avatars.yandex.net/get-tv-channel-logos/1376043255845M78983/orig
p4524
sg11
V\u0446\u0435\u043d\u0442\u0440 \u043e \u0442\u0432 \u0420\u043e\u0441\u0441\u0438\u044f
p4525
sg13
Vhttp://tv.yandex.ua/2/channels/287
p4526
sbag3
(g4
g5
Ntp4527
Rp4528
(dp4529
g9
Vhttp://avatars.yandex.net/get-tv-shows/1333715921518M78285/orig
p4530
sg11
V\u044e\u043d\u0438\u043e\u043d \u0423\u043a\u0440\u0430\u0438\u043d\u0430
p4531
sg13
Vhttp://tv.yandex.ua/187/channels/90
p4532
sbag3
(g4
g5
Ntp4533
Rp4534
(dp4535
g9
Vhttp://avatars.yandex.net/get-tv-shows/1333707836435M19145/orig
p4536
sg11
V\u043c\u0443\u043b\u044c\u0442\u0438\u043c\u0430\u043d\u0438\u044f \u0423\u043a\u0440\u0430\u0438\u043d\u0430
p4537
sg13
Vhttp://tv.yandex.ua/187/channels/31
p4538
sbag3
(g4
g5
Ntp4539
Rp4540
(dp4541
g9
Vhttp://avatars.yandex.net/get-tv-shows/1333716732901M35094/orig
p4542
sg11
V\u043e\u0442\u043a\u0440\u044b\u0442\u044b\u0439 \u043c\u0438\u0440 \u0420\u043e\u0441\u0441\u0438\u044f
p4543
sg13
Vhttp://tv.yandex.ua/213/channels/39
p4544
sbag3
(g4
g5
Ntp4545
Rp4546
(dp4547
g9
Vhttp://avatars.yandex.net/get-tv-channel-logos/1356772679907M96463/orig
p4548
sg11
Vmgm \u0420\u043e\u0441\u0441\u0438\u044f
p4549
sg13
Vhttp://tv.yandex.ua/2/channels/934
p4550
sbag3
(g4
g5
Ntp4551
Rp4552
(dp4553
g9
Vhttp://avatars.yandex.net/get-tv-channel-logos/1373972048303M89132/orig
p4554
sg11
V\u043f\u0430\u0440\u043a \u0440\u0430\u0437\u0432\u043b\u0435\u0447\u0435\u043d\u0438\u0439 \u0420\u043e\u0441\u0441\u0438\u044f
p4555
sg13
Vhttp://tv.yandex.ua/213/channels/37
p4556
sbag3
(g4
g5
Ntp4557
Rp4558
(dp4559
g9
Vhttp://avatars.yandex.net/get-tv-shows/1333713976352M79712/orig
p4560
sg11
Vnewsone \u0420\u043e\u0441\u0441\u0438\u044f
p4561
sg13
Vhttp://tv.yandex.ua/2/channels/247
p4562
sbag3
(g4
g5
Ntp4563
Rp4564
(dp4565
g9
Vhttp://avatars.yandex.net/get-tv-shows/1333715595667M50557/orig
p4566
sg11
Vr tv i \u0420\u043e\u0441\u0441\u0438\u044f
p4567
sg13
Vhttp://tv.yandex.ua/2/channels/76
p4568
sbag3
(g4
g5
Ntp4569
Rp4570
(dp4571
g9
Vhttp://avatars.yandex.net/get-tv-shows/1333709116007M94471/orig
p4572
sg11
V\u0440\u0443\u0441\u0441\u043a\u0438\u0439 \u044d\u043a\u0441\u0442\u0440\u0438\u043c \u0423\u043a\u0440\u0430\u0438\u043d\u0430
p4573
sg13
Vhttp://tv.yandex.ua/187/channels/406
p4574
sbag3
(g4
g5
Ntp4575
Rp4576
(dp4577
g9
Vhttp://avatars.yandex.net/get-tv-shows/1333717651949M12497/orig
p4578
sg11
V\u0444\u0443\u0442\u0431\u043e\u043b \u0423\u043a\u0440\u0430\u0438\u043d\u0430
p4579
sg13
Vhttp://tv.yandex.ua/187/channels/328
p4580
sbag3
(g4
g5
Ntp4581
Rp4582
(dp4583
g9
Vhttp://avatars.yandex.net/get-tv-channel-logos/1349444212217M99907/orig
p4584
sg11
V\u043d \u0442\u0432 + \u043d\u0430\u0448 \u0444\u0443\u0442\u0431\u043e\u043b \u0420\u043e\u0441\u0441\u0438\u044f
p4585
sg13
Vhttp://tv.yandex.ua/2/channels/499
p4586
sbag3
(g4
g5
Ntp4587
Rp4588
(dp4589
g9
Vhttp://avatars.yandex.net/get-tv-shows/1333713580540M89714/orig
p4590
sg11
V\u043f\u0435\u0440\u0432\u044b\u0439 \u0420\u043e\u0441\u0441\u0438\u044f
p4591
sg13
Vhttp://tv.yandex.ua/2/channels/146
p4592
sbag3
(g4
g5
Ntp4593
Rp4594
(dp4595
g9
Vhttp://avatars.yandex.net/get-tv-channel-logos/1335334386799M30858/orig
p4596
sg11
Vdisney \u0420\u043e\u0441\u0441\u0438\u044f
p4597
sg13
Vhttp://tv.yandex.ua/213/channels/150
p4598
sbag3
(g4
g5
Ntp4599
Rp4600
(dp4601
g9
Vhttp://avatars.yandex.net/get-tv-channel-logos/1357918253235M64900/orig
p4602
sg11
Vfashion one \u0420\u043e\u0441\u0441\u0438\u044f
p4603
sg13
Vhttp://tv.yandex.ua/2/channels/919
p4604
sbag3
(g4
g5
Ntp4605
Rp4606
(dp4607
g9
Vhttp://avatars.yandex.net/get-tv-shows/1333713774748M13525/orig
p4608
sg11
Vbloomberg \u0420\u043e\u0441\u0441\u0438\u044f
p4609
sg13
Vhttp://tv.yandex.ua/213/channels/463
p4610
sbag3
(g4
g5
Ntp4611
Rp4612
(dp4613
g9
Vhttp://avatars.yandex.net/get-tv-shows/1333713174626M97345/orig
p4614
sg11
Vman \u0423\u043a\u0440\u0430\u0438\u043d\u0430
p4615
sg13
Vhttp://tv.yandex.ua/187/channels/15
p4616
sbag3
(g4
g5
Ntp4617
Rp4618
(dp4619
g9
Vhttp://avatars.yandex.net/get-tv-channel-logos/1347458235853M37527/orig
p4620
sg11
V\u0441\u0430\u0440\u0430\u0444\u0430\u043d \u0423\u043a\u0440\u0430\u0438\u043d\u0430
p4621
sg13
Vhttp://tv.yandex.ua/187/channels/663
p4622
sbag3
(g4
g5
Ntp4623
Rp4624
(dp4625
g9
Vhttp://avatars.yandex.net/get-tv-channel-logos/1335163832298M56121/orig
p4626
sg11
V\u043d \u0442\u0432 \u043f\u0435\u0442\u0435\u0440\u0431\u0443\u0440\u0433 \u0420\u043e\u0441\u0441\u0438\u044f
p4627
sg13
Vhttp://tv.yandex.ua/2/channels/137
p4628
sbag3
(g4
g5
Ntp4629
Rp4630
(dp4631
g9
Vhttp://avatars.yandex.net/get-tv-shows/1333713868645M58659/orig
p4632
sg11
Vcnn \u0423\u043a\u0440\u0430\u0438\u043d\u0430
p4633
sg13
Vhttp://tv.yandex.ua/187/channels/495
p4634
sbag3
(g4
g5
Ntp4635
Rp4636
(dp4637
g9
Vhttp://avatars.yandex.net/get-tv-channel-logos/1374564467275M71365/orig
p4638
sg11
Vamedia 2 \u0420\u043e\u0441\u0441\u0438\u044f
p4639
sg13
Vhttp://tv.yandex.ua/2/channels/918
p4640
sbag3
(g4
g5
Ntp4641
Rp4642
(dp4643
g9
Vhttp://avatars.yandex.net/get-tv-shows/1333708764683M58437/orig
p4644
sg11
V\u043d \u0442\u0432 + \u0444\u0443\u0442\u0431\u043e\u043b 2 \u0420\u043e\u0441\u0441\u0438\u044f
p4645
sg13
Vhttp://tv.yandex.ua/213/channels/563
p4646
sbag3
(g4
g5
Ntp4647
Rp4648
(dp4649
g9
Vhttp://avatars.yandex.net/get-tv-shows/1333716796927M20496/orig
p4650
sg11
Vab moteurs \u0423\u043a\u0440\u0430\u0438\u043d\u0430
p4651
sg13
Vhttp://tv.yandex.ua/187/channels/579
p4652
sbag3
(g4
g5
Ntp4653
Rp4654
(dp4655
g9
Vhttp://avatars.yandex.net/get-tv-shows/1333716825980M37994/orig
p4656
sg11
Vm tv hits \u0420\u043e\u0441\u0441\u0438\u044f
p4657
sg13
Vhttp://tv.yandex.ua/213/channels/849
p4658
sbag3
(g4
g5
Ntp4659
Rp4660
(dp4661
g9
Vhttp://avatars.yandex.net/get-tv-shows/1333715451260M61766/orig
p4662
sg11
Vc music \u0423\u043a\u0440\u0430\u0438\u043d\u0430
p4663
sg13
Vhttp://tv.yandex.ua/187/channels/319
p4664
sbag3
(g4
g5
Ntp4665
Rp4666
(dp4667
g9
Vhttp://avatars.yandex.net/get-tv-shows/1333713528423M49234/orig
p4668
sg11
Vuniversal \u0423\u043a\u0440\u0430\u0438\u043d\u0430
p4669
sg13
Vhttp://tv.yandex.ua/187/channels/213
p4670
sbag3
(g4
g5
Ntp4671
Rp4672
(dp4673
g9
Vhttp://avatars.yandex.net/get-tv-shows/1333713216376M58195/orig
p4674
sg11
V\u0441\u043f\u0430\u0441 \u0423\u043a\u0440\u0430\u0438\u043d\u0430
p4675
sg13
Vhttp://tv.yandex.ua/187/channels/447
p4676
sbag3
(g4
g5
Ntp4677
Rp4678
(dp4679
g9
Vhttp://avatars.yandex.net/get-tv-shows/1333712702253M97202/orig
p4680
sg11
V\u0437\u0430\u0433\u043e\u0440\u043e\u0434\u043d\u0430\u044f \u0436\u0438\u0437\u043d\u044c \u0420\u043e\u0441\u0441\u0438\u044f
p4681
sg13
Vhttp://tv.yandex.ua/213/channels/21
p4682
sbag3
(g4
g5
Ntp4683
Rp4684
(dp4685
g9
Vhttp://avatars.yandex.net/get-tv-shows/1333715287454M38977/orig
p4686
sg11
V\u043a\u0443\u043b\u044c\u0442\u0443\u0440\u0430 \u0420\u043e\u0441\u0441\u0438\u044f
p4687
sg13
Vhttp://tv.yandex.ua/2/channels/371
p4688
sbag3
(g4
g5
Ntp4689
Rp4690
(dp4691
g9
Vhttp://avatars.yandex.net/get-tv-shows/1333709317667M77343/orig
p4692
sg11
Vnational geographic \u0420\u043e\u0441\u0441\u0438\u044f
p4693
sg13
Vhttp://tv.yandex.ua/213/channels/389
p4694
sbag3
(g4
g5
Ntp4695
Rp4696
(dp4697
g9
Vhttp://avatars.yandex.net/get-tv-shows/1333715190027M56768/orig
p4698
sg11
V\u0441\u043f\u043e\u0440\u0442 1 \u0420\u043e\u0441\u0441\u0438\u044f
p4699
sg13
Vhttp://tv.yandex.ua/213/channels/554
p4700
sbag3
(g4
g5
Ntp4701
Rp4702
(dp4703
g9
Vhttp://avatars.yandex.net/get-tv-shows/1333713433570M85481/orig
p4704
sg11
Vnat geo wild \u0423\u043a\u0440\u0430\u0438\u043d\u0430
p4705
sg13
Vhttp://tv.yandex.ua/187/channels/223
p4706
sbag3
(g4
g5
Ntp4707
Rp4708
(dp4709
g9
Vhttp://avatars.yandex.net/get-tv-channel-logos/1348587808200M68387/orig
p4710
sg11
V\u0440\u0443\u0441\u0441\u043a\u0438\u0439 \u0438\u043b\u043b\u044e\u0437\u0438\u043e\u043d \u0420\u043e\u0441\u0441\u0438\u044f
p4711
sg13
Vhttp://tv.yandex.ua/213/channels/53
p4712
sbag3
(g4
g5
Ntp4713
Rp4714
(dp4715
g9
Vhttp://avatars.yandex.net/get-tv-shows/1333707965006M57212/orig
p4716
sg11
V\u0437\u0430\u043a\u043e\u043d \u0420\u043e\u0441\u0441\u0438\u044f
p4717
sg13
Vhttp://tv.yandex.ua/213/channels/178
p4718
sbag3
(g4
g5
Ntp4719
Rp4720
(dp4721
g9
Vhttp://avatars.yandex.net/get-tv-shows/1333715635729M66606/orig
p4722
sg11
Vviasat e x plorer \u0423\u043a\u0440\u0430\u0438\u043d\u0430
p4723
sg13
Vhttp://tv.yandex.ua/187/channels/521
p4724
sbag3
(g4
g5
Ntp4725
Rp4726
(dp4727
g9
Vhttp://avatars.yandex.net/get-tv-shows/1333715467716M44576/orig
p4728
sg11
V\u0441\u043f\u043e\u0440\u0442 1 \u0423\u043a\u0440\u0430\u0438\u043d\u0430
p4729
sg13
Vhttp://tv.yandex.ua/187/channels/181
p4730
sbag3
(g4
g5
Ntp4731
Rp4732
(dp4733
g9
Vhttp://avatars.yandex.net/get-tv-shows/1333716791539M48053/orig
p4734
sg11
Vtdk \u0420\u043e\u0441\u0441\u0438\u044f
p4735
sg13
Vhttp://tv.yandex.ua/2/channels/776
p4736
sbag3
(g4
g5
Ntp4737
Rp4738
(dp4739
g9
Vhttp://avatars.yandex.net/get-tv-channel-logos/1374053775778M12226/small
p4740
sg11
Vimage \u0423\u043a\u0440\u0430\u0438\u043d\u0430
p4741
sg13
Vhttp://tv.yandex.ua/187/channels/1016
p4742
sbag3
(g4
g5
Ntp4743
Rp4744
(dp4745
g9
Vhttp://avatars.yandex.net/get-tv-channel-logos/1376043969739M84761/orig
p4746
sg11
V\u0440\u043e\u0441\u0441\u0438\u044f 2 \u0420\u043e\u0441\u0441\u0438\u044f
p4747
sg13
Vhttp://tv.yandex.ua/2/channels/515
p4748
sbag3
(g4
g5
Ntp4749
Rp4750
(dp4751
g9
Vhttp://avatars.yandex.net/get-tv-shows/1333712756259M40685/orig
p4752
sg11
V\u0441\u043e\u0432\u0435\u0440\u0448\u0435\u043d\u043d\u043e \u0441\u0435\u043a\u0440\u0435\u0442\u043d\u043e \u0420\u043e\u0441\u0441\u0438\u044f
p4753
sg13
Vhttp://tv.yandex.ua/213/channels/275
p4754
sbag3
(g4
g5
Ntp4755
Rp4756
(dp4757
g9
Vhttp://avatars.yandex.net/get-tv-shows/1333713680513M60480/orig
p4758
sg11
V\u043d \u0442\u0432 + \u0441\u043f\u043e\u0440\u0442 + \u0420\u043e\u0441\u0441\u0438\u044f
p4759
sg13
Vhttp://tv.yandex.ua/2/channels/377
p4760
sbag3
(g4
g5
Ntp4761
Rp4762
(dp4763
g9
Vhttp://avatars.yandex.net/get-tv-channel-logos/1349444212217M99907/orig
p4764
sg11
V\u043d \u0442\u0432 + \u043d\u0430\u0448 \u0444\u0443\u0442\u0431\u043e\u043b \u0423\u043a\u0440\u0430\u0438\u043d\u0430
p4765
sg13
Vhttp://tv.yandex.ua/187/channels/499
p4766
sbag3
(g4
g5
Ntp4767
Rp4768
(dp4769
g9
Vhttp://avatars.yandex.net/get-tv-channel-logos/1368788546205M17763/orig
p4770
sg11
V\u0440\u0431\u043a \u0420\u043e\u0441\u0441\u0438\u044f
p4771
sg13
Vhttp://tv.yandex.ua/213/channels/743
p4772
sbag3
(g4
g5
Ntp4773
Rp4774
(dp4775
g9
Vhttp://avatars.yandex.net/get-tv-channel-logos/1357919415462M55430/orig
p4776
sg11
Vnick jr \u0420\u043e\u0441\u0441\u0438\u044f
p4777
sg13
Vhttp://tv.yandex.ua/2/channels/917
p4778
sbag3
(g4
g5
Ntp4779
Rp4780
(dp4781
g9
Vhttp://avatars.yandex.net/get-tv-channel-logos/1368008780295M56858/orig
p4782
sg11
V\u0441\u0442\u0440\u0430\u043d\u0430 \u0420\u043e\u0441\u0441\u0438\u044f
p4783
sg13
Vhttp://tv.yandex.ua/2/channels/284
p4784
sbag3
(g4
g5
Ntp4785
Rp4786
(dp4787
g9
Vhttp://avatars.yandex.net/get-tv-shows/1333715984312M65283/orig
p4788
sg11
V\u0442\u0435\u043b\u0435\u043a\u0430\u0444\u0435 \u0423\u043a\u0440\u0430\u0438\u043d\u0430
p4789
sg13
Vhttp://tv.yandex.ua/187/channels/173
p4790
sbag3
(g4
g5
Ntp4791
Rp4792
(dp4793
g9
Vhttp://avatars.yandex.net/get-tv-shows/1333713460684M81763/orig
p4794
sg11
Vcartoon network \u0420\u043e\u0441\u0441\u0438\u044f
p4795
sg13
Vhttp://tv.yandex.ua/213/channels/601
p4796
sbag3
(g4
g5
Ntp4797
Rp4798
(dp4799
g9
Vhttp://avatars.yandex.net/get-tv-channel-logos/1357908652792M87979/orig
p4800
sg11
V\u0438\u043d\u0432\u0430 \u043c\u0435\u0434\u0438\u0430 \u0420\u043e\u0441\u0441\u0438\u044f
p4801
sg13
Vhttp://tv.yandex.ua/2/channels/916
p4802
sbag3
(g4
g5
Ntp4803
Rp4804
(dp4805
g9
Vhttp://avatars.yandex.net/get-tv-shows/1333715204463M59925/orig
p4806
sg11
Veurosport \u0420\u043e\u0441\u0441\u0438\u044f
p4807
sg13
Vhttp://tv.yandex.ua/213/channels/560
p4808
sbag3
(g4
g5
Ntp4809
Rp4810
(dp4811
g9
Vhttp://avatars.yandex.net/get-tv-shows/1333713694458M58917/orig
p4812
sg11
Vm tv music \u0420\u043e\u0441\u0441\u0438\u044f
p4813
sg13
Vhttp://tv.yandex.ua/2/channels/430
p4814
sbag3
(g4
g5
Ntp4815
Rp4816
(dp4817
g9
Vhttp://avatars.yandex.net/get-tv-shows/1333708713306M38200/orig
p4818
sg11
Vtiji \u0420\u043e\u0441\u0441\u0438\u044f
p4819
sg13
Vhttp://tv.yandex.ua/2/channels/555
p4820
sbag3
(g4
g5
Ntp4821
Rp4822
(dp4823
g9
Vhttp://avatars.yandex.net/get-tv-shows/1333715265608M77219/orig
p4824
sg11
Vbbc world \u0420\u043e\u0441\u0441\u0438\u044f
p4825
sg13
Vhttp://tv.yandex.ua/213/channels/828
p4826
sbag3
(g4
g5
Ntp4827
Rp4828
(dp4829
g9
Vhttp://avatars.yandex.net/get-tv-channel-logos/1358325521945M33990/orig
p4830
sg11
V\u0431\u0435\u043b\u0430\u0440\u0443\u0441\u044c 24 \u0420\u043e\u0441\u0441\u0438\u044f
p4831
sg13
Vhttp://tv.yandex.ua/2/channels/851
p4832
sbag3
(g4
g5
Ntp4833
Rp4834
(dp4835
g9
Vhttp://avatars.yandex.net/get-tv-shows/1333713644403M21507/orig
p4836
sg11
Vviasat nature cee \u0423\u043a\u0440\u0430\u0438\u043d\u0430
p4837
sg13
Vhttp://tv.yandex.ua/187/channels/765
p4838
sbag3
(g4
g5
Ntp4839
Rp4840
(dp4841
g9
Vhttp://avatars.yandex.net/get-tv-channel-logos/1369922495509M73801/orig
p4842
sg11
V\u043a\u0438\u043d\u043e \u0420\u043e\u0441\u0441\u0438\u044f
p4843
sg13
Vhttp://tv.yandex.ua/213/channels/987
p4844
sbag3
(g4
g5
Ntp4845
Rp4846
(dp4847
g9
Vhttp://avatars.yandex.net/get-tv-channel-logos/1362054668561M49179/small
p4848
sg11
Vanimal planet \u0420\u043e\u0441\u0441\u0438\u044f
p4849
sg13
Vhttp://tv.yandex.ua/2/channels/990
p4850
sbag3
(g4
g5
Ntp4851
Rp4852
(dp4853
g9
Vhttp://avatars.yandex.net/get-tv-channel-logos/1369922495509M73801/orig
p4854
sg11
V\u043a\u0438\u043d\u043e \u0420\u043e\u0441\u0441\u0438\u044f
p4855
sg13
Vhttp://tv.yandex.ua/2/channels/987
p4856
sbag3
(g4
g5
Ntp4857
Rp4858
(dp4859
g9
Vhttp://avatars.yandex.net/get-tv-shows/1333712862861M8549/orig
p4860
sg11
V\u0442\u0435\u043b\u0435\u043a\u043b\u0443\u0431 \u0423\u043a\u0440\u0430\u0438\u043d\u0430
p4861
sg13
Vhttp://tv.yandex.ua/187/channels/163
p4862
sbag3
(g4
g5
Ntp4863
Rp4864
(dp4865
g9
Vhttp://avatars.yandex.net/get-tv-shows/1333708147128M24922/orig
p4866
sg11
V\u043a\u0438\u043d\u043e\u043c\u0430\u043d\u0438\u044f \u0420\u043e\u0441\u0441\u0438\u044f
p4867
sg13
Vhttp://tv.yandex.ua/2/channels/646
p4868
sbag3
(g4
g5
Ntp4869
Rp4870
(dp4871
g9
Vhttp://avatars.yandex.net/get-tv-shows/1333715545258M24133/orig
p4872
sg11
Voutdoor \u0420\u043e\u0441\u0441\u0438\u044f
p4873
sg13
Vhttp://tv.yandex.ua/2/channels/322
p4874
sbag3
(g4
g5
Ntp4875
Rp4876
(dp4877
g9
Vhttp://avatars.yandex.net/get-tv-shows/1333715233669M19318/orig
p4878
sg11
Vfo x life \u0420\u043e\u0441\u0441\u0438\u044f
p4879
sg13
Vhttp://tv.yandex.ua/2/channels/464
p4880
sbag3
(g4
g5
Ntp4881
Rp4882
(dp4883
g9
Vhttp://avatars.yandex.net/get-tv-shows/1333715305189M35114/orig
p4884
sg11
V\u043c\u0443\u0436\u0441\u043a\u043e\u0439 \u0423\u043a\u0440\u0430\u0438\u043d\u0430
p4885
sg13
Vhttp://tv.yandex.ua/187/channels/82
p4886
sbag3
(g4
g5
Ntp4887
Rp4888
(dp4889
g9
Vhttp://avatars.yandex.net/get-tv-shows/1333716877668M81858/orig
p4890
sg11
V\u0442\u043d\u0442 \u0420\u043e\u0441\u0441\u0438\u044f
p4891
sg13
Vhttp://tv.yandex.ua/2/channels/749
p4892
sbag3
(g4
g5
Ntp4893
Rp4894
(dp4895
g9
Vhttp://avatars.yandex.net/get-tv-shows/1333707848439M17779/orig
p4896
sg11
V\u0434\u043e\u043c\u0430\u0448\u043d\u0438\u0435 \u0436\u0438\u0432\u043e\u0442\u043d\u044b\u0435 \u0420\u043e\u0441\u0441\u0438\u044f
p4897
sg13
Vhttp://tv.yandex.ua/2/channels/520
p4898
sbag3
(g4
g5
Ntp4899
Rp4900
(dp4901
g9
Vhttp://avatars.yandex.net/get-tv-shows/1333709420684M86785/orig
p4902
sg11
Vm tv european \u0423\u043a\u0440\u0430\u0438\u043d\u0430
p4903
sg13
Vhttp://tv.yandex.ua/187/channels/270
p4904
sbag3
(g4
g5
Ntp4905
Rp4906
(dp4907
g9
Vhttp://avatars.yandex.net/get-tv-channel-logos/1372082501132M90264/orig
p4908
sg11
Vtv 1000 megahit \u0420\u043e\u0441\u0441\u0438\u044f
p4909
sg13
Vhttp://tv.yandex.ua/2/channels/1012
p4910
sbatp4911
Rp4912
a.