(lp0
F1359044390.528272
a(dp1
S'__channel_count__'
p2
I522
sS'__search_dictionary__'
p3
(dp4
V\u0438\u043d\u0442\u0435\u0440
p5
c__builtin__
set
p6
((lp7
I274
aI292
atp8
Rp9
sVsci
p10
g6
((lp11
I313
aI45
atp12
Rp13
sVeuronews
p14
g6
((lp15
I323
aI55
atp16
Rp17
sVdance
p18
g6
((lp19
I444
aI175
atp20
Rp21
sS'(5)'
p22
g6
((lp23
I480
aI481
aI477
aI325
aI203
aI204
aI45
aI207
aI336
aI177
aI210
aI436
aI309
aI409
aI154
aI431
aI92
aI434
aI478
aI341
atp24
Rp25
sV\u043f\u0441\u0438
p26
g6
((lp27
I409
aI143
atp28
Rp29
sV\u043a\u043f
p30
g6
((lp31
I516
aI238
atp32
Rp33
sV\u043a\u0438\u043d\u043e\u043a\u043b\u0443\u0431
p34
g6
((lp35
I352
aI82
atp36
Rp37
sVtv
p38
g6
((lp39
I0
aI514
aI517
aI148
aI152
aI431
aI453
aI419
aI165
aI175
aI176
aI305
aI178
aI182
aI444
aI445
aI446
aI447
aI66
aI67
aI69
aI501
aI335
aI336
aI339
aI37
aI236
aI245
aI248
aI276
aI511
aI381
aI254
aI255
atp40
Rp41
sV0
p42
g6
((lp43
I456
aI185
atp44
Rp45
sV\u0435\u0434\u0430
p46
g6
((lp47
I241
atp48
Rp49
sV\u0441\u0442\u0440\u0430\u043d\u0430
p50
g6
((lp51
I112
aI391
atp52
Rp53
sV\u0438
p54
g6
((lp55
I356
aI455
aI425
aI362
aI177
aI86
aI154
aI92
atp56
Rp57
sVtb
p58
g6
((lp59
I470
aI198
atp60
Rp61
sV\u0440\u0435\u0442\u0440\u043e
p62
g6
((lp63
I461
aI190
atp64
Rp65
sV\u043f\u0430\u0440\u043a
p66
g6
((lp67
I408
aI142
atp68
Rp69
sV\u044e\u043d\u0438\u043e\u043d
p70
g6
((lp71
I301
atp72
Rp73
sV\u043e\u043b\u043e\u0433\u0438\u044f
p74
g6
((lp75
I409
aI143
atp76
Rp77
sVsony
p78
g6
((lp79
I17
aI211
aI484
atp80
Rp81
sV\u043b\u044e\u0431\u0438\u043c\u043e\u0435
p82
g6
((lp83
I434
aI167
atp84
Rp85
sV\u0437\u0434\u043e\u0440\u043e\u0432\u043e\u0435
p86
g6
((lp87
I460
aI188
atp88
Rp89
sV\u043a\u0443
p90
g6
((lp91
I216
aI489
atp92
Rp93
sV\u043a\u0442\u043e
p94
g6
((lp95
I428
aI159
atp96
Rp97
sV\u0441\u0438\u043d\u0435\u0440\u0433\u0438\u044f
p98
g6
((lp99
I14
atp100
Rp101
sV\u0442\u043e\u0431\u043e\u0439
p102
g6
((lp103
I426
aI157
atp104
Rp105
sV\u0437\u043d\u0430\u043d\u0438\u0435
p106
g6
((lp107
I471
aI199
atp108
Rp109
sVshowcase
p110
g6
((lp111
I468
aI197
atp112
Rp113
sV+
p114
g6
((lp115
I257
aI519
aI141
aI273
aI407
aI284
aI292
aI297
aI478
aI481
aI203
aI204
aI205
aI206
aI207
aI208
aI209
aI210
aI217
aI474
aI476
aI477
aI350
aI479
aI480
aI80
aI483
aI490
aI109
aI239
aI378
atp116
Rp117
sV\u043c\u043d\u043e\u0433\u043e
p118
g6
((lp119
I214
aI487
atp120
Rp121
sVinternational
p122
g6
((lp123
I307
aI303
atp124
Rp125
sVdisney
p126
g6
((lp127
I39
atp128
Rp129
sV\u0441\u043e\u044e\u0437
p130
g6
((lp131
I513
aI235
aI222
aI495
atp132
Rp133
sV\u043d\u0430\u0448
p134
g6
((lp135
I476
aI204
atp136
Rp137
sV34
p138
g6
((lp139
I298
atp140
Rp141
sV\u0447\u043f
p142
g6
((lp143
I420
aI247
atp144
Rp145
sVaction
p146
g6
((lp147
I419
aI148
atp148
Rp149
sVmoteurs
p150
g6
((lp151
I41
aI310
atp152
Rp153
sV\u0441\u0430\u043d\u043a\u0442
p154
g6
((lp155
I33
atp156
Rp157
sV\u043f\u0435\u0440\u0432\u044b\u0439
p158
g6
((lp159
I1
aI418
aI452
aI293
aI289
aI7
aI140
aI304
aI181
aI281
atp160
Rp161
sVfrance
p162
g6
((lp163
I136
aI414
atp164
Rp165
sVamedia
p166
g6
((lp167
I4
atp168
Rp169
sVlive
p170
g6
((lp171
I130
aI511
aI254
aI399
atp172
Rp173
sVmusic
p174
g6
((lp175
I482
aI201
aI404
aI501
aI248
aI126
atp176
Rp177
sV\u043f\u0435\u0442\u0435\u0440\u0431\u0443\u0440\u0433
p178
g6
((lp179
I32
aI33
aI26
aI20
atp180
Rp181
sVtoday
p182
g6
((lp183
I146
aI413
atp184
Rp185
sV\u043e
p186
g6
((lp187
I455
aI425
aI362
aI177
aI19
aI154
aI92
atp188
Rp189
sVturbo
p190
g6
((lp191
I17
atp192
Rp193
sVclub
p194
g6
((lp195
I410
aI132
atp196
Rp197
sV\u044e
p198
g6
((lp199
I38
atp200
Rp201
sVbaby
p202
g6
((lp203
I442
aI174
atp204
Rp205
sV\u0440\u0435\u0431\u0435\u043d\u043a\u0430
p206
g6
((lp207
I149
aI421
atp208
Rp209
sV\u0432\u0441\u0435\u0433\u0434\u0430
p210
g6
((lp211
I426
aI157
atp212
Rp213
sVscience
p214
g6
((lp215
I51
aI319
atp216
Rp217
sV\u0442\u0435\u0430\u0442\u0440
p218
g6
((lp219
I9
atp220
Rp221
sV\u0438\u0442
p222
g6
((lp223
I355
aI85
atp224
Rp225
sV\u0438\u043d\u0432\u0430
p226
g6
((lp227
I2
atp228
Rp229
sS'(2)'
p230
g6
((lp231
I512
aI513
aI2
aI3
aI516
aI5
aI6
aI7
aI520
aI15
aI17
aI18
aI22
aI24
aI26
aI30
aI33
aI34
aI37
aI41
aI42
aI44
aI47
aI48
aI51
aI52
aI53
aI54
aI56
aI61
aI66
aI69
aI72
aI73
aI77
aI78
aI80
aI87
aI89
aI94
aI95
aI97
aI98
aI101
aI102
aI111
aI114
aI115
aI118
aI120
aI125
aI126
aI127
aI130
aI131
aI132
aI136
aI140
aI141
aI142
aI146
aI149
aI150
aI151
aI153
aI155
aI156
aI162
aI163
aI165
aI171
aI179
aI181
aI182
aI183
aI194
aI196
aI197
aI198
aI200
aI201
aI217
aI221
aI222
aI223
aI225
aI226
aI230
aI236
aI237
aI240
aI242
aI243
aI244
aI245
aI247
aI256
aI260
aI264
aI267
aI269
aI271
aI276
aI278
aI287
aI289
aI290
aI292
aI293
aI295
aI297
aI298
aI302
aI303
aI304
aI305
aI306
aI307
aI312
aI314
aI316
aI317
aI318
aI323
aI327
aI328
aI329
aI330
aI332
aI333
aI334
aI340
aI344
aI345
aI346
aI349
aI351
aI352
aI353
aI354
aI361
aI363
aI365
aI368
aI369
aI371
aI372
aI375
aI376
aI377
aI380
aI383
aI387
aI389
aI391
aI392
aI393
aI394
aI395
aI398
aI401
aI405
aI406
aI411
aI415
aI416
aI417
aI427
aI429
aI432
aI433
aI439
aI441
aI442
aI448
aI449
aI450
aI451
aI458
aI459
aI460
aI461
aI462
aI463
aI465
aI466
aI469
aI471
aI473
aI484
aI485
aI486
aI487
aI488
aI491
aI492
aI493
aI498
aI502
aI503
aI504
aI505
aI507
aI508
aI509
aI510
atp232
Rp233
sV\u043e\u043d\u043b\u0430\u0439\u043d
p234
g6
((lp235
I479
aI207
atp236
Rp237
sVhistory
p238
g6
((lp239
I72
aI342
atp240
Rp241
sV\u043c1
p242
g6
((lp243
I282
atp244
Rp245
sV\u0434\u0440\u0430\u0439\u0432
p246
g6
((lp247
I187
aI459
atp248
Rp249
sVplorer
p250
g6
((lp251
I341
aI71
atp252
Rp253
sV\u043c\u0443\u0437
p254
g6
((lp255
I449
aI227
atp256
Rp257
sV\u043a\u0438\u0435\u0432
p258
g6
((lp259
I288
atp260
Rp261
sV\u0430\u0432\u0442\u043e\u043c\u043e\u0431\u0438\u043b\u044c\u043d\u044b\u0439
p262
g6
((lp263
I289
atp264
Rp265
sV\u0440\u043e\u043c\u0430\u043d
p266
g6
((lp267
I221
aI494
atp268
Rp269
sV\u043c\u043e\u0441\u043a\u0432\u0430
p270
g6
((lp271
I264
aI267
atp272
Rp273
sVtravel
p274
g6
((lp275
I145
aI412
atp276
Rp277
sV\u043a\u043e\u043c\u0435\u0434\u0438
p278
g6
((lp279
I395
aI124
atp280
Rp281
sV\u043f\u0435\u0440\u0432\u043e\u0433\u043e
p282
g6
((lp283
I373
aI95
atp284
Rp285
sVamazing
p286
g6
((lp287
I42
aI311
atp288
Rp289
sVanimal
p290
g6
((lp291
I283
aI44
atp292
Rp293
sV\u0441\u0430\u0440\u0430\u0444\u0430\u043d
p294
g6
((lp295
I368
aI99
atp296
Rp297
sVcomedy
p298
g6
((lp299
I240
atp300
Rp301
sV\u0434\u043e\u043d\u0431\u0430\u0441\u0441
p302
g6
((lp303
I296
atp304
Rp305
sVparamount
p306
g6
((lp307
I240
atp308
Rp309
sV\u0435\u0432\u0440\u043e\u043f\u0430
p310
g6
((lp311
I12
atp312
Rp313
sVdiva
p314
g6
((lp315
I467
aI196
atp316
Rp317
sV\u0440\u044b\u0431\u043e\u043b\u043e\u0432
p318
g6
((lp319
I177
aI455
atp320
Rp321
sV\u043d\u0430\u0441\u0442\u043e\u044f\u0449\u0435\u0435
p322
g6
((lp323
I88
aI358
atp324
Rp325
sVfi
p326
g6
((lp327
I313
aI45
atp328
Rp329
sVman
p330
g6
((lp331
I129
aI398
atp332
Rp333
sV\u0441\u0435\u043a\u0440\u0435\u0442\u043d\u043e
p334
g6
((lp335
I171
aI438
atp336
Rp337
sV\u043f\u0438\u043a\u0441\u0435\u043b\u044c
p338
g6
((lp339
I270
atp340
Rp341
sVdeutsche
p342
g6
((lp343
I52
aI326
atp344
Rp345
sS'(6)'
p346
g6
((lp347
I483
aI455
aI425
aI362
aI313
aI474
aI476
aI479
atp348
Rp349
sVq
p350
g6
((lp351
I305
atp352
Rp353
sVenter
p354
g6
((lp355
I290
atp356
Rp357
sV\u0440\u0443\u0441\u0441\u043a\u0438\u0439
p358
g6
((lp359
I97
aI98
aI494
aI367
aI366
aI221
atp360
Rp361
sV\u0440\u0436\u0434
p362
g6
((lp363
I252
atp364
Rp365
sVzee
p366
g6
((lp367
I432
aI164
atp368
Rp369
sV\u043f\u0440\u0435\u043c\u044c\u0435\u0440\u0430
p370
g6
((lp371
I363
aI93
atp372
Rp373
sV24
p374
g6
((lp375
I225
aI34
aI299
aI497
aI40
aI267
aI111
aI136
aI309
aI414
aI382
atp376
Rp377
sV1
p378
g6
((lp379
I101
aI396
aI370
aI273
aI18
aI125
atp380
Rp381
sVstyle
p382
g6
((lp383
I416
aI147
atp384
Rp385
sV21
p386
g6
((lp387
I409
aI257
aI519
aI143
atp388
Rp389
sVlu
p390
g6
((lp391
I152
aI338
aI62
aI431
atp392
Rp393
sVtreme
p394
g6
((lp395
I57
aI325
atp396
Rp397
sVcee
p398
g6
((lp399
I402
aI134
atp400
Rp401
sV\u0442\u0435\u0442
p402
g6
((lp403
I294
atp404
Rp405
sV\u0441\u043f\u043e\u0440\u0442
p406
g6
((lp407
I101
aI328
aI203
aI205
aI207
aI370
aI495
aI474
aI59
aI477
aI222
aI479
atp408
Rp409
sV\u0444\u0435\u043d\u0438\u043a\u0441
p410
g6
((lp411
I378
aI109
atp412
Rp413
sVrocks
p414
g6
((lp415
I178
aI447
atp416
Rp417
sV\u044d\u0433\u043e\u0438\u0441\u0442
p418
g6
((lp419
I249
aI502
atp420
Rp421
sV\u0441\u0435\u0440\u0438\u0430\u043b\u0430
p422
g6
((lp423
I400
aI131
atp424
Rp425
sV\u0440\u0430\u0437\u0432\u043b\u0435\u0447\u0435\u043d\u0438\u0439
p426
g6
((lp427
I408
aI142
atp428
Rp429
sVt\u0432
p430
g6
((lp431
I312
atp432
Rp433
sV\u043c\u0443\u043b\u044c\u0442\u0438\u043c\u0430\u043d\u0438\u044f
p434
g6
((lp435
I138
aI405
atp436
Rp437
sVnickelodeon
p438
g6
((lp439
I332
aI63
atp440
Rp441
sV\u0438\u043d\u0442\u0435\u0440\u043d\u0435\u0442
p442
g6
((lp443
I7
atp444
Rp445
sVnetwork
p446
g6
((lp447
I521
aI315
aI246
aI47
atp448
Rp449
sVentertainment
p450
g6
((lp451
I244
atp452
Rp453
sVinvestigation
p454
g6
((lp455
I120
aI390
atp456
Rp457
sV\u043d\u043e\u0441\u0442\u0430\u043b\u044c\u0433\u0438\u044f
p458
g6
((lp459
I361
aI91
atp460
Rp461
sV\u0430\u0433\u0440\u043e
p462
g6
((lp463
I250
aI503
atp464
Rp465
sV\u0442\u0438\u043d
p466
g6
((lp467
I106
aI375
atp468
Rp469
sV\u0444\u0438\u043b\u044c\u043c
p470
g6
((lp471
I290
atp472
Rp473
sV\u0440\u0430\u0437
p474
g6
((lp475
I504
aI229
atp476
Rp477
sV\u0438\u044f
p478
g6
((lp479
I105
aI374
atp480
Rp481
sV\u043c\u0443\u0437\u044b\u043a\u0430
p482
g6
((lp483
I373
aI95
atp484
Rp485
sV\u0438\u043d\u0442\u0435\u0440\u0435\u0441\u043d\u043e\u0435
p486
g6
((lp487
I213
aI486
atp488
Rp489
sV\u043e\u0440\u0443\u0436\u0438\u0435
p490
g6
((lp491
I427
aI158
atp492
Rp493
sV2_2
p494
g6
((lp495
I284
aI36
atp496
Rp497
sV1000
p498
g6
((lp499
I66
aI67
aI335
aI336
aI419
aI148
atp500
Rp501
sV\u043e\u0439
p502
g6
((lp503
I32
atp504
Rp505
sVnhk
p506
g6
((lp507
I6
atp508
Rp509
sVone
p510
g6
((lp511
I5
aI454
aI183
atp512
Rp513
sV\u0442\u0431\u043d
p514
g6
((lp515
I512
aI234
atp516
Rp517
sV\u0437\u0430\u0433\u043e\u0440\u043e\u0434\u043d\u044b\u0439
p518
g6
((lp519
I161
aI429
atp520
Rp521
sV\u043c\u0435\u0434\u0438\u0430
p522
g6
((lp523
I417
aI2
aI139
atp524
Rp525
sV\u043c\u0443\u0436\u0441\u043a\u043e\u0439
p526
g6
((lp527
I401
aI133
atp528
Rp529
sVtop
p530
g6
((lp531
I156
aI437
atp532
Rp533
sV\u0437\u0430\u043a\u043e\u043d
p534
g6
((lp535
I233
aI509
atp536
Rp537
sV\u043e\u043a\u043a\u0435\u0439
p538
g6
((lp539
I302
atp540
Rp541
sV2
p542
g6
((lp543
I483
aI36
aI324
aI397
aI456
aI210
aI22
aI56
aI185
aI284
aI127
atp544
Rp545
sVmusicbo
p546
g6
((lp547
I160
aI440
aI163
aI443
atp548
Rp549
sV\u043f\u043b\u0430\u043d\u0435\u0442\u0430
p550
g6
((lp551
I306
aI87
aI357
aI15
atp552
Rp553
sVurban
p554
g6
((lp555
I226
aI499
atp556
Rp557
sV\u0442\u0435\u043b\u0435\u043a\u043b\u0443\u0431
p558
g6
((lp559
I104
aI372
aI239
atp560
Rp561
sV\u0441\u043f\u0430\u0441
p562
g6
((lp563
I369
aI100
atp564
Rp565
sV\u043c\u043e\u044f
p566
g6
((lp567
I364
aI357
aI94
aI87
atp568
Rp569
sV\u043c\u0435\u0442\u0435\u043e
p570
g6
((lp571
I418
aI140
atp572
Rp573
sV\u043a\u0443\u043b\u044c\u0442\u0443\u0440\u0430
p574
g6
((lp575
I21
atp576
Rp577
sV\u0442\u0435\u043b\u0435\u0432\u0438\u0434\u0435\u043d\u0438\u0435
p578
g6
((lp579
I88
aI358
atp580
Rp581
sV\u043e\u0441\u0442
p582
g6
((lp583
I10
atp584
Rp585
sV+_+
p586
g6
((lp587
I474
aI203
atp588
Rp589
sVr
p590
g6
((lp591
I0
aI381
atp592
Rp593
sVrussia
p594
g6
((lp595
I146
aI413
atp596
Rp597
sVbridge
p598
g6
((lp599
I507
aI231
atp600
Rp601
sVfashion
p602
g6
((lp603
I5
aI327
aI73
aI272
aI343
aI58
atp604
Rp605
sV\u043a\u0438\u043d\u043e
p606
g6
((lp607
I67
aI167
aI168
aI359
aI109
aI78
aI141
aI336
aI360
aI434
aI355
aI436
aI85
aI407
aI89
aI90
aI348
aI378
atp608
Rp609
sVpro
p610
g6
((lp611
I496
aI506
aI230
aI223
atp612
Rp613
sS'(3)'
p614
g6
((lp615
I0
aI515
aI517
aI518
aI8
aI12
aI19
aI20
aI32
aI36
aI62
aI68
aI85
aI86
aI88
aI90
aI105
aI109
aI116
aI134
aI135
aI145
aI148
aI157
aI159
aI160
aI175
aI176
aI178
aI185
aI192
aI216
aI228
aI246
aI248
aI254
aI255
aI257
aI272
aI273
aI281
aI283
aI284
aI299
aI308
aI310
aI311
aI315
aI319
aI320
aI321
aI322
aI324
aI326
aI331
aI335
aI339
aI342
aI343
aI347
aI348
aI350
aI357
aI359
aI364
aI366
aI367
aI370
aI373
aI379
aI382
aI384
aI385
aI388
aI390
aI396
aI397
aI399
aI400
aI404
aI407
aI408
aI410
aI413
aI414
aI418
aI420
aI421
aI422
aI423
aI424
aI430
aI435
aI437
aI438
aI443
aI445
aI452
aI453
aI454
aI457
aI467
aI468
aI470
aI472
aI475
aI482
aI490
aI494
aI495
aI496
aI497
aI499
aI506
atp616
Rp617
sV\u043a\u0438\u043d\u043e\u043f\u043e\u043a\u0430\u0437
p618
g6
((lp619
I353
aI396
aI397
aI83
aI125
aI127
atp620
Rp621
sVgala
p622
g6
((lp623
I8
atp624
Rp625
sV\u0434\u0435\u0442\u0441\u043a\u0438\u0439
p626
g6
((lp627
I346
aI347
aI76
aI77
aI239
atp628
Rp629
sV\u0442\u0440\u043e
p630
g6
((lp631
I232
aI508
atp632
Rp633
sV\u0438\u043d\u0434\u0438\u044f
p634
g6
((lp635
I81
aI351
atp636
Rp637
sVtrace
p638
g6
((lp639
I226
aI499
atp640
Rp641
sVukrainian
p642
g6
((lp643
I272
atp644
Rp645
sVwelle
p646
g6
((lp647
I52
aI326
atp648
Rp649
sVgeographic
p650
g6
((lp651
I331
aI61
atp652
Rp653
sV\u0442\u0435\u043d\u043d\u0438\u0441
p654
g6
((lp655
I209
aI481
atp656
Rp657
sV\u043e\u0442\u043d\u0438\u043a
p658
g6
((lp659
I177
aI455
atp660
Rp661
sVm
p662
g6
((lp663
I514
aI37
aI501
aI175
aI176
aI178
aI446
aI511
aI248
aI447
aI444
aI254
aI255
atp664
Rp665
sV\u0442\u043d\u0432
p666
g6
((lp667
I376
aI107
aI15
atp668
Rp669
sV\u043d\u0435\u0432\u0441\u043a\u0438\u0439
p670
g6
((lp671
I24
atp672
Rp673
sVrussian
p674
g6
((lp675
I145
aI412
atp676
Rp677
sV1_1
p678
g6
((lp679
I273
atp680
Rp681
sVfine
p682
g6
((lp683
I521
aI246
atp684
Rp685
sV\u043a1
p686
g6
((lp687
I300
atp688
Rp689
sV\u043a\u0438\u043d\u043e\u043b\u044e\u043a\u0441
p690
g6
((lp691
I220
aI493
atp692
Rp693
sV\u0436\u0438\u0432\u043e\u0442\u043d\u044b\u0435
p694
g6
((lp695
I388
aI118
atp696
Rp697
sV8
p698
g6
((lp699
I212
aI485
atp700
Rp701
sV\u043d\u044f
p702
g6
((lp703
I216
aI489
atp704
Rp705
sV\u0441\u0442\u0440\u0430\u0448\u043d\u043e\u0435
p706
g6
((lp707
I88
aI358
atp708
Rp709
sV\u0440
p710
g6
((lp711
I168
aI434
aI436
aI167
atp712
Rp713
sV\u0432\u043e\u043f\u0440\u043e\u0441\u044b
p714
g6
((lp715
I425
aI154
atp716
Rp717
sV\u043d\u043e
p718
g6
((lp719
I40
aI309
atp720
Rp721
sVmgm
p722
g6
((lp723
I16
aI330
atp724
Rp725
sVda
p726
g6
((lp727
I384
aI114
atp728
Rp729
sV\u043e\u0442\u0430
p730
g6
((lp731
I362
aI92
atp732
Rp733
sVgeo
p734
g6
((lp735
I403
aI135
atp736
Rp737
sV\u0437\u043e\u043e
p738
g6
((lp739
I349
aI79
atp740
Rp741
sV\u0434\u0435\u0432\u044f\u0442\u044b\u0439
p742
g6
((lp743
I256
aI515
atp744
Rp745
sV\u0442\u043d\u0442
p746
g6
((lp747
I23
atp748
Rp749
sVx
p750
g6
((lp751
I385
aI386
aI8
aI143
aI150
aI152
aI409
aI160
aI163
aI36
aI422
aI40
aI455
aI45
aI302
aI431
aI177
aI309
aI440
aI57
aI443
aI62
aI192
aI68
aI325
aI71
aI464
aI337
aI338
aI85
aI313
aI216
aI92
aI500
aI355
aI228
aI489
aI362
aI115
aI116
aI341
atp752
Rp753
sV\u0442\u0443\u0440\u0438\u043d\u0444\u043e
p754
g6
((lp755
I189
aI469
atp756
Rp757
sVespn
p758
g6
((lp759
I321
aI54
atp760
Rp761
sV\u0441\u0435\u043c\u044c\u044f
p762
g6
((lp763
I265
atp764
Rp765
sVnational
p766
g6
((lp767
I331
aI61
atp768
Rp769
sV\u0442\u043e\u043d\u0438\u0441
p770
g6
((lp771
I285
atp772
Rp773
sV\u043c\u0438\u043d\u043e\u0440
p774
g6
((lp775
I237
aI518
atp776
Rp777
sVsport
p778
g6
((lp779
I424
aI153
atp780
Rp781
sV\u043c\u0430\u0442\u044c
p782
g6
((lp783
I356
aI86
atp784
Rp785
sVma\u043a\u0441i
p786
g6
((lp787
I312
atp788
Rp789
sV3
p790
g6
((lp791
I30
atp792
Rp793
sV\u043b
p794
g6
((lp795
I192
aI464
atp796
Rp797
sV365
p798
g6
((lp799
I219
aI492
atp800
Rp801
sV\u0440\u0430\u0434\u043e\u0441\u0442\u044c
p802
g6
((lp803
I364
aI94
atp804
Rp805
sVdiscovery
p806
g6
((lp807
I320
aI197
aI390
aI12
aI50
aI51
aI468
aI53
aI120
aI318
aI319
atp808
Rp809
sVeuropa
p810
g6
((lp811
I200
aI472
atp812
Rp813
sVnature
p814
g6
((lp815
I402
aI134
atp816
Rp817
sV\u0436\u0438\u0432\u0438
p818
g6
((lp819
I466
aI195
atp820
Rp821
sVjr
p822
g6
((lp823
I3
atp824
Rp825
sV\u043a\u0442\u043e_\u043a\u0442\u043e
p826
g6
((lp827
I428
aI159
atp828
Rp829
sV\u0434\u043e\u043c\u0430\u0448\u043d\u0438\u0435
p830
g6
((lp831
I388
aI118
atp832
Rp833
sV\u044d\u043a\u0441\u043f\u0435\u0440\u0442
p834
g6
((lp835
I380
aI110
atp836
Rp837
sV\u0434\u043e\u043c\u0430\u0448\u043d\u0438\u0439
p838
g6
((lp839
I24
aI261
atp840
Rp841
sV\u0442\u0435\u043b\u0435\u043f\u0443\u0442\u0435\u0448\u0435\u0441
p842
g6
((lp843
I105
aI374
atp844
Rp845
sVc
p846
g6
((lp847
I404
aI126
atp848
Rp849
sV\u043c\u0435\u0433\u0430
p850
g6
((lp851
I286
atp852
Rp853
sVtlc
p854
g6
((lp855
I451
aI180
atp856
Rp857
sVs
p858
g6
((lp859
I236
aI517
atp860
Rp861
sVrusong
p862
g6
((lp863
I184
aI462
atp864
Rp865
sV\u043a\u0438\u043d\u043e\u0441\u043e\u044e\u0437
p866
g6
((lp867
I354
aI84
atp868
Rp869
sVpop
p870
g6
((lp871
I155
aI435
atp872
Rp873
sVx_x
p874
g6
((lp875
I337
aI68
atp876
Rp877
sVmezzo
p878
g6
((lp879
I329
aI130
aI60
aI399
atp880
Rp881
sVeurosport
p882
g6
((lp883
I56
aI463
aI324
aI191
atp884
Rp885
sV\u0440\u0431\u043a
p886
g6
((lp887
I96
aI365
atp888
Rp889
sVbbc
p890
g6
((lp891
I48
aI113
aI322
aI244
aI383
atp892
Rp893
sV\u0442\u043e\u043d\u0443\u0441
p894
g6
((lp895
I433
aI166
atp896
Rp897
sVlife
p898
g6
((lp899
I386
aI42
aI491
aI116
aI311
aI218
atp900
Rp901
sV\u0443\u0441\u043f\u0435
p902
g6
((lp903
I422
aI150
atp904
Rp905
sV\u0443\u043a\u0440\u0430\u0438\u043d\u0430
p906
g6
((lp907
I512
aI513
aI514
aI515
aI516
aI517
aI518
aI519
aI520
aI521
aI269
aI271
aI272
aI278
aI280
aI281
aI283
aI295
aI299
aI304
aI309
aI310
aI311
aI313
aI314
aI315
aI316
aI317
aI318
aI319
aI320
aI321
aI322
aI323
aI324
aI325
aI326
aI327
aI328
aI329
aI330
aI331
aI332
aI333
aI334
aI335
aI336
aI337
aI338
aI339
aI340
aI341
aI342
aI343
aI344
aI345
aI346
aI347
aI348
aI349
aI350
aI351
aI352
aI353
aI354
aI355
aI356
aI357
aI358
aI359
aI360
aI361
aI362
aI363
aI364
aI365
aI366
aI367
aI368
aI369
aI370
aI371
aI372
aI373
aI374
aI375
aI376
aI377
aI378
aI379
aI380
aI381
aI382
aI383
aI384
aI385
aI386
aI387
aI388
aI389
aI390
aI391
aI392
aI393
aI394
aI395
aI396
aI397
aI398
aI399
aI400
aI401
aI402
aI403
aI404
aI405
aI406
aI407
aI408
aI409
aI410
aI411
aI412
aI413
aI414
aI416
aI417
aI418
aI419
aI420
aI421
aI422
aI423
aI424
aI425
aI426
aI427
aI428
aI429
aI430
aI431
aI432
aI433
aI434
aI435
aI436
aI437
aI438
aI439
aI440
aI441
aI442
aI443
aI444
aI445
aI446
aI447
aI448
aI449
aI450
aI451
aI452
aI453
aI454
aI455
aI456
aI457
aI458
aI459
aI460
aI461
aI462
aI463
aI464
aI465
aI466
aI467
aI468
aI469
aI470
aI471
aI472
aI473
aI474
aI475
aI476
aI477
aI478
aI479
aI480
aI481
aI482
aI483
aI484
aI485
aI486
aI487
aI488
aI489
aI490
aI491
aI492
aI493
aI494
aI495
aI496
aI497
aI498
aI499
aI500
aI501
aI502
aI503
aI504
aI505
aI506
aI507
aI508
aI509
aI510
aI511
atp908
Rp909
sVvinci
p910
g6
((lp911
I384
aI114
atp912
Rp913
sVhits
p914
g6
((lp915
I176
aI446
atp916
Rp917
sV\u043f\u0440\u043e\u0441\u0432\u0435\u0449\u0435\u043d\u0438\u0435
p918
g6
((lp919
I505
aI251
atp920
Rp921
sV\u0444\u0443\u0442\u0431\u043e\u043b
p922
g6
((lp923
I483
aI295
aI137
aI204
aI206
aI210
aI297
aI476
aI478
atp924
Rp925
sVn
p926
g6
((lp927
I313
aI45
atp928
Rp929
sVwild
p930
g6
((lp931
I403
aI135
atp932
Rp933
sVguide
p934
g6
((lp935
I145
aI412
atp936
Rp937
sV\u0432\u0440\u0435\u043c\u044f
p938
g6
((lp939
I345
aI75
atp940
Rp941
sV\u0435\u0432\u0440\u043e\u043a\u0438\u043d\u043e
p942
g6
((lp943
I389
aI119
atp944
Rp945
sV\u043a
p946
g6
((lp947
I192
aI464
atp948
Rp949
sV\u0446\u0435\u043d\u0442\u0440
p950
g6
((lp951
I259
aI307
aI19
atp952
Rp953
sVmotors
p954
g6
((lp955
I224
aI498
atp956
Rp957
sV\u044d\u043a\u0441\u0442\u0440\u0438\u043c
p958
g6
((lp959
I98
aI367
atp960
Rp961
sVic
p962
g6
((lp963
I276
atp964
Rp965
sV\u0441\u0442\u0431
p966
g6
((lp967
I275
atp968
Rp969
sVfo
p970
g6
((lp971
I385
aI386
aI115
aI116
atp972
Rp973
sV\u0441\u0442\u043e
p974
g6
((lp975
I31
atp976
Rp977
sVeuropean
p978
g6
((lp979
I194
aI475
aI514
aI255
atp980
Rp981
sV\u0441
p982
g6
((lp983
I426
aI157
atp984
Rp985
sV\u0441\u0442\u0441
p986
g6
((lp987
I26
aI262
aI303
atp988
Rp989
sV\u0432\u043a\u0442
p990
g6
((lp991
I263
atp992
Rp993
sS'(4)'
p994
g6
((lp995
I386
aI519
aI521
aI514
aI143
aI402
aI403
aI152
aI412
aI419
aI167
aI40
aI426
aI428
aI440
aI57
aI444
aI446
aI447
aI67
aI71
aI456
aI205
aI206
aI208
aI337
aI338
aI464
aI355
aI356
aI358
aI209
aI360
aI489
aI239
aI168
aI500
aI501
aI374
aI378
aI381
aI511
atp996
Rp997
sV\u043e\u0442\u043a\u0440\u044b\u0442\u044b\u0439
p998
g6
((lp999
I457
aI179
atp1000
Rp1001
sVa
p1002
g6
((lp1003
I313
aI45
aI454
aI183
atp1004
Rp1005
sVbloomberg
p1006
g6
((lp1007
I314
aI46
atp1008
Rp1009
sV\u0432\u043e\u0441\u0442\u043e\u0447\u043d\u0430\u044f
p1010
g6
((lp1011
I12
atp1012
Rp1013
sVcartoon
p1014
g6
((lp1015
I315
aI47
atp1016
Rp1017
sViconcerts
p1018
g6
((lp1019
I11
atp1020
Rp1021
sVi
p1022
g6
((lp1023
I0
aI337
aI68
aI381
aI287
atp1024
Rp1025
sVocean
p1026
g6
((lp1027
I64
aI333
atp1028
Rp1029
sV\u043e\u0440\u0431\u0438\u0442\u0430
p1030
g6
((lp1031
I256
aI515
atp1032
Rp1033
sV\u043e\u0431\u0440\u0430\u0437\u043e\u0432\u0430\u0442\u0435\u043b\u044c\u043d\u044b\u0439
p1034
g6
((lp1035
I452
aI181
atp1036
Rp1037
sVenglish
p1038
g6
((lp1039
I410
aI132
atp1040
Rp1041
sVy
p1042
g6
((lp1043
I8
atp1044
Rp1045
sV\u043d\u043e\u0432\u043e\u0435
p1046
g6
((lp1047
I360
aI90
atp1048
Rp1049
sVoutdoor
p1050
g6
((lp1051
I473
aI202
atp1052
Rp1053
sV\u0434\u043e\u0436\u0434\u044c
p1054
g6
((lp1055
I144
aI411
atp1056
Rp1057
sV\u0448\u0430\u043d\u0441\u043e\u043d
p1058
g6
((lp1059
I470
aI198
atp1060
Rp1061
sV\u043a\u043e\u043c\u0435\u0434\u0438\u044f
p1062
g6
((lp1063
I488
aI215
atp1064
Rp1065
sVgulli
p1066
g6
((lp1067
I387
aI117
atp1068
Rp1069
sVviasat
p1070
g6
((lp1071
I134
aI71
aI72
aI424
aI402
aI341
aI342
aI153
atp1072
Rp1073
sVreality
p1074
g6
((lp1075
I243
atp1076
Rp1077
sV\u043d\u0435\u0434\u0432\u0438\u0436\u0438\u043c\u043e\u0441\u0442\u044c
p1078
g6
((lp1079
I448
aI169
atp1080
Rp1081
sV\u0440\u0435\u043d
p1082
g6
((lp1083
I25
aI269
atp1084
Rp1085
sVjimjam
p1086
g6
((lp1087
I392
aI121
atp1088
Rp1089
sVtiji
p1090
g6
((lp1091
I441
aI173
atp1092
Rp1093
sV5
p1094
g6
((lp1095
I339
aI27
aI69
aI278
atp1096
Rp1097
sV\u0441\u043e\u0432\u0435\u0440\u0448\u0435\u043d\u043d\u043e
p1098
g6
((lp1099
I171
aI438
atp1100
Rp1101
sV\u0434\u043e\u0432\u0435\u0440\u0438\u0435
p1102
g6
((lp1103
I264
atp1104
Rp1105
sVbiz
p1106
g6
((lp1107
I245
atp1108
Rp1109
sVworld
p1110
g6
((lp1111
I320
aI322
aI6
aI73
aI343
aI482
aI48
aI53
aI201
atp1112
Rp1113
sV\u0442\u0435\u043b\u0435\u043a\u0430\u043d\u0430\u043b
p1114
g6
((lp1115
I257
aI298
aI519
atp1116
Rp1117
sV\u044e\u043c\u043e\u0440
p1118
g6
((lp1119
I500
aI228
atp1120
Rp1121
sV\u0442\u0435
p1122
g6
((lp1123
I40
aI309
atp1124
Rp1125
sV\u0442\u0432
p1126
g6
((lp1127
I260
aI19
aI20
aI154
aI30
aI287
aI32
aI167
aI168
aI425
aI434
aI308
aI436
aI203
aI204
aI205
aI206
aI207
aI208
aI209
aI210
aI474
aI476
aI477
aI478
aI479
aI480
aI481
aI483
aI102
aI105
aI374
aI379
atp1128
Rp1129
sV\u0435\u0441\u0442\u044c
p1130
g6
((lp1131
I428
aI159
atp1132
Rp1133
sV\u0430\u0441\u0442\u0440\u043e
p1134
g6
((lp1135
I520
aI258
atp1136
Rp1137
sV\u0448\u043a\u043e\u043b\u044c\u043d\u0438\u043a
p1138
g6
((lp1139
I268
atp1140
Rp1141
sVsyfy
p1142
g6
((lp1143
I65
aI334
atp1144
Rp1145
sV\u0440\u043e\u0441\u0441\u0438\u044f
p1146
g6
((lp1147
I306
aI18
aI299
aI34
aI22
atp1148
Rp1149
sV\u0437\u0432\u0435\u0437\u0434\u0430
p1150
g6
((lp1151
I28
atp1152
Rp1153
sVcnn
p1154
g6
((lp1155
I49
aI316
atp1156
Rp1157
sV\u043b\u044f
p1158
g6
((lp1159
I237
aI518
atp1160
Rp1161
sVtdk
p1162
g6
((lp1163
I172
aI439
atp1164
Rp1165
sV\u0434\u0438\u0442\u044f
p1166
g6
((lp1167
I356
aI86
atp1168
Rp1169
sVbusiness
p1170
g6
((lp1171
I496
aI223
atp1172
Rp1173
sVbo
p1174
g6
((lp1175
I500
aI228
atp1176
Rp1177
sV\u0434\u0435\u043b\u043e\u0432\u043e\u0439
p1178
g6
((lp1179
I293
atp1180
Rp1181
sV\u0440\u044b\u0431\u0430\u043b\u043a\u0430
p1182
g6
((lp1183
I362
aI92
atp1184
Rp1185
sV\u0443\u0441\u0430\u0434\u044c\u0431\u0430
p1186
g6
((lp1187
I377
aI108
atp1188
Rp1189
sVo
p1190
g6
((lp1191
I291
atp1192
Rp1193
sVdrama
p1194
g6
((lp1195
I242
atp1196
Rp1197
sV\u0432\u0441\u0435
p1198
g6
((lp1199
I506
aI230
atp1200
Rp1201
sVplus
p1202
g6
((lp1203
I200
aI472
atp1204
Rp1205
sVru
p1206
g6
((lp1207
I160
aI440
aI453
aI182
atp1208
Rp1209
sV\u043a\u0438\u043d\u043e\u043c\u0430\u043d\u0438\u044f
p1210
g6
((lp1211
I394
aI123
atp1212
Rp1213
sV\u0431\u0435\u043b\u0430\u0440\u0443\u0441\u044c
p1214
g6
((lp1215
I225
aI497
atp1216
Rp1217
sV\u043e2
p1218
g6
((lp1219
I379
aI102
atp1220
Rp1221
sV\u0438\u043b\u043b\u044e\u0437\u0438\u043e\u043d
p1222
g6
((lp1223
I80
aI97
aI366
aI350
atp1224
Rp1225
sVsports
p1226
g6
((lp1227
I57
aI325
atp1228
Rp1229
sVnewsone
p1230
g6
((lp1231
I170
aI450
atp1232
Rp1233
sVvh1
p1234
g6
((lp1235
I194
aI423
aI475
aI151
atp1236
Rp1237
sV\u0442\u0435\u043b\u0435\u043a\u0430\u0444\u0435
p1238
g6
((lp1239
I371
aI103
atp1240
Rp1241
sS'(1)'
p1242
g6
((lp1243
I1
aI4
aI9
aI10
aI11
aI13
aI14
aI16
aI21
aI23
aI25
aI27
aI28
aI29
aI31
aI35
aI38
aI39
aI43
aI46
aI49
aI50
aI55
aI58
aI59
aI60
aI63
aI64
aI65
aI70
aI74
aI75
aI76
aI79
aI81
aI82
aI83
aI84
aI91
aI93
aI96
aI99
aI100
aI103
aI104
aI106
aI107
aI108
aI110
aI112
aI113
aI117
aI119
aI121
aI122
aI123
aI124
aI128
aI129
aI133
aI137
aI138
aI139
aI144
aI147
aI158
aI161
aI164
aI166
aI169
aI170
aI172
aI173
aI174
aI180
aI184
aI186
aI187
aI188
aI189
aI190
aI191
aI193
aI195
aI199
aI202
aI211
aI212
aI213
aI214
aI215
aI218
aI219
aI220
aI224
aI227
aI229
aI231
aI232
aI233
aI234
aI235
aI238
aI241
aI249
aI250
aI251
aI252
aI253
aI258
aI259
aI261
aI262
aI263
aI265
aI266
aI268
aI270
aI274
aI275
aI277
aI279
aI280
aI282
aI285
aI286
aI288
aI291
aI294
aI296
aI300
aI301
atp1244
Rp1245
sV\u043a\u0430\u0440\u0443\u0441\u0435\u043b\u044c
p1246
g6
((lp1247
I35
aI415
atp1248
Rp1249
sV\u0430\u0432\u0442\u043e
p1250
g6
((lp1251
I217
aI490
atp1252
Rp1253
sV\u0437\u0430\u0433\u043e\u0440\u043e\u0434\u043d\u0430\u044f
p1254
g6
((lp1255
I162
aI430
atp1256
Rp1257
sV\u0434\u043e\u043c
p1258
g6
((lp1259
I348
aI78
atp1260
Rp1261
sV\u043f\u0435\u0440\u0435\u0446
p1262
g6
((lp1263
I29
atp1264
Rp1265
sV\u0434\u043e\u043a
p1266
g6
((lp1267
I382
aI111
atp1268
Rp1269
sVinfo
p1270
g6
((lp1271
I420
aI247
atp1272
Rp1273
sVplanet
p1274
g6
((lp1275
I283
aI44
atp1276
Rp1277
sV\u0440\u0443\u0441\u0441\u043a\u043e\u0435
p1278
g6
((lp1279
I336
aI67
atp1280
Rp1281
sVboomerang
p1282
g6
((lp1283
I13
atp1284
Rp1285
sVcnbc
p1286
g6
((lp1287
I128
aI406
atp1288
Rp1289
sVab
p1290
g6
((lp1291
I41
aI310
atp1292
Rp1293
sVmyzen
p1294
g6
((lp1295
I165
aI445
atp1296
Rp1297
sVclassic
p1298
g6
((lp1299
I321
aI423
aI54
aI151
atp1300
Rp1301
sVint
p1302
g6
((lp1303
I415
atp1304
Rp1305
sV\u043d\u043e\u0432\u044b\u0439
p1306
g6
((lp1307
I277
atp1308
Rp1309
sVuniversal
p1310
g6
((lp1311
I340
aI467
aI196
aI70
atp1312
Rp1313
sV\u0436\u0438\u0437\u043d\u044c
p1314
g6
((lp1315
I162
aI430
atp1316
Rp1317
sVmcm
p1318
g6
((lp1319
I155
aI156
aI435
aI437
atp1320
Rp1321
sVcbs
p1322
g6
((lp1323
I242
aI243
atp1324
Rp1325
sVkidsco
p1326
g6
((lp1327
I393
aI122
atp1328
Rp1329
sV\u0443\u043b\u044b\u0431\u043a\u0430
p1330
g6
((lp1331
I149
aI421
atp1332
Rp1333
sV\u043d\u0430\u0443\u043a\u0430
p1334
g6
((lp1335
I456
aI185
atp1336
Rp1337
sVnick
p1338
g6
((lp1339
I3
atp1340
Rp1341
sVzoo\u043f\u0430\u0440\u043a
p1342
g6
((lp1343
I186
aI458
atp1344
Rp1345
sVnat
p1346
g6
((lp1347
I403
aI135
atp1348
Rp1349
sV\u0434\u043e\u0431\u0440\u043e
p1350
g6
((lp1351
I271
atp1352
Rp1353
sV\u043d
p1354
g6
((lp1355
I480
aI481
aI483
aI260
aI203
aI204
aI205
aI206
aI207
aI208
aI209
aI210
aI20
aI308
aI474
aI476
aI477
aI478
aI479
atp1356
Rp1357
sV\u043d\u0430\u043d\u043e
p1358
g6
((lp1359
I253
aI510
atp1360
Rp1361
sVliving
p1362
g6
((lp1363
I521
aI246
atp1364
Rp1365
sV\u0431\u043e\u0435\u0446
p1366
g6
((lp1367
I344
aI74
atp1368
Rp1369
sV\u0435\u0442\u044b
p1370
g6
((lp1371
I425
aI154
atp1372
Rp1373
sV\u043d\u0442\u043d
p1374
g6
((lp1375
I279
atp1376
Rp1377
sVe
p1378
g6
((lp1379
I325
aI71
aI431
aI338
aI341
aI152
aI57
aI62
atp1380
Rp1381
sV\u043d\u0430\u0448\u0435
p1382
g6
((lp1383
I359
aI168
aI360
aI436
aI89
aI90
atp1384
Rp1385
sV\u043c\u0438\u0440
p1386
g6
((lp1387
I193
aI131
aI457
aI77
aI239
aI400
aI465
aI179
aI308
aI347
atp1388
Rp1389
sV\u0431\u0430\u0441\u043a\u0435\u0442\u0431\u043e\u043b
p1390
g6
((lp1391
I208
aI480
atp1392
Rp1393
sV\u043f\u043e\u0434\u043c\u043e\u0441\u043a\u043e\u0432\u044c\u0435
p1394
g6
((lp1395
I266
atp1396
Rp1397
sVajara
p1398
g6
((lp1399
I43
aI317
atp1400
Rp1401
sV\u043d\u0430\u0446\u0438\u043e\u043d\u0430\u043b\u044c\u043d\u044b\u0439
p1402
g6
((lp1403
I281
atp1404
Rp1405
ssS'__channel_objects__'
p1406
(dp1407
I0
ccopy_reg
_reconstructor
p1408
(cchannel_cache
Channel
p1409
c__builtin__
object
p1410
Ntp1411
Rp1412
(dp1413
S'image_url'
p1414
Vhttp://avatars.yandex.net/get-tv-shows/1333715595667M50557/orig
p1415
sS'name'
p1416
VRTVI
p1417
sS'info_url'
p1418
Vhttp://tv.yandex.ua/2/channels/76
p1419
sS'id'
p1420
I0
sbsI1
g1408
(g1409
g1410
Ntp1421
Rp1422
(dp1423
g1414
Vhttp://avatars.yandex.net/get-tv-shows/1333713580540M89714/orig
p1424
sg1416
V\u041f\u0435\u0440\u0432\u044b\u0439
p1425
sg1418
Vhttp://tv.yandex.ua/2/channels/146
p1426
sg1420
I1
sbsI2
g1408
(g1409
g1410
Ntp1427
Rp1428
(dp1429
g1414
Vhttp://avatars.yandex.net/get-tv-channel-logos/1357908652792M87979/orig
p1430
sg1416
V\u0418\u041d\u0412\u0410 \u041c\u0415\u0414\u0418\u0410 \u0422\u0412
p1431
sg1418
Vhttp://tv.yandex.ua/2/channels/916
p1432
sg1420
I2
sbsI3
g1408
(g1409
g1410
Ntp1433
Rp1434
(dp1435
g1414
Vhttp://avatars.yandex.net/get-tv-channel-logos/1357919415462M55430/orig
p1436
sg1416
VNick Jr
p1437
sg1418
Vhttp://tv.yandex.ua/2/channels/917
p1438
sg1420
I3
sbsI4
g1408
(g1409
g1410
Ntp1439
Rp1440
(dp1441
g1414
Vhttp://avatars.yandex.net/get-tv-channel-logos/1357913833499M24505/orig
p1442
sg1416
VAMEDIA
p1443
sg1418
Vhttp://tv.yandex.ua/2/channels/918
p1444
sg1420
I4
sbsI5
g1408
(g1409
g1410
Ntp1445
Rp1446
(dp1447
g1414
Vhttp://avatars.yandex.net/get-tv-channel-logos/1357918253235M64900/orig
p1448
sg1416
VFashion One
p1449
sg1418
Vhttp://tv.yandex.ua/2/channels/919
p1450
sg1420
I5
sbsI6
g1408
(g1409
g1410
Ntp1451
Rp1452
(dp1453
g1414
Vhttp://avatars.yandex.net/get-tv-channel-logos/1357919285434M73777/orig
p1454
sg1416
VNHK WORLD TV
p1455
sg1418
Vhttp://tv.yandex.ua/2/channels/921
p1456
sg1420
I6
sbsI7
g1408
(g1409
g1410
Ntp1457
Rp1458
(dp1459
g1414
Vhttp://avatars.yandex.net/get-tv-channel-logos/1356772326416M40210/orig
p1460
sg1416
V\u041f\u0435\u0440\u0432\u044b\u0439 \u0418\u043d\u0442\u0435\u0440\u043d\u0435\u0442 \u041a\u0430\u043d\u0430\u043b
p1461
sg1418
Vhttp://tv.yandex.ua/2/channels/922
p1462
sg1420
I7
sbsI8
g1408
(g1409
g1410
Ntp1463
Rp1464
(dp1465
g1414
Vhttp://avatars.yandex.net/get-tv-channel-logos/1357918360691M18459/orig
p1466
sg1416
VGalaxy TV
p1467
sg1418
Vhttp://tv.yandex.ua/2/channels/924
p1468
sg1420
I8
sbsI9
g1408
(g1409
g1410
Ntp1469
Rp1470
(dp1471
g1414
Nsg1416
V\u0422\u0435\u0430\u0442\u0440
p1472
sg1418
Vhttp://tv.yandex.ua/2/channels/925
p1473
sg1420
I9
sbsI10
g1408
(g1409
g1410
Ntp1474
Rp1475
(dp1476
g1414
Vhttp://avatars.yandex.net/get-tv-channel-logos/1357920601762M75520/orig
p1477
sg1416
V\u041e\u0421\u0422
p1478
sg1418
Vhttp://tv.yandex.ua/2/channels/926
p1479
sg1420
I10
sbsI11
g1408
(g1409
g1410
Ntp1480
Rp1481
(dp1482
g1414
Vhttp://avatars.yandex.net/get-tv-channel-logos/1357918486310M81107/orig
p1483
sg1416
ViConcerts
p1484
sg1418
Vhttp://tv.yandex.ua/2/channels/927
p1485
sg1420
I11
sbsI12
g1408
(g1409
g1410
Ntp1486
Rp1487
(dp1488
g1414
Vhttp://avatars.yandex.net/get-tv-channel-logos/1357918127889M80429/orig
p1489
sg1416
VDiscovery \u0412\u043e\u0441\u0442\u043e\u0447\u043d\u0430\u044f \u0415\u0432\u0440\u043e\u043f\u0430
p1490
sg1418
Vhttp://tv.yandex.ua/2/channels/928
p1491
sg1420
I12
sbsI13
g1408
(g1409
g1410
Ntp1492
Rp1493
(dp1494
g1414
Vhttp://avatars.yandex.net/get-tv-channel-logos/1357917814887M75013/orig
p1495
sg1416
VBoomerang
p1496
sg1418
Vhttp://tv.yandex.ua/2/channels/929
p1497
sg1420
I13
sbsI14
g1408
(g1409
g1410
Ntp1498
Rp1499
(dp1500
g1414
Nsg1416
V\u0421\u0438\u043d\u0435\u0440\u0433\u0438\u044f \u0422\u0412
p1501
sg1418
Vhttp://tv.yandex.ua/2/channels/932
p1502
sg1420
I14
sbsI15
g1408
(g1409
g1410
Ntp1503
Rp1504
(dp1505
g1414
Vhttp://avatars.yandex.net/get-tv-channel-logos/1357921498530M48934/orig
p1506
sg1416
V\u0422\u041d\u0412-\u043f\u043b\u0430\u043d\u0435\u0442\u0430
p1507
sg1418
Vhttp://tv.yandex.ua/2/channels/933
p1508
sg1420
I15
sbsI16
g1408
(g1409
g1410
Ntp1509
Rp1510
(dp1511
g1414
Vhttp://avatars.yandex.net/get-tv-channel-logos/1356772679907M96463/orig
p1512
sg1416
VMGM HD
p1513
sg1418
Vhttp://tv.yandex.ua/2/channels/934
p1514
sg1420
I16
sbsI17
g1408
(g1409
g1410
Ntp1515
Rp1516
(dp1517
g1414
Vhttp://avatars.yandex.net/get-tv-channel-logos/1357913701365M55366/orig
p1518
sg1416
VSony Turbo
p1519
sg1418
Vhttp://tv.yandex.ua/2/channels/935
p1520
sg1420
I17
sbsI18
g1408
(g1409
g1410
Ntp1521
Rp1522
(dp1523
g1414
Vhttp://avatars.yandex.net/get-tv-shows/1333716066631M98688/orig
p1524
sg1416
V\u0420\u043e\u0441\u0441\u0438\u044f 1
p1525
sg1418
Vhttp://tv.yandex.ua/2/channels/317
p1526
sg1420
I18
sbsI19
g1408
(g1409
g1410
Ntp1527
Rp1528
(dp1529
g1414
Vhttp://avatars.yandex.net/get-tv-shows/1333712887585M67383/orig
p1530
sg1416
V\u0422\u0412 \u0426\u0435\u043d\u0442\u0440 - \u041e\u0422\u0412
p1531
sg1418
Vhttp://tv.yandex.ua/2/channels/287
p1532
sg1420
I19
sbsI20
g1408
(g1409
g1410
Ntp1533
Rp1534
(dp1535
g1414
Vhttp://avatars.yandex.net/get-tv-channel-logos/1335163832298M56121/orig
p1536
sg1416
V\u041d\u0422\u0412-\u041f\u0435\u0442\u0435\u0440\u0431\u0443\u0440\u0433
p1537
sg1418
Vhttp://tv.yandex.ua/2/channels/137
p1538
sg1420
I20
sbsI21
g1408
(g1409
g1410
Ntp1539
Rp1540
(dp1541
g1414
Vhttp://avatars.yandex.net/get-tv-shows/1333715287454M38977/orig
p1542
sg1416
V\u041a\u0443\u043b\u044c\u0442\u0443\u0440\u0430
p1543
sg1418
Vhttp://tv.yandex.ua/2/channels/371
p1544
sg1420
I21
sbsI22
g1408
(g1409
g1410
Ntp1545
Rp1546
(dp1547
g1414
Vhttp://avatars.yandex.net/get-tv-shows/1333715970102M90164/orig
p1548
sg1416
V\u0420\u043e\u0441\u0441\u0438\u044f 2
p1549
sg1418
Vhttp://tv.yandex.ua/2/channels/515
p1550
sg1420
I22
sbsI23
g1408
(g1409
g1410
Ntp1551
Rp1552
(dp1553
g1414
Vhttp://avatars.yandex.net/get-tv-shows/1333716877668M81858/orig
p1554
sg1416
V\u0422\u041d\u0422
p1555
sg1418
Vhttp://tv.yandex.ua/2/channels/749
p1556
sg1420
I23
sbsI24
g1408
(g1409
g1410
Ntp1557
Rp1558
(dp1559
g1414
Vhttp://avatars.yandex.net/get-tv-shows/1333708022681M12762/orig
p1560
sg1416
V\u041d\u0435\u0432\u0441\u043a\u0438\u0439 \u043a\u0430\u043d\u0430\u043b - \u0414\u043e\u043c\u0430\u0448\u043d\u0438\u0439
p1561
sg1418
Vhttp://tv.yandex.ua/2/channels/222
p1562
sg1420
I24
sbsI25
g1408
(g1409
g1410
Ntp1563
Rp1564
(dp1565
g1414
Vhttp://avatars.yandex.net/get-tv-shows/1333712627444M1787/orig
p1566
sg1416
V\u0420\u0415\u041d \u0422\u0412
p1567
sg1418
Vhttp://tv.yandex.ua/2/channels/549
p1568
sg1420
I25
sbsI26
g1408
(g1409
g1410
Ntp1569
Rp1570
(dp1571
g1414
Vhttp://avatars.yandex.net/get-tv-channel-logos/1348142097301M59393/orig
p1572
sg1416
V\u0421\u0422\u0421-\u041f\u0435\u0442\u0435\u0440\u0431\u0443\u0440\u0433
p1573
sg1418
Vhttp://tv.yandex.ua/2/channels/654
p1574
sg1420
I26
sbsI27
g1408
(g1409
g1410
Ntp1575
Rp1576
(dp1577
g1414
Vhttp://avatars.yandex.net/get-tv-shows/1333715841928M45795/orig
p1578
sg1416
V5 \u043a\u0430\u043d\u0430\u043b
p1579
sg1418
Vhttp://tv.yandex.ua/2/channels/504
p1580
sg1420
I27
sbsI28
g1408
(g1409
g1410
Ntp1581
Rp1582
(dp1583
g1414
Vhttp://avatars.yandex.net/get-tv-channel-logos/1335452077321M11620/orig
p1584
sg1416
V\u0417\u0432\u0435\u0437\u0434\u0430
p1585
sg1418
Vhttp://tv.yandex.ua/2/channels/405
p1586
sg1420
I28
sbsI29
g1408
(g1409
g1410
Ntp1587
Rp1588
(dp1589
g1414
Vhttp://avatars.yandex.net/get-tv-shows/1333715624031M64884/orig
p1590
sg1416
V\u041f\u0415\u0420\u0415\u0426
p1591
sg1418
Vhttp://tv.yandex.ua/2/channels/511
p1592
sg1420
I29
sbsI30
g1408
(g1409
g1410
Ntp1593
Rp1594
(dp1595
g1414
Vhttp://avatars.yandex.net/get-tv-channel-logos/1347983572357M54298/orig
p1596
sg1416
V\u0422\u04123
p1597
sg1418
Vhttp://tv.yandex.ua/2/channels/279
p1598
sg1420
I30
sbsI31
g1408
(g1409
g1410
Ntp1599
Rp1600
(dp1601
g1414
Vhttp://avatars.yandex.net/get-tv-shows/1333715530204M4877/orig
p1602
sg1416
V\u0421\u0422\u041e
p1603
sg1418
Vhttp://tv.yandex.ua/2/channels/812
p1604
sg1420
I31
sbsI32
g1408
(g1409
g1410
Ntp1605
Rp1606
(dp1607
g1414
Vhttp://avatars.yandex.net/get-tv-channel-logos/1342424632063M32867/orig
p1608
sg1416
V\u0422\u0432\u043e\u0439 TV \u041f\u0435\u0442\u0435\u0440\u0431\u0443\u0440\u0433
p1609
sg1418
Vhttp://tv.yandex.ua/2/channels/38
p1610
sg1420
I32
sbsI33
g1408
(g1409
g1410
Ntp1611
Rp1612
(dp1613
g1414
Vhttp://avatars.yandex.net/get-tv-channel-logos/1347460169999M38830/orig
p1614
sg1416
V\u0421\u0430\u043d\u043a\u0442-\u041f\u0435\u0442\u0435\u0440\u0431\u0443\u0440\u0433
p1615
sg1418
Vhttp://tv.yandex.ua/2/channels/690
p1616
sg1420
I33
sbsI34
g1408
(g1409
g1410
Ntp1617
Rp1618
(dp1619
g1414
Vhttp://avatars.yandex.net/get-tv-shows/1333715233642M2369/orig
p1620
sg1416
V\u0420\u043e\u0441\u0441\u0438\u044f 24
p1621
sg1418
Vhttp://tv.yandex.ua/2/channels/291
p1622
sg1420
I34
sbsI35
g1408
(g1409
g1410
Ntp1623
Rp1624
(dp1625
g1414
Vhttp://avatars.yandex.net/get-tv-shows/1333716066753M79169/orig
p1626
sg1416
V\u041a\u0430\u0440\u0443\u0441\u0435\u043b\u044c
p1627
sg1418
Vhttp://tv.yandex.ua/2/channels/740
p1628
sg1420
I35
sbsI36
g1408
(g1409
g1410
Ntp1629
Rp1630
(dp1631
g1414
Vhttp://avatars.yandex.net/get-tv-shows/1333712702411M41452/orig
p1632
sg1416
V2x2
p1633
sg1418
Vhttp://tv.yandex.ua/2/channels/323
p1634
sg1420
I36
sbsI37
g1408
(g1409
g1410
Ntp1635
Rp1636
(dp1637
g1414
Vhttp://avatars.yandex.net/get-tv-channel-logos/1340776908160M60325/orig
p1638
sg1416
VMTV
p1639
sg1418
Vhttp://tv.yandex.ua/2/channels/557
p1640
sg1420
I37
sbsI38
g1408
(g1409
g1410
Ntp1641
Rp1642
(dp1643
g1414
Vhttp://avatars.yandex.net/get-tv-channel-logos/1348230415979M21720/orig
p1644
sg1416
V\u042e
p1645
sg1418
Vhttp://tv.yandex.ua/2/channels/898
p1646
sg1420
I38
sbsI39
g1408
(g1409
g1410
Ntp1647
Rp1648
(dp1649
g1414
Vhttp://avatars.yandex.net/get-tv-channel-logos/1335334386799M30858/orig
p1650
sg1416
V\u041a\u0430\u043d\u0430\u043b Disney
p1651
sg1418
Vhttp://tv.yandex.ua/2/channels/150
p1652
sg1420
I39
sbsI40
g1408
(g1409
g1410
Ntp1653
Rp1654
(dp1655
g1414
Vhttp://avatars.yandex.net/get-tv-shows/1333715305318M14526/orig
p1656
sg1416
V24 \u0422\u0435\u0445\u043d\u043e
p1657
sg1418
Vhttp://tv.yandex.ua/2/channels/710
p1658
sg1420
I40
sbsI41
g1408
(g1409
g1410
Ntp1659
Rp1660
(dp1661
g1414
Vhttp://avatars.yandex.net/get-tv-shows/1333716796927M20496/orig
p1662
sg1416
VAB Moteurs
p1663
sg1418
Vhttp://tv.yandex.ua/2/channels/579
p1664
sg1420
I41
sbsI42
g1408
(g1409
g1410
Ntp1665
Rp1666
(dp1667
g1414
Vhttp://avatars.yandex.net/get-tv-shows/1333708911984M73554/orig
p1668
sg1416
VAmazing Life
p1669
sg1418
Vhttp://tv.yandex.ua/2/channels/658
p1670
sg1420
I42
sbsI43
g1408
(g1409
g1410
Ntp1671
Rp1672
(dp1673
g1414
Vhttp://avatars.yandex.net/get-tv-shows/1333713824656M29108/orig
p1674
sg1416
VAjara TV
p1675
sg1418
Vhttp://tv.yandex.ua/2/channels/756
p1676
sg1420
I43
sbsI44
g1408
(g1409
g1410
Ntp1677
Rp1678
(dp1679
g1414
Vhttp://avatars.yandex.net/get-tv-shows/1333713418822M90839/orig
p1680
sg1416
VAnimal Planet
p1681
sg1418
Vhttp://tv.yandex.ua/2/channels/365
p1682
sg1420
I44
sbsI45
g1408
(g1409
g1410
Ntp1683
Rp1684
(dp1685
g1414
Vhttp://avatars.yandex.net/get-tv-channel-logos/1347977468008M80159/orig
p1686
sg1416
VAXN Sci-Fi
p1687
sg1418
Vhttp://tv.yandex.ua/2/channels/516
p1688
sg1420
I45
sbsI46
g1408
(g1409
g1410
Ntp1689
Rp1690
(dp1691
g1414
Vhttp://avatars.yandex.net/get-tv-shows/1333713774748M13525/orig
p1692
sg1416
VBloomberg
p1693
sg1418
Vhttp://tv.yandex.ua/2/channels/463
p1694
sg1420
I46
sbsI47
g1408
(g1409
g1410
Ntp1695
Rp1696
(dp1697
g1414
Vhttp://avatars.yandex.net/get-tv-shows/1333713460684M81763/orig
p1698
sg1416
VCartoon Network
p1699
sg1418
Vhttp://tv.yandex.ua/2/channels/601
p1700
sg1420
I47
sbsI48
g1408
(g1409
g1410
Ntp1701
Rp1702
(dp1703
g1414
Vhttp://avatars.yandex.net/get-tv-shows/1333715265608M77219/orig
p1704
sg1416
VBBC World
p1705
sg1418
Vhttp://tv.yandex.ua/2/channels/828
p1706
sg1420
I48
sbsI49
g1408
(g1409
g1410
Ntp1707
Rp1708
(dp1709
g1414
Vhttp://avatars.yandex.net/get-tv-shows/1333713868645M58659/orig
p1710
sg1416
VCNN
p1711
sg1418
Vhttp://tv.yandex.ua/2/channels/495
p1712
sg1420
I49
sbsI50
g1408
(g1409
g1410
Ntp1713
Rp1714
(dp1715
g1414
Vhttp://avatars.yandex.net/get-tv-shows/1333716035229M94207/orig
p1716
sg1416
VDiscovery Channel
p1717
sg1418
Vhttp://tv.yandex.ua/2/channels/325
p1718
sg1420
I50
sbsI51
g1408
(g1409
g1410
Ntp1719
Rp1720
(dp1721
g1414
Vhttp://avatars.yandex.net/get-tv-channel-logos/1358335632205M86039/orig
p1722
sg1416
VDiscovery Science
p1723
sg1418
Vhttp://tv.yandex.ua/2/channels/409
p1724
sg1420
I51
sbsI52
g1408
(g1409
g1410
Ntp1725
Rp1726
(dp1727
g1414
Vhttp://avatars.yandex.net/get-tv-shows/1333712606553M24172/orig
p1728
sg1416
VDeutsche Welle
p1729
sg1418
Vhttp://tv.yandex.ua/2/channels/355
p1730
sg1420
I52
sbsI53
g1408
(g1409
g1410
Ntp1731
Rp1732
(dp1733
g1414
Vhttp://avatars.yandex.net/get-tv-channel-logos/1358335592919M76257/orig
p1734
sg1416
VDiscovery World
p1735
sg1418
Vhttp://tv.yandex.ua/2/channels/437
p1736
sg1420
I53
sbsI54
g1408
(g1409
g1410
Ntp1737
Rp1738
(dp1739
g1414
Vhttp://avatars.yandex.net/get-tv-shows/1333713695937M46754/orig
p1740
sg1416
VESPN classic
p1741
sg1418
Vhttp://tv.yandex.ua/2/channels/60
p1742
sg1420
I54
sbsI55
g1408
(g1409
g1410
Ntp1743
Rp1744
(dp1745
g1414
Vhttp://avatars.yandex.net/get-tv-shows/1333715747653M72464/orig
p1746
sg1416
VEuroNews
p1747
sg1418
Vhttp://tv.yandex.ua/2/channels/23
p1748
sg1420
I55
sbsI56
g1408
(g1409
g1410
Ntp1749
Rp1750
(dp1751
g1414
Vhttp://avatars.yandex.net/get-tv-shows/1333713989705M95921/orig
p1752
sg1416
VEurosport 2
p1753
sg1418
Vhttp://tv.yandex.ua/2/channels/850
p1754
sg1420
I56
sbsI57
g1408
(g1409
g1410
Ntp1755
Rp1756
(dp1757
g1414
Vhttp://avatars.yandex.net/get-tv-shows/1333716877043M9588/orig
p1758
sg1416
VExtreme Sports
p1759
sg1418
Vhttp://tv.yandex.ua/2/channels/288
p1760
sg1420
I57
sbsI58
g1408
(g1409
g1410
Ntp1761
Rp1762
(dp1763
g1414
Vhttp://avatars.yandex.net/get-tv-shows/1333713810610M50051/orig
p1764
sg1416
VFashion TV
p1765
sg1418
Vhttp://tv.yandex.ua/2/channels/661
p1766
sg1420
I58
sbsI59
g1408
(g1409
g1410
Ntp1767
Rp1768
(dp1769
g1414
Vhttp://avatars.yandex.net/get-tv-shows/1333713925399M49999/orig
p1770
sg1416
VHD \u0421\u043f\u043e\u0440\u0442
p1771
sg1418
Vhttp://tv.yandex.ua/2/channels/429
p1772
sg1420
I59
sbsI60
g1408
(g1409
g1410
Ntp1773
Rp1774
(dp1775
g1414
Vhttp://avatars.yandex.net/get-tv-shows/1333713840422M72865/orig
p1776
sg1416
VMezzo
p1777
sg1418
Vhttp://tv.yandex.ua/2/channels/575
p1778
sg1420
I60
sbsI61
g1408
(g1409
g1410
Ntp1779
Rp1780
(dp1781
g1414
Vhttp://avatars.yandex.net/get-tv-shows/1333715529423M53477/orig
p1782
sg1416
VNational Geographic
p1783
sg1418
Vhttp://tv.yandex.ua/2/channels/102
p1784
sg1420
I61
sbsI62
g1408
(g1409
g1410
Ntp1785
Rp1786
(dp1787
g1414
Vhttp://avatars.yandex.net/get-tv-shows/1333715355758M56368/orig
p1788
sg1416
VLuxe HD
p1789
sg1418
Vhttp://tv.yandex.ua/2/channels/312
p1790
sg1420
I62
sbsI63
g1408
(g1409
g1410
Ntp1791
Rp1792
(dp1793
g1414
Vhttp://avatars.yandex.net/get-tv-shows/1333713621438M28015/orig
p1794
sg1416
VNickelodeon
p1795
sg1418
Vhttp://tv.yandex.ua/2/channels/567
p1796
sg1420
I63
sbsI64
g1408
(g1409
g1410
Ntp1797
Rp1798
(dp1799
g1414
Vhttp://avatars.yandex.net/get-tv-shows/1333713085591M64755/orig
p1800
sg1416
VOcean TV
p1801
sg1418
Vhttp://tv.yandex.ua/2/channels/55
p1802
sg1420
I64
sbsI65
g1408
(g1409
g1410
Ntp1803
Rp1804
(dp1805
g1414
Vhttp://avatars.yandex.net/get-tv-shows/1333715680495M54747/orig
p1806
sg1416
VSyFy
p1807
sg1418
Vhttp://tv.yandex.ua/2/channels/75
p1808
sg1420
I65
sbsI66
g1408
(g1409
g1410
Ntp1809
Rp1810
(dp1811
g1414
Vhttp://avatars.yandex.net/get-tv-shows/1333715322381M67288/orig
p1812
sg1416
VTV1000
p1813
sg1418
Vhttp://tv.yandex.ua/2/channels/127
p1814
sg1420
I66
sbsI67
g1408
(g1409
g1410
Ntp1815
Rp1816
(dp1817
g1414
Vhttp://avatars.yandex.net/get-tv-shows/1333716722923M49423/orig
p1818
sg1416
VTV1000 \u0420\u0443\u0441\u0441\u043a\u043e\u0435 \u043a\u0438\u043d\u043e
p1819
sg1418
Vhttp://tv.yandex.ua/2/channels/267
p1820
sg1420
I67
sbsI68
g1408
(g1409
g1410
Ntp1821
Rp1822
(dp1823
g1414
Vhttp://avatars.yandex.net/get-tv-shows/1333713975231M23496/orig
p1824
sg1416
VTV XXI
p1825
sg1418
Vhttp://tv.yandex.ua/2/channels/309
p1826
sg1420
I68
sbsI69
g1408
(g1409
g1410
Ntp1827
Rp1828
(dp1829
g1414
Vhttp://avatars.yandex.net/get-tv-shows/1333713708028M30550/orig
p1830
sg1416
VTV5
p1831
sg1418
Vhttp://tv.yandex.ua/2/channels/589
p1832
sg1420
I69
sbsI70
g1408
(g1409
g1410
Ntp1833
Rp1834
(dp1835
g1414
Vhttp://avatars.yandex.net/get-tv-shows/1333713528423M49234/orig
p1836
sg1416
VUniversal Channel
p1837
sg1418
Vhttp://tv.yandex.ua/2/channels/213
p1838
sg1420
I70
sbsI71
g1408
(g1409
g1410
Ntp1839
Rp1840
(dp1841
g1414
Vhttp://avatars.yandex.net/get-tv-shows/1333715635729M66606/orig
p1842
sg1416
VViasat Explorer
p1843
sg1418
Vhttp://tv.yandex.ua/2/channels/521
p1844
sg1420
I71
sbsI72
g1408
(g1409
g1410
Ntp1845
Rp1846
(dp1847
g1414
Vhttp://avatars.yandex.net/get-tv-shows/1333715410270M23339/orig
p1848
sg1416
VViasat History
p1849
sg1418
Vhttp://tv.yandex.ua/2/channels/277
p1850
sg1420
I72
sbsI73
g1408
(g1409
g1410
Ntp1851
Rp1852
(dp1853
g1414
Vhttp://avatars.yandex.net/get-tv-shows/1333707549264M49253/orig
p1854
sg1416
VWorld Fashion Channel
p1855
sg1418
Vhttp://tv.yandex.ua/2/channels/346
p1856
sg1420
I73
sbsI74
g1408
(g1409
g1410
Ntp1857
Rp1858
(dp1859
g1414
Vhttp://avatars.yandex.net/get-tv-shows/1333716071391M27068/orig
p1860
sg1416
V\u0411\u043e\u0435\u0446
p1861
sg1418
Vhttp://tv.yandex.ua/2/channels/454
p1862
sg1420
I74
sbsI75
g1408
(g1409
g1410
Ntp1863
Rp1864
(dp1865
g1414
Vhttp://avatars.yandex.net/get-tv-shows/1333713688755M57280/orig
p1866
sg1416
V\u0412\u0440\u0435\u043c\u044f
p1867
sg1418
Vhttp://tv.yandex.ua/2/channels/669
p1868
sg1420
I75
sbsI76
g1408
(g1409
g1410
Ntp1869
Rp1870
(dp1871
g1414
Vhttp://avatars.yandex.net/get-tv-channel-logos/1348587564748M70641/orig
p1872
sg1416
V\u0414\u0435\u0442\u0441\u043a\u0438\u0439
p1873
sg1418
Vhttp://tv.yandex.ua/2/channels/66
p1874
sg1420
I76
sbsI77
g1408
(g1409
g1410
Ntp1875
Rp1876
(dp1877
g1414
Vhttp://avatars.yandex.net/get-tv-channel-logos/1356771171081M25756/orig
p1878
sg1416
V\u0414\u0435\u0442\u0441\u043a\u0438\u0439 \u043c\u0438\u0440
p1879
sg1418
Vhttp://tv.yandex.ua/2/channels/747
p1880
sg1420
I77
sbsI78
g1408
(g1409
g1410
Ntp1881
Rp1882
(dp1883
g1414
Vhttp://avatars.yandex.net/get-tv-shows/1333708636011M82578/orig
p1884
sg1416
V\u0414\u043e\u043c \u043a\u0438\u043d\u043e
p1885
sg1418
Vhttp://tv.yandex.ua/2/channels/834
p1886
sg1420
I78
sbsI79
g1408
(g1409
g1410
Ntp1887
Rp1888
(dp1889
g1414
Vhttp://avatars.yandex.net/get-tv-shows/1333707554614M47050/orig
p1890
sg1416
V\u0417\u043e\u043e \u0422\u0412
p1891
sg1418
Vhttp://tv.yandex.ua/2/channels/273
p1892
sg1420
I79
sbsI80
g1408
(g1409
g1410
Ntp1893
Rp1894
(dp1895
g1414
Vhttp://avatars.yandex.net/get-tv-shows/1333715691315M43621/orig
p1896
sg1416
V\u0418\u043b\u043b\u044e\u0437\u0438\u043e\u043d +
p1897
sg1418
Vhttp://tv.yandex.ua/2/channels/123
p1898
sg1420
I80
sbsI81
g1408
(g1409
g1410
Ntp1899
Rp1900
(dp1901
g1414
Vhttp://avatars.yandex.net/get-tv-shows/1333707995986M34877/orig
p1902
sg1416
V\u0418\u043d\u0434\u0438\u044f \u0422\u0412
p1903
sg1418
Vhttp://tv.yandex.ua/2/channels/798
p1904
sg1420
I81
sbsI82
g1408
(g1409
g1410
Ntp1905
Rp1906
(dp1907
g1414
Vhttp://avatars.yandex.net/get-tv-shows/1333708316300M57639/orig
p1908
sg1416
V\u041a\u0438\u043d\u043e\u043a\u043b\u0443\u0431
p1909
sg1418
Vhttp://tv.yandex.ua/2/channels/462
p1910
sg1420
I82
sbsI83
g1408
(g1409
g1410
Ntp1911
Rp1912
(dp1913
g1414
Vhttp://avatars.yandex.net/get-tv-shows/1333716891806M18999/orig
p1914
sg1416
V\u041a\u0438\u043d\u043e\u043f\u043e\u043a\u0430\u0437
p1915
sg1418
Vhttp://tv.yandex.ua/2/channels/22
p1916
sg1420
I83
sbsI84
g1408
(g1409
g1410
Ntp1917
Rp1918
(dp1919
g1414
Vhttp://avatars.yandex.net/get-tv-shows/1333715225057M89214/orig
p1920
sg1416
V\u041a\u0438\u043d\u043e\u0441\u043e\u044e\u0437
p1921
sg1418
Vhttp://tv.yandex.ua/2/channels/71
p1922
sg1420
I84
sbsI85
g1408
(g1409
g1410
Ntp1923
Rp1924
(dp1925
g1414
Vhttp://avatars.yandex.net/get-tv-shows/1333713093430M11517/orig
p1926
sg1416
V\u041a\u0438\u043d\u043e\u0445\u0438\u0442
p1927
sg1418
Vhttp://tv.yandex.ua/2/channels/542
p1928
sg1420
I85
sbsI86
g1408
(g1409
g1410
Ntp1929
Rp1930
(dp1931
g1414
Vhttp://avatars.yandex.net/get-tv-channel-logos/1352298708156M61329/orig
p1932
sg1416
V\u041c\u0430\u0442\u044c \u0438 \u0434\u0438\u0442\u044f
p1933
sg1418
Vhttp://tv.yandex.ua/2/channels/618
p1934
sg1420
I86
sbsI87
g1408
(g1409
g1410
Ntp1935
Rp1936
(dp1937
g1414
Vhttp://avatars.yandex.net/get-tv-shows/1333713764780M72648/orig
p1938
sg1416
V\u041c\u043e\u044f \u041f\u043b\u0430\u043d\u0435\u0442\u0430
p1939
sg1418
Vhttp://tv.yandex.ua/2/channels/675
p1940
sg1420
I87
sbsI88
g1408
(g1409
g1410
Ntp1941
Rp1942
(dp1943
g1414
Vhttp://avatars.yandex.net/get-tv-channel-logos/1352298732686M97290/orig
p1944
sg1416
V\u041d\u0430\u0441\u0442\u043e\u044f\u0449\u0435\u0435 \u0421\u0442\u0440\u0430\u0448\u043d\u043e\u0435 \u0422\u0435\u043b\u0435\u0432\u0438\u0434\u0435\u043d\u0438\u0435
p1945
sg1418
Vhttp://tv.yandex.ua/2/channels/518
p1946
sg1420
I88
sbsI89
g1408
(g1409
g1410
Ntp1947
Rp1948
(dp1949
g1414
Vhttp://avatars.yandex.net/get-tv-shows/1333715883475M39981/orig
p1950
sg1416
V\u041d\u0430\u0448\u0435 \u043a\u0438\u043d\u043e
p1951
sg1418
Vhttp://tv.yandex.ua/2/channels/12
p1952
sg1420
I89
sbsI90
g1408
(g1409
g1410
Ntp1953
Rp1954
(dp1955
g1414
Vhttp://avatars.yandex.net/get-tv-shows/1333715281884M92118/orig
p1956
sg1416
V\u041d\u0430\u0448\u0435 \u041d\u043e\u0432\u043e\u0435 \u041a\u0438\u043d\u043e
p1957
sg1418
Vhttp://tv.yandex.ua/2/channels/485
p1958
sg1420
I90
sbsI91
g1408
(g1409
g1410
Ntp1959
Rp1960
(dp1961
g1414
Vhttp://avatars.yandex.net/get-tv-shows/1333709127662M17128/orig
p1962
sg1416
V\u041d\u043e\u0441\u0442\u0430\u043b\u044c\u0433\u0438\u044f
p1963
sg1418
Vhttp://tv.yandex.ua/2/channels/783
p1964
sg1420
I91
sbsI92
g1408
(g1409
g1410
Ntp1965
Rp1966
(dp1967
g1414
Vhttp://avatars.yandex.net/get-tv-shows/1333715457097M72151/orig
p1968
sg1416
V\u041e\u0445\u043e\u0442\u0430 \u0438 \u0440\u044b\u0431\u0430\u043b\u043a\u0430
p1969
sg1418
Vhttp://tv.yandex.ua/2/channels/617
p1970
sg1420
I92
sbsI93
g1408
(g1409
g1410
Ntp1971
Rp1972
(dp1973
g1414
Vhttp://avatars.yandex.net/get-tv-shows/1333707582031M183/orig
p1974
sg1416
V\u041f\u0440\u0435\u043c\u044c\u0435\u0440\u0430
p1975
sg1418
Vhttp://tv.yandex.ua/2/channels/566
p1976
sg1420
I93
sbsI94
g1408
(g1409
g1410
Ntp1977
Rp1978
(dp1979
g1414
Vhttp://avatars.yandex.net/get-tv-shows/1333712861918M74194/orig
p1980
sg1416
V\u0420\u0430\u0434\u043e\u0441\u0442\u044c \u041c\u043e\u044f
p1981
sg1418
Vhttp://tv.yandex.ua/2/channels/638
p1982
sg1420
I94
sbsI95
g1408
(g1409
g1410
Ntp1983
Rp1984
(dp1985
g1414
Vhttp://avatars.yandex.net/get-tv-shows/1333715993038M13981/orig
p1986
sg1416
V\u041c\u0443\u0437\u044b\u043a\u0430 \u041f\u0435\u0440\u0432\u043e\u0433\u043e
p1987
sg1418
Vhttp://tv.yandex.ua/2/channels/715
p1988
sg1420
I95
sbsI96
g1408
(g1409
g1410
Ntp1989
Rp1990
(dp1991
g1414
Vhttp://avatars.yandex.net/get-tv-shows/1333716071911M4423/orig
p1992
sg1416
V\u0420\u0411\u041a
p1993
sg1418
Vhttp://tv.yandex.ua/2/channels/743
p1994
sg1420
I96
sbsI97
g1408
(g1409
g1410
Ntp1995
Rp1996
(dp1997
g1414
Vhttp://avatars.yandex.net/get-tv-channel-logos/1348587808200M68387/orig
p1998
sg1416
V\u0420\u0443\u0441\u0441\u043a\u0438\u0439 \u0418\u043b\u043b\u044e\u0437\u0438\u043e\u043d
p1999
sg1418
Vhttp://tv.yandex.ua/2/channels/53
p2000
sg1420
I97
sbsI98
g1408
(g1409
g1410
Ntp2001
Rp2002
(dp2003
g1414
Vhttp://avatars.yandex.net/get-tv-shows/1333709116007M94471/orig
p2004
sg1416
V\u0420\u0443\u0441\u0441\u043a\u0438\u0439 \u042d\u043a\u0441\u0442\u0440\u0438\u043c
p2005
sg1418
Vhttp://tv.yandex.ua/2/channels/406
p2006
sg1420
I98
sbsI99
g1408
(g1409
g1410
Ntp2007
Rp2008
(dp2009
g1414
Vhttp://avatars.yandex.net/get-tv-channel-logos/1347458235853M37527/orig
p2010
sg1416
V\u0421\u0430\u0440\u0430\u0444\u0430\u043d
p2011
sg1418
Vhttp://tv.yandex.ua/2/channels/663
p2012
sg1420
I99
sbsI100
g1408
(g1409
g1410
Ntp2013
Rp2014
(dp2015
g1414
Vhttp://avatars.yandex.net/get-tv-shows/1333713216376M58195/orig
p2016
sg1416
V\u0421\u043f\u0430\u0441 \u0422\u0412
p2017
sg1418
Vhttp://tv.yandex.ua/2/channels/447
p2018
sg1420
I100
sbsI101
g1408
(g1409
g1410
Ntp2019
Rp2020
(dp2021
g1414
Vhttp://avatars.yandex.net/get-tv-shows/1333715467716M44576/orig
p2022
sg1416
V\u0421\u043f\u043e\u0440\u0442 1
p2023
sg1418
Vhttp://tv.yandex.ua/2/channels/181
p2024
sg1420
I101
sbsI102
g1408
(g1409
g1410
Ntp2025
Rp2026
(dp2027
g1414
Vhttp://avatars.yandex.net/get-tv-shows/1333708104672M58814/orig
p2028
sg1416
V\u041e2\u0422\u0412
p2029
sg1418
Vhttp://tv.yandex.ua/2/channels/777
p2030
sg1420
I102
sbsI103
g1408
(g1409
g1410
Ntp2031
Rp2032
(dp2033
g1414
Vhttp://avatars.yandex.net/get-tv-shows/1333715984312M65283/orig
p2034
sg1416
V\u0422\u0435\u043b\u0435\u043a\u0430\u0444\u0435
p2035
sg1418
Vhttp://tv.yandex.ua/2/channels/173
p2036
sg1420
I103
sbsI104
g1408
(g1409
g1410
Ntp2037
Rp2038
(dp2039
g1414
Vhttp://avatars.yandex.net/get-tv-shows/1333712862861M8549/orig
p2040
sg1416
V\u0422\u0435\u043b\u0435\u043a\u043b\u0443\u0431
p2041
sg1418
Vhttp://tv.yandex.ua/2/channels/163
p2042
sg1420
I104
sbsI105
g1408
(g1409
g1410
Ntp2043
Rp2044
(dp2045
g1414
Vhttp://avatars.yandex.net/get-tv-shows/1333715659064M35098/orig
p2046
sg1416
V\u0422\u0435\u043b\u0435\u043f\u0443\u0442\u0435\u0448\u0435\u0441\u0442\u0432\u0438\u044f
p2047
sg1418
Vhttp://tv.yandex.ua/2/channels/794
p2048
sg1420
I105
sbsI106
g1408
(g1409
g1410
Ntp2049
Rp2050
(dp2051
g1414
Vhttp://avatars.yandex.net/get-tv-shows/1333717714948M87568/orig
p2052
sg1416
V\u0422\u0438\u043d \u0422\u0412
p2053
sg1418
Vhttp://tv.yandex.ua/2/channels/716
p2054
sg1420
I106
sbsI107
g1408
(g1409
g1410
Ntp2055
Rp2056
(dp2057
g1414
Vhttp://avatars.yandex.net/get-tv-shows/1333715632130M79158/orig
p2058
sg1416
V\u0422\u041d\u0412
p2059
sg1418
Vhttp://tv.yandex.ua/2/channels/180
p2060
sg1420
I107
sbsI108
g1408
(g1409
g1410
Ntp2061
Rp2062
(dp2063
g1414
Vhttp://avatars.yandex.net/get-tv-shows/1333713418795M13518/orig
p2064
sg1416
V\u0423\u0441\u0430\u0434\u044c\u0431\u0430
p2065
sg1418
Vhttp://tv.yandex.ua/2/channels/779
p2066
sg1420
I108
sbsI109
g1408
(g1409
g1410
Ntp2067
Rp2068
(dp2069
g1414
Vhttp://avatars.yandex.net/get-tv-shows/1333713835801M19218/orig
p2070
sg1416
V\u0424\u0435\u043d\u0438\u043a\u0441+ \u041a\u0438\u043d\u043e
p2071
sg1418
Vhttp://tv.yandex.ua/2/channels/686
p2072
sg1420
I109
sbsI110
g1408
(g1409
g1410
Ntp2073
Rp2074
(dp2075
g1414
Vhttp://avatars.yandex.net/get-tv-shows/1333712629582M95129/orig
p2076
sg1416
V\u042d\u043a\u0441\u043f\u0435\u0440\u0442-\u0422\u0412
p2077
sg1418
Vhttp://tv.yandex.ua/2/channels/781
p2078
sg1420
I110
sbsI111
g1408
(g1409
g1410
Ntp2079
Rp2080
(dp2081
g1414
Vhttp://avatars.yandex.net/get-tv-shows/1333709354444M76906/orig
p2082
sg1416
V24 \u0414\u041e\u041a
p2083
sg1418
Vhttp://tv.yandex.ua/2/channels/16
p2084
sg1420
I111
sbsI112
g1408
(g1409
g1410
Ntp2085
Rp2086
(dp2087
g1414
Vhttp://avatars.yandex.net/get-tv-shows/1333712806377M47354/orig
p2088
sg1416
V\u0421\u0442\u0440\u0430\u043d\u0430
p2089
sg1418
Vhttp://tv.yandex.ua/2/channels/284
p2090
sg1420
I112
sbsI113
g1408
(g1409
g1410
Ntp2091
Rp2092
(dp2093
g1414
Vhttp://avatars.yandex.net/get-tv-shows/1333716896322M65134/orig
p2094
sg1416
VBBC
p2095
sg1418
Vhttp://tv.yandex.ua/2/channels/502
p2096
sg1420
I113
sbsI114
g1408
(g1409
g1410
Ntp2097
Rp2098
(dp2099
g1414
Vhttp://avatars.yandex.net/get-tv-shows/1333716106733M58501/orig
p2100
sg1416
VDa Vinci
p2101
sg1418
Vhttp://tv.yandex.ua/2/channels/410
p2102
sg1420
I114
sbsI115
g1408
(g1409
g1410
Ntp2103
Rp2104
(dp2105
g1414
Vhttp://avatars.yandex.net/get-tv-channel-logos/1349091347332M99473/orig
p2106
sg1416
VFOX
p2107
sg1418
Vhttp://tv.yandex.ua/2/channels/659
p2108
sg1420
I115
sbsI116
g1408
(g1409
g1410
Ntp2109
Rp2110
(dp2111
g1414
Vhttp://avatars.yandex.net/get-tv-shows/1333715973315M28208/orig
p2112
sg1416
VFox Life
p2113
sg1418
Vhttp://tv.yandex.ua/2/channels/615
p2114
sg1420
I116
sbsI117
g1408
(g1409
g1410
Ntp2115
Rp2116
(dp2117
g1414
Vhttp://avatars.yandex.net/get-tv-shows/1333715589076M84567/orig
p2118
sg1416
VGulli
p2119
sg1418
Vhttp://tv.yandex.ua/2/channels/810
p2120
sg1420
I117
sbsI118
g1408
(g1409
g1410
Ntp2121
Rp2122
(dp2123
g1414
Vhttp://avatars.yandex.net/get-tv-shows/1333707848439M17779/orig
p2124
sg1416
V\u0414\u043e\u043c\u0430\u0448\u043d\u0438\u0435 \u0436\u0438\u0432\u043e\u0442\u043d\u044b\u0435
p2125
sg1418
Vhttp://tv.yandex.ua/2/channels/520
p2126
sg1420
I118
sbsI119
g1408
(g1409
g1410
Ntp2127
Rp2128
(dp2129
g1414
Vhttp://avatars.yandex.net/get-tv-channel-logos/1348587696219M11284/orig
p2130
sg1416
V\u0415\u0432\u0440\u043e\u043a\u0438\u043d\u043e
p2131
sg1418
Vhttp://tv.yandex.ua/2/channels/352
p2132
sg1420
I119
sbsI120
g1408
(g1409
g1410
Ntp2133
Rp2134
(dp2135
g1414
Vhttp://avatars.yandex.net/get-tv-shows/1333715354479M98366/orig
p2136
sg1416
VInvestigation Discovery
p2137
sg1418
Vhttp://tv.yandex.ua/2/channels/19
p2138
sg1420
I120
sbsI121
g1408
(g1409
g1410
Ntp2139
Rp2140
(dp2141
g1414
Vhttp://avatars.yandex.net/get-tv-shows/1333715462882M95375/orig
p2142
sg1416
VJimJam
p2143
sg1418
Vhttp://tv.yandex.ua/2/channels/494
p2144
sg1420
I121
sbsI122
g1408
(g1409
g1410
Ntp2145
Rp2146
(dp2147
g1414
Vhttp://avatars.yandex.net/get-tv-shows/1333716823193M39207/orig
p2148
sg1416
VKidsCo
p2149
sg1418
Vhttp://tv.yandex.ua/2/channels/598
p2150
sg1420
I122
sbsI123
g1408
(g1409
g1410
Ntp2151
Rp2152
(dp2153
g1414
Vhttp://avatars.yandex.net/get-tv-shows/1333708147128M24922/orig
p2154
sg1416
V\u041a\u0438\u043d\u043e\u043c\u0430\u043d\u0438\u044f
p2155
sg1418
Vhttp://tv.yandex.ua/2/channels/646
p2156
sg1420
I123
sbsI124
g1408
(g1409
g1410
Ntp2157
Rp2158
(dp2159
g1414
Vhttp://avatars.yandex.net/get-tv-shows/1333715618467M47634/orig
p2160
sg1416
V\u041a\u043e\u043c\u0435\u0434\u0438 \u0422\u0412
p2161
sg1418
Vhttp://tv.yandex.ua/2/channels/51
p2162
sg1420
I124
sbsI125
g1408
(g1409
g1410
Ntp2163
Rp2164
(dp2165
g1414
Vhttp://avatars.yandex.net/get-tv-shows/1333716724098M99858/orig
p2166
sg1416
V\u041a\u0438\u043d\u043e\u043f\u043e\u043a\u0430\u0437 HD-1
p2167
sg1418
Vhttp://tv.yandex.ua/2/channels/138
p2168
sg1420
I125
sbsI126
g1408
(g1409
g1410
Ntp2169
Rp2170
(dp2171
g1414
Vhttp://avatars.yandex.net/get-tv-shows/1333715451260M61766/orig
p2172
sg1416
VC Music TV
p2173
sg1418
Vhttp://tv.yandex.ua/2/channels/319
p2174
sg1420
I126
sbsI127
g1408
(g1409
g1410
Ntp2175
Rp2176
(dp2177
g1414
Vhttp://avatars.yandex.net/get-tv-shows/1333715600209M27625/orig
p2178
sg1416
V\u041a\u0438\u043d\u043e\u043f\u043e\u043a\u0430\u0437 HD-2
p2179
sg1418
Vhttp://tv.yandex.ua/2/channels/741
p2180
sg1420
I127
sbsI128
g1408
(g1409
g1410
Ntp2181
Rp2182
(dp2183
g1414
Vhttp://avatars.yandex.net/get-tv-shows/1333713751068M18827/orig
p2184
sg1416
VCNBC
p2185
sg1418
Vhttp://tv.yandex.ua/2/channels/831
p2186
sg1420
I128
sbsI129
g1408
(g1409
g1410
Ntp2187
Rp2188
(dp2189
g1414
Vhttp://avatars.yandex.net/get-tv-shows/1333713174626M97345/orig
p2190
sg1416
VMan TV
p2191
sg1418
Vhttp://tv.yandex.ua/2/channels/15
p2192
sg1420
I129
sbsI130
g1408
(g1409
g1410
Ntp2193
Rp2194
(dp2195
g1414
Vhttp://avatars.yandex.net/get-tv-shows/1333713698572M2584/orig
p2196
sg1416
VMezzo Live HD
p2197
sg1418
Vhttp://tv.yandex.ua/2/channels/801
p2198
sg1420
I130
sbsI131
g1408
(g1409
g1410
Ntp2199
Rp2200
(dp2201
g1414
Vhttp://avatars.yandex.net/get-tv-shows/1333707984831M90146/orig
p2202
sg1416
V\u041c\u0438\u0440 \u0441\u0435\u0440\u0438\u0430\u043b\u0430
p2203
sg1418
Vhttp://tv.yandex.ua/2/channels/145
p2204
sg1420
I131
sbsI132
g1408
(g1409
g1410
Ntp2205
Rp2206
(dp2207
g1414
Vhttp://avatars.yandex.net/get-tv-shows/1333712701189M79995/orig
p2208
sg1416
VEnglish Club TV
p2209
sg1418
Vhttp://tv.yandex.ua/2/channels/757
p2210
sg1420
I132
sbsI133
g1408
(g1409
g1410
Ntp2211
Rp2212
(dp2213
g1414
Vhttp://avatars.yandex.net/get-tv-shows/1333715305189M35114/orig
p2214
sg1416
V\u041c\u0443\u0436\u0441\u043a\u043e\u0439
p2215
sg1418
Vhttp://tv.yandex.ua/2/channels/82
p2216
sg1420
I133
sbsI134
g1408
(g1409
g1410
Ntp2217
Rp2218
(dp2219
g1414
Vhttp://avatars.yandex.net/get-tv-shows/1333713644403M21507/orig
p2220
sg1416
VViasat Nature CEE
p2221
sg1418
Vhttp://tv.yandex.ua/2/channels/765
p2222
sg1420
I134
sbsI135
g1408
(g1409
g1410
Ntp2223
Rp2224
(dp2225
g1414
Vhttp://avatars.yandex.net/get-tv-shows/1333713433570M85481/orig
p2226
sg1416
VNat Geo WILD
p2227
sg1418
Vhttp://tv.yandex.ua/2/channels/223
p2228
sg1420
I135
sbsI136
g1408
(g1409
g1410
Ntp2229
Rp2230
(dp2231
g1414
Vhttp://avatars.yandex.net/get-tv-shows/1333707837348M40226/orig
p2232
sg1416
VFrance 24
p2233
sg1418
Vhttp://tv.yandex.ua/2/channels/461
p2234
sg1420
I136
sbsI137
g1408
(g1409
g1410
Ntp2235
Rp2236
(dp2237
g1414
Vhttp://avatars.yandex.net/get-tv-shows/1333717651949M12497/orig
p2238
sg1416
V\u0424\u0443\u0442\u0431\u043e\u043b
p2239
sg1418
Vhttp://tv.yandex.ua/2/channels/328
p2240
sg1420
I137
sbsI138
g1408
(g1409
g1410
Ntp2241
Rp2242
(dp2243
g1414
Vhttp://avatars.yandex.net/get-tv-shows/1333707836435M19145/orig
p2244
sg1416
V\u041c\u0443\u043b\u044c\u0442\u0438\u043c\u0430\u043d\u0438\u044f
p2245
sg1418
Vhttp://tv.yandex.ua/2/channels/31
p2246
sg1420
I138
sbsI139
g1408
(g1409
g1410
Ntp2247
Rp2248
(dp2249
g1414
Vhttp://avatars.yandex.net/get-tv-shows/1333713389359M36074/orig
p2250
sg1416
VHD \u041c\u0435\u0434\u0438\u0430
p2251
sg1418
Vhttp://tv.yandex.ua/2/channels/631
p2252
sg1420
I139
sbsI140
g1408
(g1409
g1410
Ntp2253
Rp2254
(dp2255
g1414
Vhttp://avatars.yandex.net/get-tv-shows/1333715673198M2663/orig
p2256
sg1416
V\u041f\u0435\u0440\u0432\u044b\u0439 \u043c\u0435\u0442\u0435\u043e
p2257
sg1418
Vhttp://tv.yandex.ua/2/channels/59
p2258
sg1420
I140
sbsI141
g1408
(g1409
g1410
Ntp2259
Rp2260
(dp2261
g1414
Vhttp://avatars.yandex.net/get-tv-shows/1333716057211M42929/orig
p2262
sg1416
V\u041a\u0418\u041d\u041e \u041f\u041b\u042e\u0421
p2263
sg1418
Vhttp://tv.yandex.ua/2/channels/644
p2264
sg1420
I141
sbsI142
g1408
(g1409
g1410
Ntp2265
Rp2266
(dp2267
g1414
Vhttp://avatars.yandex.net/get-tv-shows/1333713846214M92620/orig
p2268
sg1416
V\u041f\u0430\u0440\u043a \u0440\u0430\u0437\u0432\u043b\u0435\u0447\u0435\u043d\u0438\u0439
p2269
sg1418
Vhttp://tv.yandex.ua/2/channels/37
p2270
sg1420
I142
sbsI143
g1408
(g1409
g1410
Ntp2271
Rp2272
(dp2273
g1414
Vhttp://avatars.yandex.net/get-tv-shows/1333715232241M630/orig
p2274
sg1416
V\u041f\u0441\u0438\u0445\u043e\u043b\u043e\u0433\u0438\u044f 21
p2275
sg1418
Vhttp://tv.yandex.ua/2/channels/434
p2276
sg1420
I143
sbsI144
g1408
(g1409
g1410
Ntp2277
Rp2278
(dp2279
g1414
Vhttp://avatars.yandex.net/get-tv-shows/1333713945719M63469/orig
p2280
sg1416
V\u0414\u043e\u0436\u0434\u044c
p2281
sg1418
Vhttp://tv.yandex.ua/2/channels/384
p2282
sg1420
I144
sbsI145
g1408
(g1409
g1410
Ntp2283
Rp2284
(dp2285
g1414
Vhttp://avatars.yandex.net/get-tv-shows/1333713816884M48668/orig
p2286
sg1416
VRussian Travel Guide
p2287
sg1418
Vhttp://tv.yandex.ua/2/channels/648
p2288
sg1420
I145
sbsI146
g1408
(g1409
g1410
Ntp2289
Rp2290
(dp2291
g1414
Vhttp://avatars.yandex.net/get-tv-shows/1333715412490M65597/orig
p2292
sg1416
VRussia Today
p2293
sg1418
Vhttp://tv.yandex.ua/2/channels/313
p2294
sg1420
I146
sbsI147
g1408
(g1409
g1410
Ntp2295
Rp2296
(dp2297
g1414
Vhttp://avatars.yandex.net/get-tv-shows/1333712713031M6232/orig
p2298
sg1416
VStyle TV
p2299
sg1418
Vhttp://tv.yandex.ua/2/channels/119
p2300
sg1420
I147
sbsI148
g1408
(g1409
g1410
Ntp2301
Rp2302
(dp2303
g1414
Vhttp://avatars.yandex.net/get-tv-shows/1333713176648M89316/orig
p2304
sg1416
VTV1000 Action
p2305
sg1418
Vhttp://tv.yandex.ua/2/channels/125
p2306
sg1420
I148
sbsI149
g1408
(g1409
g1410
Ntp2307
Rp2308
(dp2309
g1414
Vhttp://avatars.yandex.net/get-tv-shows/1333713457072M47395/orig
p2310
sg1416
V\u0423\u043b\u044b\u0431\u043a\u0430 \u0420\u0435\u0431\u0435\u043d\u043a\u0430
p2311
sg1418
Vhttp://tv.yandex.ua/2/channels/789
p2312
sg1420
I149
sbsI150
g1408
(g1409
g1410
Ntp2313
Rp2314
(dp2315
g1414
Vhttp://avatars.yandex.net/get-tv-shows/1333715744438M85797/orig
p2316
sg1416
V\u0423\u0441\u043f\u0435\u0445
p2317
sg1418
Vhttp://tv.yandex.ua/2/channels/547
p2318
sg1420
I150
sbsI151
g1408
(g1409
g1410
Ntp2319
Rp2320
(dp2321
g1414
Vhttp://avatars.yandex.net/get-tv-shows/1333712655464M52829/orig
p2322
sg1416
VVH1 Classic
p2323
sg1418
Vhttp://tv.yandex.ua/2/channels/156
p2324
sg1420
I151
sbsI152
g1408
(g1409
g1410
Ntp2325
Rp2326
(dp2327
g1414
Vhttp://avatars.yandex.net/get-tv-shows/1333713481818M96462/orig
p2328
sg1416
VLuxe.TV
p2329
sg1418
Vhttp://tv.yandex.ua/2/channels/442
p2330
sg1420
I152
sbsI153
g1408
(g1409
g1410
Ntp2331
Rp2332
(dp2333
g1414
Vhttp://avatars.yandex.net/get-tv-shows/1333712775005M93791/orig
p2334
sg1416
VViasat Sport
p2335
sg1418
Vhttp://tv.yandex.ua/2/channels/455
p2336
sg1420
I153
sbsI154
g1408
(g1409
g1410
Ntp2337
Rp2338
(dp2339
g1414
Vhttp://avatars.yandex.net/get-tv-shows/1333713681468M47452/orig
p2340
sg1416
V\u0412\u043e\u043f\u0440\u043e\u0441\u044b \u0438 \u043e\u0442\u0432\u0435\u0442\u044b
p2341
sg1418
Vhttp://tv.yandex.ua/2/channels/333
p2342
sg1420
I154
sbsI155
g1408
(g1409
g1410
Ntp2343
Rp2344
(dp2345
g1414
Vhttp://avatars.yandex.net/get-tv-shows/1333716969502M68148/orig
p2346
sg1416
VMCM POP
p2347
sg1418
Vhttp://tv.yandex.ua/2/channels/804
p2348
sg1420
I155
sbsI156
g1408
(g1409
g1410
Ntp2349
Rp2350
(dp2351
g1414
Vhttp://avatars.yandex.net/get-tv-shows/1333713682028M49283/orig
p2352
sg1416
VMCM TOP
p2353
sg1418
Vhttp://tv.yandex.ua/2/channels/533
p2354
sg1420
I156
sbsI157
g1408
(g1409
g1410
Ntp2355
Rp2356
(dp2357
g1414
Vhttp://avatars.yandex.net/get-tv-shows/1333716913379M87044/orig
p2358
sg1416
V\u0412\u0441\u0435\u0433\u0434\u0430 \u0441 \u0442\u043e\u0431\u043e\u0439
p2359
sg1418
Vhttp://tv.yandex.ua/2/channels/604
p2360
sg1420
I157
sbsI158
g1408
(g1409
g1410
Ntp2361
Rp2362
(dp2363
g1414
Vhttp://avatars.yandex.net/get-tv-shows/1333708247585M68464/orig
p2364
sg1416
V\u041e\u0440\u0443\u0436\u0438\u0435
p2365
sg1418
Vhttp://tv.yandex.ua/2/channels/376
p2366
sg1420
I158
sbsI159
g1408
(g1409
g1410
Ntp2367
Rp2368
(dp2369
g1414
Vhttp://avatars.yandex.net/get-tv-shows/1333715997298M69767/orig
p2370
sg1416
V\u041a\u0442\u043e \u0435\u0441\u0442\u044c \u043a\u0442\u043e
p2371
sg1418
Vhttp://tv.yandex.ua/2/channels/769
p2372
sg1420
I159
sbsI160
g1408
(g1409
g1410
Ntp2373
Rp2374
(dp2375
g1414
Vhttp://avatars.yandex.net/get-tv-shows/1333715457146M21776/orig
p2376
sg1416
VMusicBox RU
p2377
sg1418
Vhttp://tv.yandex.ua/2/channels/25
p2378
sg1420
I160
sbsI161
g1408
(g1409
g1410
Ntp2379
Rp2380
(dp2381
g1414
Vhttp://avatars.yandex.net/get-tv-shows/1333716819878M97368/orig
p2382
sg1416
V\u0417\u0430\u0433\u043e\u0440\u043e\u0434\u043d\u044b\u0439
p2383
sg1418
Vhttp://tv.yandex.ua/2/channels/705
p2384
sg1420
I161
sbsI162
g1408
(g1409
g1410
Ntp2385
Rp2386
(dp2387
g1414
Vhttp://avatars.yandex.net/get-tv-shows/1333712702253M97202/orig
p2388
sg1416
V\u0417\u0430\u0433\u043e\u0440\u043e\u0434\u043d\u0430\u044f \u0436\u0438\u0437\u043d\u044c
p2389
sg1418
Vhttp://tv.yandex.ua/2/channels/21
p2390
sg1420
I162
sbsI163
g1408
(g1409
g1410
Ntp2391
Rp2392
(dp2393
g1414
Vhttp://avatars.yandex.net/get-tv-shows/1333713807307M19303/orig
p2394
sg1416
VMusicBox TV
p2395
sg1418
Vhttp://tv.yandex.ua/2/channels/642
p2396
sg1420
I163
sbsI164
g1408
(g1409
g1410
Ntp2397
Rp2398
(dp2399
g1414
Vhttp://avatars.yandex.net/get-tv-shows/1333715814729M63454/orig
p2400
sg1416
VZee-TV
p2401
sg1418
Vhttp://tv.yandex.ua/2/channels/626
p2402
sg1420
I164
sbsI165
g1408
(g1409
g1410
Ntp2403
Rp2404
(dp2405
g1414
Vhttp://avatars.yandex.net/get-tv-shows/1333708221386M8318/orig
p2406
sg1416
VmyZen.tv
p2407
sg1418
Vhttp://tv.yandex.ua/2/channels/141
p2408
sg1420
I165
sbsI166
g1408
(g1409
g1410
Ntp2409
Rp2410
(dp2411
g1414
Vhttp://avatars.yandex.net/get-tv-shows/1333716033811M15593/orig
p2412
sg1416
V\u0422\u043e\u043d\u0443\u0441-\u0422\u0412
p2413
sg1418
Vhttp://tv.yandex.ua/2/channels/637
p2414
sg1420
I166
sbsI167
g1408
(g1409
g1410
Ntp2415
Rp2416
(dp2417
g1414
Vhttp://avatars.yandex.net/get-tv-shows/1333713729069M489/orig
p2418
sg1416
V\u0420\u0422\u0412 - \u041b\u044e\u0431\u0438\u043c\u043e\u0435 \u043a\u0438\u043d\u043e
p2419
sg1418
Vhttp://tv.yandex.ua/2/channels/477
p2420
sg1420
I167
sbsI168
g1408
(g1409
g1410
Ntp2421
Rp2422
(dp2423
g1414
Vhttp://avatars.yandex.net/get-tv-shows/1333715741881M37018/orig
p2424
sg1416
V\u0420\u0422\u0412 - \u041d\u0430\u0448\u0435 \u043a\u0438\u043d\u043e
p2425
sg1418
Vhttp://tv.yandex.ua/2/channels/176
p2426
sg1420
I168
sbsI169
g1408
(g1409
g1410
Ntp2427
Rp2428
(dp2429
g1414
Vhttp://avatars.yandex.net/get-tv-shows/1333708746764M31248/orig
p2430
sg1416
V\u041d\u0435\u0434\u0432\u0438\u0436\u0438\u043c\u043e\u0441\u0442\u044c
p2431
sg1418
Vhttp://tv.yandex.ua/2/channels/552
p2432
sg1420
I169
sbsI170
g1408
(g1409
g1410
Ntp2433
Rp2434
(dp2435
g1414
Vhttp://avatars.yandex.net/get-tv-shows/1333713976352M79712/orig
p2436
sg1416
VNewsOne
p2437
sg1418
Vhttp://tv.yandex.ua/2/channels/247
p2438
sg1420
I170
sbsI171
g1408
(g1409
g1410
Ntp2439
Rp2440
(dp2441
g1414
Vhttp://avatars.yandex.net/get-tv-shows/1333712756259M40685/orig
p2442
sg1416
V\u0421\u043e\u0432\u0435\u0440\u0448\u0435\u043d\u043d\u043e \u0441\u0435\u043a\u0440\u0435\u0442\u043d\u043e
p2443
sg1418
Vhttp://tv.yandex.ua/2/channels/275
p2444
sg1420
I171
sbsI172
g1408
(g1409
g1410
Ntp2445
Rp2446
(dp2447
g1414
Vhttp://avatars.yandex.net/get-tv-shows/1333716791539M48053/orig
p2448
sg1416
VTDK
p2449
sg1418
Vhttp://tv.yandex.ua/2/channels/776
p2450
sg1420
I172
sbsI173
g1408
(g1409
g1410
Ntp2451
Rp2452
(dp2453
g1414
Vhttp://avatars.yandex.net/get-tv-shows/1333708713306M38200/orig
p2454
sg1416
VTiJi
p2455
sg1418
Vhttp://tv.yandex.ua/2/channels/555
p2456
sg1420
I173
sbsI174
g1408
(g1409
g1410
Ntp2457
Rp2458
(dp2459
g1414
Vhttp://avatars.yandex.net/get-tv-shows/1333709246196M1207/orig
p2460
sg1416
VBaby TV
p2461
sg1418
Vhttp://tv.yandex.ua/2/channels/308
p2462
sg1420
I174
sbsI175
g1408
(g1409
g1410
Ntp2463
Rp2464
(dp2465
g1414
Vhttp://avatars.yandex.net/get-tv-shows/1333708797928M94347/orig
p2466
sg1416
VMTV Dance
p2467
sg1418
Vhttp://tv.yandex.ua/2/channels/332
p2468
sg1420
I175
sbsI176
g1408
(g1409
g1410
Ntp2469
Rp2470
(dp2471
g1414
Vhttp://avatars.yandex.net/get-tv-shows/1333716825980M37994/orig
p2472
sg1416
VMTV Hits
p2473
sg1418
Vhttp://tv.yandex.ua/2/channels/849
p2474
sg1420
I176
sbsI177
g1408
(g1409
g1410
Ntp2475
Rp2476
(dp2477
g1414
Vhttp://avatars.yandex.net/get-tv-shows/1333715841246M94104/orig
p2478
sg1416
V\u041e\u0445\u043e\u0442\u043d\u0438\u043a \u0438 \u0420\u044b\u0431\u043e\u043b\u043e\u0432
p2479
sg1418
Vhttp://tv.yandex.ua/2/channels/132
p2480
sg1420
I177
sbsI178
g1408
(g1409
g1410
Ntp2481
Rp2482
(dp2483
g1414
Vhttp://avatars.yandex.net/get-tv-shows/1333713043514M62310/orig
p2484
sg1416
VMTV Rocks
p2485
sg1418
Vhttp://tv.yandex.ua/2/channels/388
p2486
sg1420
I178
sbsI179
g1408
(g1409
g1410
Ntp2487
Rp2488
(dp2489
g1414
Vhttp://avatars.yandex.net/get-tv-shows/1333716732109M13710/orig
p2490
sg1416
V\u041e\u0442\u043a\u0440\u044b\u0442\u044b\u0439 \u041c\u0438\u0440
p2491
sg1418
Vhttp://tv.yandex.ua/2/channels/39
p2492
sg1420
I179
sbsI180
g1408
(g1409
g1410
Ntp2493
Rp2494
(dp2495
g1414
Vhttp://avatars.yandex.net/get-tv-shows/1333712715401M79935/orig
p2496
sg1416
VTLC
p2497
sg1418
Vhttp://tv.yandex.ua/2/channels/425
p2498
sg1420
I180
sbsI181
g1408
(g1409
g1410
Ntp2499
Rp2500
(dp2501
g1414
Vhttp://avatars.yandex.net/get-tv-shows/1333713582281M8534/orig
p2502
sg1416
V\u041f\u0435\u0440\u0432\u044b\u0439 \u043e\u0431\u0440\u0430\u0437\u043e\u0432\u0430\u0442\u0435\u043b\u044c\u043d\u044b\u0439
p2503
sg1418
Vhttp://tv.yandex.ua/2/channels/774
p2504
sg1420
I181
sbsI182
g1408
(g1409
g1410
Ntp2505
Rp2506
(dp2507
g1414
Vhttp://avatars.yandex.net/get-tv-shows/1333715189104M67729/orig
p2508
sg1416
VRu.TV
p2509
sg1418
Vhttp://tv.yandex.ua/2/channels/258
p2510
sg1420
I182
sbsI183
g1408
(g1409
g1410
Ntp2511
Rp2512
(dp2513
g1414
Vhttp://avatars.yandex.net/get-tv-channel-logos/1357917709899M67755/orig
p2514
sg1416
VA-ONE
p2515
sg1418
Vhttp://tv.yandex.ua/2/channels/680
p2516
sg1420
I183
sbsI184
g1408
(g1409
g1410
Ntp2517
Rp2518
(dp2519
g1414
Vhttp://avatars.yandex.net/get-tv-shows/1333716745405M72465/orig
p2520
sg1416
VRusong TV
p2521
sg1418
Vhttp://tv.yandex.ua/2/channels/591
p2522
sg1420
I184
sbsI185
g1408
(g1409
g1410
Ntp2523
Rp2524
(dp2525
g1414
Vhttp://avatars.yandex.net/get-tv-shows/1333708247583M29832/orig
p2526
sg1416
V\u041d\u0430\u0443\u043a\u0430 2.0
p2527
sg1418
Vhttp://tv.yandex.ua/2/channels/723
p2528
sg1420
I185
sbsI186
g1408
(g1409
g1410
Ntp2529
Rp2530
(dp2531
g1414
Vhttp://avatars.yandex.net/get-tv-shows/1333715766749M89647/orig
p2532
sg1416
VZoo\u043f\u0430\u0440\u043a
p2533
sg1418
Vhttp://tv.yandex.ua/2/channels/367
p2534
sg1420
I186
sbsI187
g1408
(g1409
g1410
Ntp2535
Rp2536
(dp2537
g1414
Vhttp://avatars.yandex.net/get-tv-shows/1333712862430M29121/orig
p2538
sg1416
V\u0414\u0440\u0430\u0439\u0432
p2539
sg1418
Vhttp://tv.yandex.ua/2/channels/505
p2540
sg1420
I187
sbsI188
g1408
(g1409
g1410
Ntp2541
Rp2542
(dp2543
g1414
Vhttp://avatars.yandex.net/get-tv-shows/1333715678054M1312/orig
p2544
sg1416
V\u0417\u0434\u043e\u0440\u043e\u0432\u043e\u0435 \u0422\u0412
p2545
sg1418
Vhttp://tv.yandex.ua/2/channels/595
p2546
sg1420
I188
sbsI189
g1408
(g1409
g1410
Ntp2547
Rp2548
(dp2549
g1414
Vhttp://avatars.yandex.net/get-tv-shows/1333715852220M49281/orig
p2550
sg1416
V\u0422\u0443\u0440\u0418\u043d\u0444\u043e
p2551
sg1418
Vhttp://tv.yandex.ua/2/channels/731
p2552
sg1420
I189
sbsI190
g1408
(g1409
g1410
Ntp2553
Rp2554
(dp2555
g1414
Vhttp://avatars.yandex.net/get-tv-shows/1333708154865M86208/orig
p2556
sg1416
V\u0420\u0435\u0442\u0440\u043e \u0422\u0412
p2557
sg1418
Vhttp://tv.yandex.ua/2/channels/6
p2558
sg1420
I190
sbsI191
g1408
(g1409
g1410
Ntp2559
Rp2560
(dp2561
g1414
Vhttp://avatars.yandex.net/get-tv-shows/1333713984447M70308/orig
p2562
sg1416
VEurosport
p2563
sg1418
Vhttp://tv.yandex.ua/2/channels/737
p2564
sg1420
I191
sbsI192
g1408
(g1409
g1410
Ntp2565
Rp2566
(dp2567
g1414
Vhttp://avatars.yandex.net/get-tv-shows/1333716803563M50186/orig
p2568
sg1416
V\u041a\u0425\u041b
p2569
sg1418
Vhttp://tv.yandex.ua/2/channels/481
p2570
sg1420
I192
sbsI193
g1408
(g1409
g1410
Ntp2571
Rp2572
(dp2573
g1414
Vhttp://avatars.yandex.net/get-tv-channel-logos/1356596026566M65418/orig
p2574
sg1416
V\u041c\u0418\u0420
p2575
sg1418
Vhttp://tv.yandex.ua/2/channels/726
p2576
sg1420
I193
sbsI194
g1408
(g1409
g1410
Ntp2577
Rp2578
(dp2579
g1414
Vhttp://avatars.yandex.net/get-tv-shows/1333713538946M7262/orig
p2580
sg1416
VVH1 European
p2581
sg1418
Vhttp://tv.yandex.ua/2/channels/491
p2582
sg1420
I194
sbsI195
g1408
(g1409
g1410
Ntp2583
Rp2584
(dp2585
g1414
Vhttp://avatars.yandex.net/get-tv-shows/1333713160319M54984/orig
p2586
sg1416
V\u0416\u0418\u0412\u0418!
p2587
sg1418
Vhttp://tv.yandex.ua/2/channels/113
p2588
sg1420
I195
sbsI196
g1408
(g1409
g1410
Ntp2589
Rp2590
(dp2591
g1414
Vhttp://avatars.yandex.net/get-tv-shows/1333715748744M67529/orig
p2592
sg1416
VDIVA Universal
p2593
sg1418
Vhttp://tv.yandex.ua/2/channels/713
p2594
sg1420
I196
sbsI197
g1408
(g1409
g1410
Ntp2595
Rp2596
(dp2597
g1414
Vhttp://avatars.yandex.net/get-tv-shows/1333716977495M19933/orig
p2598
sg1416
VDiscovery HD Showcase
p2599
sg1418
Vhttp://tv.yandex.ua/2/channels/111
p2600
sg1420
I197
sbsI198
g1408
(g1409
g1410
Ntp2601
Rp2602
(dp2603
g1414
Vhttp://avatars.yandex.net/get-tv-shows/1333708892947M65043/orig
p2604
sg1416
V\u0428\u0430\u043d\u0441\u043e\u043d-TB
p2605
sg1418
Vhttp://tv.yandex.ua/2/channels/662
p2606
sg1420
I198
sbsI199
g1408
(g1409
g1410
Ntp2607
Rp2608
(dp2609
g1414
Vhttp://avatars.yandex.net/get-tv-shows/1333713983645M99328/orig
p2610
sg1416
V\u0417\u043d\u0430\u043d\u0438\u0435
p2611
sg1418
Vhttp://tv.yandex.ua/2/channels/201
p2612
sg1420
I199
sbsI200
g1408
(g1409
g1410
Ntp2613
Rp2614
(dp2615
g1414
Vhttp://avatars.yandex.net/get-tv-shows/1333715603725M3088/orig
p2616
sg1416
VEuropa Plus TV
p2617
sg1418
Vhttp://tv.yandex.ua/2/channels/681
p2618
sg1420
I200
sbsI201
g1408
(g1409
g1410
Ntp2619
Rp2620
(dp2621
g1414
Vhttp://avatars.yandex.net/get-tv-shows/1333713040296M59201/orig
p2622
sg1416
VWorld Music Channel
p2623
sg1418
Vhttp://tv.yandex.ua/2/channels/91
p2624
sg1420
I201
sbsI202
g1408
(g1409
g1410
Ntp2625
Rp2626
(dp2627
g1414
Vhttp://avatars.yandex.net/get-tv-shows/1333715545258M24133/orig
p2628
sg1416
VOutdoor Channel
p2629
sg1418
Vhttp://tv.yandex.ua/2/channels/322
p2630
sg1420
I202
sbsI203
g1408
(g1409
g1410
Ntp2631
Rp2632
(dp2633
g1414
Vhttp://avatars.yandex.net/get-tv-shows/1333713680513M60480/orig
p2634
sg1416
V\u041d\u0422\u0412-\u041f\u041b\u042e\u0421 \u0421\u043f\u043e\u0440\u0442 \u041f\u043b\u044e\u0441
p2635
sg1418
Vhttp://tv.yandex.ua/2/channels/377
p2636
sg1420
I203
sbsI204
g1408
(g1409
g1410
Ntp2637
Rp2638
(dp2639
g1414
Vhttp://avatars.yandex.net/get-tv-channel-logos/1349444212217M99907/orig
p2640
sg1416
V\u041d\u0422\u0412-\u041f\u041b\u042e\u0421 \u041d\u0430\u0448 \u0444\u0443\u0442\u0431\u043e\u043b
p2641
sg1418
Vhttp://tv.yandex.ua/2/channels/499
p2642
sg1420
I204
sbsI205
g1408
(g1409
g1410
Ntp2643
Rp2644
(dp2645
g1414
Vhttp://avatars.yandex.net/get-tv-shows/1333715434657M29292/orig
p2646
sg1416
V\u041d\u0422\u0412-\u041f\u041b\u042e\u0421 \u0421\u043f\u043e\u0440\u0442
p2647
sg1418
Vhttp://tv.yandex.ua/2/channels/134
p2648
sg1420
I205
sbsI206
g1408
(g1409
g1410
Ntp2649
Rp2650
(dp2651
g1414
Vhttp://avatars.yandex.net/get-tv-shows/1333715630513M36394/orig
p2652
sg1416
V\u041d\u0422\u0412-\u041f\u041b\u042e\u0421 \u0424\u0443\u0442\u0431\u043e\u043b
p2653
sg1418
Vhttp://tv.yandex.ua/2/channels/664
p2654
sg1420
I206
sbsI207
g1408
(g1409
g1410
Ntp2655
Rp2656
(dp2657
g1414
Vhttp://avatars.yandex.net/get-tv-shows/1333716734381M94839/orig
p2658
sg1416
V\u041d\u0422\u0412-\u041f\u041b\u042e\u0421 \u0421\u043f\u043e\u0440\u0442 \u041e\u043d\u043b\u0430\u0439\u043d
p2659
sg1418
Vhttp://tv.yandex.ua/2/channels/183
p2660
sg1420
I207
sbsI208
g1408
(g1409
g1410
Ntp2661
Rp2662
(dp2663
g1414
Vhttp://avatars.yandex.net/get-tv-shows/1333713578162M89138/orig
p2664
sg1416
V\u041d\u0422\u0412-\u041f\u041b\u042e\u0421 \u0411\u0430\u0441\u043a\u0435\u0442\u0431\u043e\u043b
p2665
sg1418
Vhttp://tv.yandex.ua/2/channels/697
p2666
sg1420
I208
sbsI209
g1408
(g1409
g1410
Ntp2667
Rp2668
(dp2669
g1414
Vhttp://avatars.yandex.net/get-tv-shows/1333708043568M30613/orig
p2670
sg1416
V\u041d\u0422\u0412-\u041f\u041b\u042e\u0421 \u0422\u0435\u043d\u043d\u0438\u0441
p2671
sg1418
Vhttp://tv.yandex.ua/2/channels/358
p2672
sg1420
I209
sbsI210
g1408
(g1409
g1410
Ntp2673
Rp2674
(dp2675
g1414
Vhttp://avatars.yandex.net/get-tv-shows/1333708764683M58437/orig
p2676
sg1416
V\u041d\u0422\u0412-\u041f\u041b\u042e\u0421 \u0424\u0443\u0442\u0431\u043e\u043b 2
p2677
sg1418
Vhttp://tv.yandex.ua/2/channels/563
p2678
sg1420
I210
sbsI211
g1408
(g1409
g1410
Ntp2679
Rp2680
(dp2681
g1414
Vhttp://avatars.yandex.net/get-tv-channel-logos/1347977439851M34882/orig
p2682
sg1416
VSONY \u0422\u0412
p2683
sg1418
Vhttp://tv.yandex.ua/2/channels/311
p2684
sg1420
I211
sbsI212
g1408
(g1409
g1410
Ntp2685
Rp2686
(dp2687
g1414
Vhttp://avatars.yandex.net/get-tv-channel-logos/1346751438482M48687/orig
p2688
sg1416
V8 \u041a\u0430\u043d\u0430\u043b
p2689
sg1418
Vhttp://tv.yandex.ua/2/channels/217
p2690
sg1420
I212
sbsI213
g1408
(g1409
g1410
Ntp2691
Rp2692
(dp2693
g1414
Vhttp://avatars.yandex.net/get-tv-shows/1333708793754M69706/orig
p2694
sg1416
V\u0418\u043d\u0442\u0435\u0440\u0435\u0441\u043d\u043e\u0435 \u0422\u0412
p2695
sg1418
Vhttp://tv.yandex.ua/2/channels/24
p2696
sg1420
I213
sbsI214
g1408
(g1409
g1410
Ntp2697
Rp2698
(dp2699
g1414
Vhttp://avatars.yandex.net/get-tv-shows/1333708053915M20046/orig
p2700
sg1416
V\u041c\u043d\u043e\u0433\u043e \u0422\u0412
p2701
sg1418
Vhttp://tv.yandex.ua/2/channels/799
p2702
sg1420
I214
sbsI215
g1408
(g1409
g1410
Ntp2703
Rp2704
(dp2705
g1414
Vhttp://avatars.yandex.net/get-tv-channel-logos/1336217768352M70407/orig
p2706
sg1416
V\u041a\u043e\u043c\u0435\u0434\u0438\u044f \u0422\u0412
p2707
sg1418
Vhttp://tv.yandex.ua/2/channels/821
p2708
sg1420
I215
sbsI216
g1408
(g1409
g1410
Ntp2709
Rp2710
(dp2711
g1414
Vhttp://avatars.yandex.net/get-tv-channel-logos/1344328736344M68981/orig
p2712
sg1416
V\u041a\u0443\u0445\u043d\u044f \u0422\u0412
p2713
sg1418
Vhttp://tv.yandex.ua/2/channels/614
p2714
sg1420
I216
sbsI217
g1408
(g1409
g1410
Ntp2715
Rp2716
(dp2717
g1414
Vhttp://avatars.yandex.net/get-tv-channel-logos/1357806445014M68284/orig
p2718
sg1416
V\u0410\u0432\u0442\u043e \u041f\u043b\u044e\u0441
p2719
sg1418
Vhttp://tv.yandex.ua/2/channels/153
p2720
sg1420
I217
sbsI218
g1408
(g1409
g1410
Ntp2721
Rp2722
(dp2723
g1414
Vhttp://avatars.yandex.net/get-tv-shows/1333709239764M13305/orig
p2724
sg1416
VHD Life
p2725
sg1418
Vhttp://tv.yandex.ua/2/channels/415
p2726
sg1420
I218
sbsI219
g1408
(g1409
g1410
Ntp2727
Rp2728
(dp2729
g1414
Vhttp://avatars.yandex.net/get-tv-shows/1333713175752M17275/orig
p2730
sg1416
g798
sg1418
Vhttp://tv.yandex.ua/2/channels/250
p2731
sg1420
I219
sbsI220
g1408
(g1409
g1410
Ntp2732
Rp2733
(dp2734
g1414
Vhttp://avatars.yandex.net/get-tv-shows/1333715379935M43316/orig
p2735
sg1416
V\u041a\u0438\u043d\u043e\u043b\u044e\u043a\u0441
p2736
sg1418
Vhttp://tv.yandex.ua/2/channels/8
p2737
sg1420
I220
sbsI221
g1408
(g1409
g1410
Ntp2738
Rp2739
(dp2740
g1414
Vhttp://avatars.yandex.net/get-tv-shows/1333713929498M22985/orig
p2741
sg1416
V\u0420\u0443\u0441\u0441\u043a\u0438\u0439 \u0440\u043e\u043c\u0430\u043d
p2742
sg1418
Vhttp://tv.yandex.ua/2/channels/401
p2743
sg1420
I221
sbsI222
g1408
(g1409
g1410
Ntp2744
Rp2745
(dp2746
g1414
Vhttp://avatars.yandex.net/get-tv-shows/1333715246259M47961/orig
p2747
sg1416
V\u0421\u043f\u043e\u0440\u0442 \u0421\u043e\u044e\u0437
p2748
sg1418
Vhttp://tv.yandex.ua/2/channels/306
p2749
sg1420
I222
sbsI223
g1408
(g1409
g1410
Ntp2750
Rp2751
(dp2752
g1414
Vhttp://avatars.yandex.net/get-tv-shows/1333712655586M1831/orig
p2753
sg1416
VPRO Business
p2754
sg1418
Vhttp://tv.yandex.ua/2/channels/214
p2755
sg1420
I223
sbsI224
g1408
(g1409
g1410
Ntp2756
Rp2757
(dp2758
g1414
Vhttp://avatars.yandex.net/get-tv-shows/1333715678250M70241/orig
p2759
sg1416
VMotors TV
p2760
sg1418
Vhttp://tv.yandex.ua/2/channels/531
p2761
sg1420
I224
sbsI225
g1408
(g1409
g1410
Ntp2762
Rp2763
(dp2764
g1414
Vhttp://avatars.yandex.net/get-tv-channel-logos/1358325521945M33990/orig
p2765
sg1416
V\u0411\u0435\u043b\u0430\u0440\u0443\u0441\u044c-24
p2766
sg1418
Vhttp://tv.yandex.ua/2/channels/851
p2767
sg1420
I225
sbsI226
g1408
(g1409
g1410
Ntp2768
Rp2769
(dp2770
g1414
Vhttp://avatars.yandex.net/get-tv-shows/1333713401739M87841/orig
p2771
sg1416
VTrace Urban
p2772
sg1418
Vhttp://tv.yandex.ua/2/channels/473
p2773
sg1420
I226
sbsI227
g1408
(g1409
g1410
Ntp2774
Rp2775
(dp2776
g1414
Vhttp://avatars.yandex.net/get-tv-channel-logos/1348227921654M54810/orig
p2777
sg1416
V\u041c\u0423\u0417 \u0422\u0412
p2778
sg1418
Vhttp://tv.yandex.ua/2/channels/897
p2779
sg1420
I227
sbsI228
g1408
(g1409
g1410
Ntp2780
Rp2781
(dp2782
g1414
Vhttp://avatars.yandex.net/get-tv-shows/1333715692247M50804/orig
p2783
sg1416
V\u042e\u043c\u043e\u0440 BOX
p2784
sg1418
Vhttp://tv.yandex.ua/2/channels/412
p2785
sg1420
I228
sbsI229
g1408
(g1409
g1410
Ntp2786
Rp2787
(dp2788
g1414
Vhttp://avatars.yandex.net/get-tv-shows/1334158126325M33910/orig
p2789
sg1416
V\u0420\u0430\u0437 \u0422\u0412
p2790
sg1418
Vhttp://tv.yandex.ua/2/channels/363
p2791
sg1420
I229
sbsI230
g1408
(g1409
g1410
Ntp2792
Rp2793
(dp2794
g1414
Vhttp://avatars.yandex.net/get-tv-shows/1333713378901M21893/orig
p2795
sg1416
VPro \u0432\u0441\u0435
p2796
sg1418
Vhttp://tv.yandex.ua/2/channels/458
p2797
sg1420
I230
sbsI231
g1408
(g1409
g1410
Ntp2798
Rp2799
(dp2800
g1414
Vhttp://avatars.yandex.net/get-tv-shows/1333713578373M76326/orig
p2801
sg1416
VBRIDGE TV
p2802
sg1418
Vhttp://tv.yandex.ua/2/channels/151
p2803
sg1420
I231
sbsI232
g1408
(g1409
g1410
Ntp2804
Rp2805
(dp2806
g1414
Vhttp://avatars.yandex.net/get-tv-shows/1333716766094M95286/orig
p2807
sg1416
V\u0422\u0420\u041e
p2808
sg1418
Vhttp://tv.yandex.ua/2/channels/730
p2809
sg1420
I232
sbsI233
g1408
(g1409
g1410
Ntp2810
Rp2811
(dp2812
g1414
Vhttp://avatars.yandex.net/get-tv-shows/1333707965006M57212/orig
p2813
sg1416
V\u0417\u0430\u043a\u043e\u043d-\u0422\u0412
p2814
sg1418
Vhttp://tv.yandex.ua/2/channels/178
p2815
sg1420
I233
sbsI234
g1408
(g1409
g1410
Ntp2816
Rp2817
(dp2818
g1414
Vhttp://avatars.yandex.net/get-tv-shows/1333708977916M89754/orig
p2819
sg1416
V\u0422\u0411\u041d
p2820
sg1418
Vhttp://tv.yandex.ua/2/channels/576
p2821
sg1420
I234
sbsI235
g1408
(g1409
g1410
Ntp2822
Rp2823
(dp2824
g1414
Vhttp://avatars.yandex.net/get-tv-shows/1333715189760M70159/orig
p2825
sg1416
V\u0421\u043e\u044e\u0437
p2826
sg1418
Vhttp://tv.yandex.ua/2/channels/349
p2827
sg1420
I235
sbsI236
g1408
(g1409
g1410
Ntp2828
Rp2829
(dp2830
g1414
Vhttp://avatars.yandex.net/get-tv-shows/1333715618499M86752/orig
p2831
sg1416
VSTV
p2832
sg1418
Vhttp://tv.yandex.ua/2/channels/165
p2833
sg1420
I236
sbsI237
g1408
(g1409
g1410
Ntp2834
Rp2835
(dp2836
g1414
Vhttp://avatars.yandex.net/get-tv-shows/1333715800906M7024/orig
p2837
sg1416
V\u041b\u044f-\u041c\u0438\u043d\u043e\u0440
p2838
sg1418
Vhttp://tv.yandex.ua/2/channels/257
p2839
sg1420
I237
sbsI238
g1408
(g1409
g1410
Ntp2840
Rp2841
(dp2842
g1414
Vhttp://avatars.yandex.net/get-tv-shows/1333716969968M17969/orig
p2843
sg1416
V\u041a\u041f \u0422\u0412
p2844
sg1418
Vhttp://tv.yandex.ua/2/channels/852
p2845
sg1420
I238
sbsI239
g1408
(g1409
g1410
Ntp2846
Rp2847
(dp2848
g1414
Vhttp://avatars.yandex.net/get-tv-channel-logos/1357919989620M30635/orig
p2849
sg1416
V\u0414\u0435\u0442\u0441\u043a\u0438\u0439 \u043c\u0438\u0440 + \u0422\u0435\u043b\u0435\u043a\u043b\u0443\u0431
p2850
sg1418
Vhttp://tv.yandex.ua/2/channels/923
p2851
sg1420
I239
sbsI240
g1408
(g1409
g1410
Ntp2852
Rp2853
(dp2854
g1414
Vhttp://avatars.yandex.net/get-tv-channel-logos/1357919547786M75281/orig
p2855
sg1416
VParamount Comedy
p2856
sg1418
Vhttp://tv.yandex.ua/2/channels/920
p2857
sg1420
I240
sbsI241
g1408
(g1409
g1410
Ntp2858
Rp2859
(dp2860
g1414
Vhttp://avatars.yandex.net/get-tv-channel-logos/1356772440257M50638/orig
p2861
sg1416
V\u0415\u0414\u0410
p2862
sg1418
Vhttp://tv.yandex.ua/2/channels/931
p2863
sg1420
I241
sbsI242
g1408
(g1409
g1410
Ntp2864
Rp2865
(dp2866
g1414
Vhttp://avatars.yandex.net/get-tv-channel-logos/1354613590167M12325/orig
p2867
sg1416
VCBS Drama
p2868
sg1418
Vhttp://tv.yandex.ua/2/channels/911
p2869
sg1420
I242
sbsI243
g1408
(g1409
g1410
Ntp2870
Rp2871
(dp2872
g1414
Vhttp://avatars.yandex.net/get-tv-channel-logos/1354613569498M70821/orig
p2873
sg1416
VCBS Reality
p2874
sg1418
Vhttp://tv.yandex.ua/2/channels/912
p2875
sg1420
I243
sbsI244
g1408
(g1409
g1410
Ntp2876
Rp2877
(dp2878
g1414
Vhttp://avatars.yandex.net/get-tv-shows/1333718306703M45438/orig
p2879
sg1416
VBBC Entertainment
p2880
sg1418
Vhttp://tv.yandex.ua/2/channels/278
p2881
sg1420
I244
sbsI245
g1408
(g1409
g1410
Ntp2882
Rp2883
(dp2884
g1414
Vhttp://avatars.yandex.net/get-tv-shows/1333715233719M49792/orig
p2885
sg1416
VBizTV
p2886
sg1418
Vhttp://tv.yandex.ua/2/channels/797
p2887
sg1420
I245
sbsI246
g1408
(g1409
g1410
Ntp2888
Rp2889
(dp2890
g1414
Vhttp://avatars.yandex.net/get-tv-shows/1333713846214M68965/orig
p2891
sg1416
VFine Living Network
p2892
sg1418
Vhttp://tv.yandex.ua/2/channels/393
p2893
sg1420
I246
sbsI247
g1408
(g1409
g1410
Ntp2894
Rp2895
(dp2896
g1414
Vhttp://avatars.yandex.net/get-tv-shows/1333713783253M34729/orig
p2897
sg1416
V\u0427\u041f.Info
p2898
sg1418
Vhttp://tv.yandex.ua/2/channels/315
p2899
sg1420
I247
sbsI248
g1408
(g1409
g1410
Ntp2900
Rp2901
(dp2902
g1414
Vhttp://avatars.yandex.net/get-tv-shows/1333713694458M58917/orig
p2903
sg1416
VMTV Music
p2904
sg1418
Vhttp://tv.yandex.ua/2/channels/430
p2905
sg1420
I248
sbsI249
g1408
(g1409
g1410
Ntp2906
Rp2907
(dp2908
g1414
Vhttp://avatars.yandex.net/get-tv-channel-logos/1356612022097M50743/orig
p2909
sg1416
V\u042d\u0433\u043e\u0438\u0441\u0442 \u0422\u0412
p2910
sg1418
Vhttp://tv.yandex.ua/2/channels/431
p2911
sg1420
I249
sbsI250
g1408
(g1409
g1410
Ntp2912
Rp2913
(dp2914
g1414
Vhttp://avatars.yandex.net/get-tv-shows/1333713010310M30552/orig
p2915
sg1416
V\u0410\u0413\u0420\u041e-\u0422\u0412
p2916
sg1418
Vhttp://tv.yandex.ua/2/channels/11
p2917
sg1420
I250
sbsI251
g1408
(g1409
g1410
Ntp2918
Rp2919
(dp2920
g1414
Vhttp://avatars.yandex.net/get-tv-shows/1333715291495M67100/orig
p2921
sg1416
V\u041f\u0440\u043e\u0441\u0432\u0435\u0449\u0435\u043d\u0438\u0435
p2922
sg1418
Vhttp://tv.yandex.ua/2/channels/685
p2923
sg1420
I251
sbsI252
g1408
(g1409
g1410
Ntp2924
Rp2925
(dp2926
g1414
Vhttp://avatars.yandex.net/get-tv-shows/1333713725548M83943/orig
p2927
sg1416
V\u0420\u0416\u0414
p2928
sg1418
Vhttp://tv.yandex.ua/2/channels/509
p2929
sg1420
I252
sbsI253
g1408
(g1409
g1410
Ntp2930
Rp2931
(dp2932
g1414
Vhttp://avatars.yandex.net/get-tv-shows/1333715232874M54663/orig
p2933
sg1416
V\u041d\u0430\u043d\u043e \u0422\u0412
p2934
sg1418
Vhttp://tv.yandex.ua/2/channels/35
p2935
sg1420
I253
sbsI254
g1408
(g1409
g1410
Ntp2936
Rp2937
(dp2938
g1414
Vhttp://avatars.yandex.net/get-tv-shows/1333708540363M22180/orig
p2939
sg1416
VMTV Live HD
p2940
sg1418
Vhttp://tv.yandex.ua/2/channels/382
p2941
sg1420
I254
sbsI255
g1408
(g1409
g1410
Ntp2942
Rp2943
(dp2944
g1414
Vhttp://avatars.yandex.net/get-tv-shows/1333709420684M86785/orig
p2945
sg1416
VMTV European
p2946
sg1418
Vhttp://tv.yandex.ua/2/channels/270
p2947
sg1420
I255
sbsI256
g1408
(g1409
g1410
Ntp2948
Rp2949
(dp2950
g1414
Vhttp://avatars.yandex.net/get-tv-shows/1333718307034M58256/orig
p2951
sg1416
V\u0414\u0435\u0432\u044f\u0442\u044b\u0439 (\u041e\u0440\u0431\u0438\u0442\u0430)
p2952
sg1418
Vhttp://tv.yandex.ua/2/channels/237
p2953
sg1420
I256
sbsI257
g1408
(g1409
g1410
Ntp2954
Rp2955
(dp2956
g1414
Vhttp://avatars.yandex.net/get-tv-shows/1333713483747M17455/orig
p2957
sg1416
V\u0422\u0435\u043b\u0435\u043a\u0430\u043d\u0430\u043b 21+
p2958
sg1418
Vhttp://tv.yandex.ua/2/channels/492
p2959
sg1420
I257
sbsI258
g1408
(g1409
g1410
Ntp2960
Rp2961
(dp2962
g1414
Vhttp://avatars.yandex.net/get-tv-shows/1333708295391M71704/orig
p2963
sg1416
V\u0410\u0421\u0422\u0420\u041e \u0422\u0412
p2964
sg1418
Vhttp://tv.yandex.ua/2/channels/249
p2965
sg1420
I258
sbsI259
g1408
(g1409
g1410
Ntp2966
Rp2967
(dp2968
g1414
Vhttp://avatars.yandex.net/get-tv-shows/1333713810531M5163/orig
p2969
sg1416
V\u0422\u0412 \u0426\u0435\u043d\u0442\u0440
p2970
sg1418
Vhttp://tv.yandex.ua/213/channels/649
p2971
sg1420
I259
sbsI260
g1408
(g1409
g1410
Ntp2972
Rp2973
(dp2974
g1414
Vhttp://avatars.yandex.net/get-tv-channel-logos/1335163736667M48278/orig
p2975
sg1416
V\u041d\u0422\u0412
p2976
sg1418
Vhttp://tv.yandex.ua/213/channels/162
p2977
sg1420
I260
sbsI261
g1408
(g1409
g1410
Ntp2978
Rp2979
(dp2980
g1414
Vhttp://avatars.yandex.net/get-tv-shows/1333709306970M89489/orig
p2981
sg1416
V\u0414\u043e\u043c\u0430\u0448\u043d\u0438\u0439
p2982
sg1418
Vhttp://tv.yandex.ua/213/channels/304
p2983
sg1420
I261
sbsI262
g1408
(g1409
g1410
Ntp2984
Rp2985
(dp2986
g1414
Vhttp://avatars.yandex.net/get-tv-channel-logos/1348142097301M59393/orig
p2987
sg1416
V\u0421\u0422\u0421
p2988
sg1418
Vhttp://tv.yandex.ua/213/channels/79
p2989
sg1420
I262
sbsI263
g1408
(g1409
g1410
Ntp2990
Rp2991
(dp2992
g1414
Vhttp://avatars.yandex.net/get-tv-shows/1333713476494M63548/orig
p2993
sg1416
V\u0412\u041a\u0422
p2994
sg1418
Vhttp://tv.yandex.ua/213/channels/421
p2995
sg1420
I263
sbsI264
g1408
(g1409
g1410
Ntp2996
Rp2997
(dp2998
g1414
Vhttp://avatars.yandex.net/get-tv-channel-logos/1347458342228M17996/orig
p2999
sg1416
V\u041c\u043e\u0441\u043a\u0432\u0430. \u0414\u043e\u0432\u0435\u0440\u0438\u0435
p3000
sg1418
Vhttp://tv.yandex.ua/213/channels/655
p3001
sg1420
I264
sbsI265
g1408
(g1409
g1410
Ntp3002
Rp3003
(dp3004
g1414
Vhttp://avatars.yandex.net/get-tv-shows/1333713216702M32803/orig
p3005
sg1416
V\u0421\u0435\u043c\u044c\u044f
p3006
sg1418
Vhttp://tv.yandex.ua/213/channels/335
p3007
sg1420
I265
sbsI266
g1408
(g1409
g1410
Ntp3008
Rp3009
(dp3010
g1414
Vhttp://avatars.yandex.net/get-tv-shows/1333708776782M67800/orig
p3011
sg1416
V\u041f\u043e\u0434\u043c\u043e\u0441\u043a\u043e\u0432\u044c\u0435
p3012
sg1418
Vhttp://tv.yandex.ua/213/channels/161
p3013
sg1420
I266
sbsI267
g1408
(g1409
g1410
Ntp3014
Rp3015
(dp3016
g1414
Vhttp://avatars.yandex.net/get-tv-shows/1333713644247M50965/orig
p3017
sg1416
V\u041c\u043e\u0441\u043a\u0432\u0430-24
p3018
sg1418
Vhttp://tv.yandex.ua/213/channels/334
p3019
sg1420
I267
sbsI268
g1408
(g1409
g1410
Ntp3020
Rp3021
(dp3022
g1414
Vhttp://avatars.yandex.net/get-tv-shows/1333715718019M10577/orig
p3023
sg1416
V\u0428\u043a\u043e\u043b\u044c\u043d\u0438\u043a
p3024
sg1418
Vhttp://tv.yandex.ua/213/channels/61
p3025
sg1420
I268
sbsI269
g1408
(g1409
g1410
Ntp3026
Rp3027
(dp3028
g1414
Vhttp://avatars.yandex.net/get-tv-shows/1333713588740M9764/orig
p3029
sg1416
V\u0420\u0415\u041d \u0422\u0412 (\u0423\u043a\u0440\u0430\u0438\u043d\u0430)
p3030
sg1418
Vhttp://tv.yandex.ua/187/channels/689
p3031
sg1420
I269
sbsI270
g1408
(g1409
g1410
Ntp3032
Rp3033
(dp3034
g1414
Vhttp://avatars.yandex.net/get-tv-channel-logos/1356612144844M65707/orig
p3035
sg1416
V\u041f\u0438\u043a\u0441\u0435\u043b\u044c
p3036
sg1418
Vhttp://tv.yandex.ua/187/channels/940
p3037
sg1420
I270
sbsI271
g1408
(g1409
g1410
Ntp3038
Rp3039
(dp3040
g1414
Nsg1416
V\u0414\u043e\u0431\u0440\u043e \u0422\u0412 (\u0423\u043a\u0440\u0430\u0438\u043d\u0430)
p3041
sg1418
Vhttp://tv.yandex.ua/187/channels/937
p3042
sg1420
I271
sbsI272
g1408
(g1409
g1410
Ntp3043
Rp3044
(dp3045
g1414
Vhttp://avatars.yandex.net/get-tv-channel-logos/1357919708763M31170/orig
p3046
sg1416
VUkrainian Fashion (\u0423\u043a\u0440\u0430\u0438\u043d\u0430)
p3047
sg1418
Vhttp://tv.yandex.ua/187/channels/939
p3048
sg1420
I272
sbsI273
g1408
(g1409
g1410
Ntp3049
Rp3050
(dp3051
g1414
Vhttp://avatars.yandex.net/get-tv-shows/1333715806060M27456/orig
p3052
sg1416
V1+1
p3053
sg1418
Vhttp://tv.yandex.ua/187/channels/620
p3054
sg1420
I273
sbsI274
g1408
(g1409
g1410
Ntp3055
Rp3056
(dp3057
g1414
Vhttp://avatars.yandex.net/get-tv-shows/1333712760038M4940/orig
p3058
sg1416
V\u0418\u043d\u0442\u0435\u0440
p3059
sg1418
Vhttp://tv.yandex.ua/187/channels/677
p3060
sg1420
I274
sbsI275
g1408
(g1409
g1410
Ntp3061
Rp3062
(dp3063
g1414
Vhttp://avatars.yandex.net/get-tv-channel-logos/1336200135761M53389/orig
p3064
sg1416
V\u0421\u0422\u0411
p3065
sg1418
Vhttp://tv.yandex.ua/187/channels/670
p3066
sg1420
I275
sbsI276
g1408
(g1409
g1410
Ntp3067
Rp3068
(dp3069
g1414
Vhttp://avatars.yandex.net/get-tv-shows/1333715667706M25067/orig
p3070
sg1416
VICTV
p3071
sg1418
Vhttp://tv.yandex.ua/187/channels/709
p3072
sg1420
I276
sbsI277
g1408
(g1409
g1410
Ntp3073
Rp3074
(dp3075
g1414
Vhttp://avatars.yandex.net/get-tv-shows/1333715224166M18872/orig
p3076
sg1416
V\u041d\u043e\u0432\u044b\u0439 \u043a\u0430\u043d\u0430\u043b
p3077
sg1418
Vhttp://tv.yandex.ua/187/channels/128
p3078
sg1420
I277
sbsI278
g1408
(g1409
g1410
Ntp3079
Rp3080
(dp3081
g1414
Vhttp://avatars.yandex.net/get-tv-shows/1333713186198M12220/orig
p3082
sg1416
V5 \u043a\u0430\u043d\u0430\u043b (\u0423\u043a\u0440\u0430\u0438\u043d\u0430)
p3083
sg1418
Vhttp://tv.yandex.ua/187/channels/586
p3084
sg1420
I278
sbsI279
g1408
(g1409
g1410
Ntp3085
Rp3086
(dp3087
g1414
Vhttp://avatars.yandex.net/get-tv-shows/1333715590594M58125/orig
p3088
sg1416
V\u041d\u0422\u041d
p3089
sg1418
Vhttp://tv.yandex.ua/187/channels/140
p3090
sg1420
I279
sbsI280
g1408
(g1409
g1410
Ntp3091
Rp3092
(dp3093
g1414
Vhttp://avatars.yandex.net/get-tv-channel-logos/1334666594849M22949/orig
p3094
sg1416
V\u0423\u043a\u0440\u0430\u0438\u043d\u0430
p3095
sg1418
Vhttp://tv.yandex.ua/187/channels/326
p3096
sg1420
I280
sbsI281
g1408
(g1409
g1410
Ntp3097
Rp3098
(dp3099
g1414
Vhttp://avatars.yandex.net/get-tv-shows/1333708395005M37754/orig
p3100
sg1416
V\u041f\u0435\u0440\u0432\u044b\u0439 \u043d\u0430\u0446\u0438\u043e\u043d\u0430\u043b\u044c\u043d\u044b\u0439 \u0423\u043a\u0440\u0430\u0438\u043d\u0430
p3101
sg1418
Vhttp://tv.yandex.ua/187/channels/773
p3102
sg1420
I281
sbsI282
g1408
(g1409
g1410
Ntp3103
Rp3104
(dp3105
g1414
Vhttp://avatars.yandex.net/get-tv-shows/1333715776098M80324/orig
p3106
sg1416
V\u041c1
p3107
sg1418
Vhttp://tv.yandex.ua/187/channels/632
p3108
sg1420
I282
sbsI283
g1408
(g1409
g1410
Ntp3109
Rp3110
(dp3111
g1414
Vhttp://avatars.yandex.net/get-tv-shows/1333715963968M59749/orig
p3112
sg1416
VAnimal Planet (\u0423\u043a\u0440\u0430\u0438\u043d\u0430)
p3113
sg1418
Vhttp://tv.yandex.ua/187/channels/607
p3114
sg1420
I283
sbsI284
g1408
(g1409
g1410
Ntp3115
Rp3116
(dp3117
g1414
Vhttp://avatars.yandex.net/get-tv-shows/1333712959005M39465/orig
p3118
sg1416
V2+2
p3119
sg1418
Vhttp://tv.yandex.ua/187/channels/583
p3120
sg1420
I284
sbsI285
g1408
(g1409
g1410
Ntp3121
Rp3122
(dp3123
g1414
Vhttp://avatars.yandex.net/get-tv-channel-logos/1334667568769M76050/orig
p3124
sg1416
V\u0422\u043e\u043d\u0438\u0441
p3125
sg1418
Vhttp://tv.yandex.ua/187/channels/627
p3126
sg1420
I285
sbsI286
g1408
(g1409
g1410
Ntp3127
Rp3128
(dp3129
g1414
Vhttp://avatars.yandex.net/get-tv-shows/1333715678544M95135/orig
p3130
sg1416
V\u0422\u041a \u041c\u0435\u0433\u0430
p3131
sg1418
Vhttp://tv.yandex.ua/187/channels/788
p3132
sg1420
I286
sbsI287
g1408
(g1409
g1410
Ntp3133
Rp3134
(dp3135
g1414
Vhttp://avatars.yandex.net/get-tv-shows/1333713949080M46069/orig
p3136
sg1416
V\u0422\u0412i
p3137
sg1418
Vhttp://tv.yandex.ua/187/channels/650
p3138
sg1420
I287
sbsI288
g1408
(g1409
g1410
Ntp3139
Rp3140
(dp3141
g1414
Vhttp://avatars.yandex.net/get-tv-shows/1333712652761M79477/orig
p3142
sg1416
V\u041a\u0438\u0435\u0432
p3143
sg1418
Vhttp://tv.yandex.ua/187/channels/634
p3144
sg1420
I288
sbsI289
g1408
(g1409
g1410
Ntp3145
Rp3146
(dp3147
g1414
Vhttp://avatars.yandex.net/get-tv-channel-logos/1334667359799M65057/orig
p3148
sg1416
V\u041f\u0435\u0440\u0432\u044b\u0439 \u0430\u0432\u0442\u043e\u043c\u043e\u0431\u0438\u043b\u044c\u043d\u044b\u0439
p3149
sg1418
Vhttp://tv.yandex.ua/187/channels/507
p3150
sg1420
I289
sbsI290
g1408
(g1409
g1410
Ntp3151
Rp3152
(dp3153
g1414
Vhttp://avatars.yandex.net/get-tv-shows/1333716835613M81770/orig
p3154
sg1416
VEnter-\u0444\u0438\u043b\u044c\u043c
p3155
sg1418
Vhttp://tv.yandex.ua/187/channels/281
p3156
sg1420
I290
sbsI291
g1408
(g1409
g1410
Ntp3157
Rp3158
(dp3159
g1414
Vhttp://avatars.yandex.net/get-tv-shows/1333715641594M53127/orig
p3160
sg1416
VO-TV
p3161
sg1418
Vhttp://tv.yandex.ua/187/channels/167
p3162
sg1420
I291
sbsI292
g1408
(g1409
g1410
Ntp3163
Rp3164
(dp3165
g1414
Vhttp://avatars.yandex.net/get-tv-shows/1333715284079M99947/orig
p3166
sg1416
V\u0418\u043d\u0442\u0435\u0440+
p3167
sg1418
Vhttp://tv.yandex.ua/187/channels/808
p3168
sg1420
I292
sbsI293
g1408
(g1409
g1410
Ntp3169
Rp3170
(dp3171
g1414
Vhttp://avatars.yandex.net/get-tv-channel-logos/1334666928508M51216/orig
p3172
sg1416
V\u041f\u0435\u0440\u0432\u044b\u0439 \u0434\u0435\u043b\u043e\u0432\u043e\u0439
p3173
sg1418
Vhttp://tv.yandex.ua/187/channels/85
p3174
sg1420
I293
sbsI294
g1408
(g1409
g1410
Ntp3175
Rp3176
(dp3177
g1414
Vhttp://avatars.yandex.net/get-tv-channel-logos/1334667133239M67794/orig
p3178
sg1416
V\u0422\u0415\u0422
p3179
sg1418
Vhttp://tv.yandex.ua/187/channels/479
p3180
sg1420
I294
sbsI295
g1408
(g1409
g1410
Ntp3181
Rp3182
(dp3183
g1414
Vhttp://avatars.yandex.net/get-tv-channel-logos/1357914650300M76133/orig
p3184
sg1416
V\u0424\u0443\u0442\u0431\u043e\u043b (\u0423\u043a\u0440\u0430\u0438\u043d\u0430)
p3185
sg1418
Vhttp://tv.yandex.ua/187/channels/666
p3186
sg1420
I295
sbsI296
g1408
(g1409
g1410
Ntp3187
Rp3188
(dp3189
g1414
Vhttp://avatars.yandex.net/get-tv-shows/1333716077131M91231/orig
p3190
sg1416
V\u0422\u0420\u041a \u0414\u043e\u043d\u0431\u0430\u0441\u0441
p3191
sg1418
Vhttp://tv.yandex.ua/187/channels/641
p3192
sg1420
I296
sbsI297
g1408
(g1409
g1410
Ntp3193
Rp3194
(dp3195
g1414
Vhttp://avatars.yandex.net/get-tv-channel-logos/1357914614690M92867/orig
p3196
sg1416
V\u0424\u0443\u0442\u0431\u043e\u043b+
p3197
sg1418
Vhttp://tv.yandex.ua/187/channels/753
p3198
sg1420
I297
sbsI298
g1408
(g1409
g1410
Ntp3199
Rp3200
(dp3201
g1414
Vhttp://avatars.yandex.net/get-tv-shows/1333713946027M27822/orig
p3202
sg1416
V34 \u0442\u0435\u043b\u0435\u043a\u0430\u043d\u0430\u043b
p3203
sg1418
Vhttp://tv.yandex.ua/187/channels/561
p3204
sg1420
I298
sbsI299
g1408
(g1409
g1410
Ntp3205
Rp3206
(dp3207
g1414
Vhttp://avatars.yandex.net/get-tv-shows/1333715233642M2369/orig
p3208
sg1416
V\u0420\u043e\u0441\u0441\u0438\u044f 24 (\u0423\u043a\u0440\u0430\u0438\u043d\u0430)
p3209
sg1418
Vhttp://tv.yandex.ua/187/channels/291
p3210
sg1420
I299
sbsI300
g1408
(g1409
g1410
Ntp3211
Rp3212
(dp3213
g1414
Vhttp://avatars.yandex.net/get-tv-shows/1333713201452M27295/orig
p3214
sg1416
V\u041a1
p3215
sg1418
Vhttp://tv.yandex.ua/187/channels/453
p3216
sg1420
I300
sbsI301
g1408
(g1409
g1410
Ntp3217
Rp3218
(dp3219
g1414
Vhttp://avatars.yandex.net/get-tv-shows/1333715921518M78285/orig
p3220
sg1416
V\u0422\u0420\u041a \u042e\u043d\u0438\u043e\u043d
p3221
sg1418
Vhttp://tv.yandex.ua/187/channels/90
p3222
sg1420
I301
sbsI302
g1408
(g1409
g1410
Ntp3223
Rp3224
(dp3225
g1414
Vhttp://avatars.yandex.net/get-tv-shows/1333716890872M95176/orig
p3226
sg1416
V\u0425\u043e\u043a\u043a\u0435\u0439
p3227
sg1418
Vhttp://tv.yandex.ua/187/channels/702
p3228
sg1420
I302
sbsI303
g1408
(g1409
g1410
Ntp3229
Rp3230
(dp3231
g1414
Vhttp://avatars.yandex.net/get-tv-channel-logos/1348142097301M59393/orig
p3232
sg1416
V\u0421\u0422\u0421 International
p3233
sg1418
Vhttp://tv.yandex.ua/187/channels/166
p3234
sg1420
I303
sbsI304
g1408
(g1409
g1410
Ntp3235
Rp3236
(dp3237
g1414
Vhttp://avatars.yandex.net/get-tv-shows/1333715379889M58608/orig
p3238
sg1416
V\u041f\u0435\u0440\u0432\u044b\u0439 (\u0423\u043a\u0440\u0430\u0438\u043d\u0430)
p3239
sg1418
Vhttp://tv.yandex.ua/187/channels/391
p3240
sg1420
I304
sbsI305
g1408
(g1409
g1410
Ntp3241
Rp3242
(dp3243
g1414
Vhttp://avatars.yandex.net/get-tv-shows/1333709125468M55872/orig
p3244
sg1416
VQTV
p3245
sg1418
Vhttp://tv.yandex.ua/187/channels/280
p3246
sg1420
I305
sbsI306
g1408
(g1409
g1410
Ntp3247
Rp3248
(dp3249
g1414
Vhttp://avatars.yandex.net/get-tv-shows/1333718316371M58959/orig
p3250
sg1416
V\u0420\u043e\u0441\u0441\u0438\u044f-\u041f\u043b\u0430\u043d\u0435\u0442\u0430
p3251
sg1418
Vhttp://tv.yandex.ua/187/channels/143
p3252
sg1420
I306
sbsI307
g1408
(g1409
g1410
Ntp3253
Rp3254
(dp3255
g1414
Vhttp://avatars.yandex.net/get-tv-shows/1333713805411M63113/orig
p3256
sg1416
V\u0422\u0412 \u0426\u0435\u043d\u0442\u0440-International
p3257
sg1418
Vhttp://tv.yandex.ua/187/channels/435
p3258
sg1420
I307
sbsI308
g1408
(g1409
g1410
Ntp3259
Rp3260
(dp3261
g1414
Vhttp://avatars.yandex.net/get-tv-shows/1333709186098M48833/orig
p3262
sg1416
V\u041d\u0422\u0412-\u041c\u0438\u0440
p3263
sg1418
Vhttp://tv.yandex.ua/187/channels/422
p3264
sg1420
I308
sbsI309
g1408
(g1409
g1410
Ntp3265
Rp3266
(dp3267
g1414
Vhttp://avatars.yandex.net/get-tv-shows/1333715305318M14526/orig
p3268
sg1416
V24 \u0422\u0435\u0445\u043d\u043e (\u0423\u043a\u0440\u0430\u0438\u043d\u0430)
p3269
sg1418
Vhttp://tv.yandex.ua/187/channels/710
p3270
sg1420
I309
sbsI310
g1408
(g1409
g1410
Ntp3271
Rp3272
(dp3273
g1414
Vhttp://avatars.yandex.net/get-tv-shows/1333716796927M20496/orig
p3274
sg1416
VAB Moteurs (\u0423\u043a\u0440\u0430\u0438\u043d\u0430)
p3275
sg1418
Vhttp://tv.yandex.ua/187/channels/579
p3276
sg1420
I310
sbsI311
g1408
(g1409
g1410
Ntp3277
Rp3278
(dp3279
g1414
Vhttp://avatars.yandex.net/get-tv-shows/1333708911984M73554/orig
p3280
sg1416
VAmazing Life (\u0423\u043a\u0440\u0430\u0438\u043d\u0430)
p3281
sg1418
Vhttp://tv.yandex.ua/187/channels/658
p3282
sg1420
I311
sbsI312
g1408
(g1409
g1410
Ntp3283
Rp3284
(dp3285
g1414
Vhttp://avatars.yandex.net/get-tv-shows/1333715451160M7791/orig
p3286
sg1416
VMa\u043a\u0441i-T\u0412
p3287
sg1418
Vhttp://tv.yandex.ua/187/channels/228
p3288
sg1420
I312
sbsI313
g1408
(g1409
g1410
Ntp3289
Rp3290
(dp3291
g1414
Vhttp://avatars.yandex.net/get-tv-channel-logos/1347977468008M80159/orig
p3292
sg1416
VAXN Sci-Fi (\u0423\u043a\u0440\u0430\u0438\u043d\u0430)
p3293
sg1418
Vhttp://tv.yandex.ua/187/channels/516
p3294
sg1420
I313
sbsI314
g1408
(g1409
g1410
Ntp3295
Rp3296
(dp3297
g1414
Vhttp://avatars.yandex.net/get-tv-shows/1333713774748M13525/orig
p3298
sg1416
VBloomberg (\u0423\u043a\u0440\u0430\u0438\u043d\u0430)
p3299
sg1418
Vhttp://tv.yandex.ua/187/channels/463
p3300
sg1420
I314
sbsI315
g1408
(g1409
g1410
Ntp3301
Rp3302
(dp3303
g1414
Vhttp://avatars.yandex.net/get-tv-shows/1333713460684M81763/orig
p3304
sg1416
VCartoon Network (\u0423\u043a\u0440\u0430\u0438\u043d\u0430)
p3305
sg1418
Vhttp://tv.yandex.ua/187/channels/601
p3306
sg1420
I315
sbsI316
g1408
(g1409
g1410
Ntp3307
Rp3308
(dp3309
g1414
Vhttp://avatars.yandex.net/get-tv-shows/1333713868645M58659/orig
p3310
sg1416
VCNN (\u0423\u043a\u0440\u0430\u0438\u043d\u0430)
p3311
sg1418
Vhttp://tv.yandex.ua/187/channels/495
p3312
sg1420
I316
sbsI317
g1408
(g1409
g1410
Ntp3313
Rp3314
(dp3315
g1414
Vhttp://avatars.yandex.net/get-tv-shows/1333713824656M29108/orig
p3316
sg1416
VAjara TV (\u0423\u043a\u0440\u0430\u0438\u043d\u0430)
p3317
sg1418
Vhttp://tv.yandex.ua/187/channels/756
p3318
sg1420
I317
sbsI318
g1408
(g1409
g1410
Ntp3319
Rp3320
(dp3321
g1414
Vhttp://avatars.yandex.net/get-tv-shows/1333716035229M94207/orig
p3322
sg1416
VDiscovery Channel (\u0423\u043a\u0440\u0430\u0438\u043d\u0430)
p3323
sg1418
Vhttp://tv.yandex.ua/187/channels/325
p3324
sg1420
I318
sbsI319
g1408
(g1409
g1410
Ntp3325
Rp3326
(dp3327
g1414
Vhttp://avatars.yandex.net/get-tv-channel-logos/1358335632205M86039/orig
p3328
sg1416
VDiscovery Science (\u0423\u043a\u0440\u0430\u0438\u043d\u0430)
p3329
sg1418
Vhttp://tv.yandex.ua/187/channels/409
p3330
sg1420
I319
sbsI320
g1408
(g1409
g1410
Ntp3331
Rp3332
(dp3333
g1414
Vhttp://avatars.yandex.net/get-tv-channel-logos/1358335592919M76257/orig
p3334
sg1416
VDiscovery World (\u0423\u043a\u0440\u0430\u0438\u043d\u0430)
p3335
sg1418
Vhttp://tv.yandex.ua/187/channels/437
p3336
sg1420
I320
sbsI321
g1408
(g1409
g1410
Ntp3337
Rp3338
(dp3339
g1414
Vhttp://avatars.yandex.net/get-tv-shows/1333713695937M46754/orig
p3340
sg1416
VESPN classic (\u0423\u043a\u0440\u0430\u0438\u043d\u0430)
p3341
sg1418
Vhttp://tv.yandex.ua/187/channels/60
p3342
sg1420
I321
sbsI322
g1408
(g1409
g1410
Ntp3343
Rp3344
(dp3345
g1414
Vhttp://avatars.yandex.net/get-tv-shows/1333715265608M77219/orig
p3346
sg1416
VBBC World (\u0423\u043a\u0440\u0430\u0438\u043d\u0430)
p3347
sg1418
Vhttp://tv.yandex.ua/187/channels/828
p3348
sg1420
I322
sbsI323
g1408
(g1409
g1410
Ntp3349
Rp3350
(dp3351
g1414
Vhttp://avatars.yandex.net/get-tv-shows/1333715747653M72464/orig
p3352
sg1416
VEuroNews (\u0423\u043a\u0440\u0430\u0438\u043d\u0430)
p3353
sg1418
Vhttp://tv.yandex.ua/187/channels/23
p3354
sg1420
I323
sbsI324
g1408
(g1409
g1410
Ntp3355
Rp3356
(dp3357
g1414
Vhttp://avatars.yandex.net/get-tv-shows/1333713989705M95921/orig
p3358
sg1416
VEurosport 2 (\u0423\u043a\u0440\u0430\u0438\u043d\u0430)
p3359
sg1418
Vhttp://tv.yandex.ua/187/channels/850
p3360
sg1420
I324
sbsI325
g1408
(g1409
g1410
Ntp3361
Rp3362
(dp3363
g1414
Vhttp://avatars.yandex.net/get-tv-shows/1333716877043M9588/orig
p3364
sg1416
VExtreme Sports (\u0423\u043a\u0440\u0430\u0438\u043d\u0430)
p3365
sg1418
Vhttp://tv.yandex.ua/187/channels/288
p3366
sg1420
I325
sbsI326
g1408
(g1409
g1410
Ntp3367
Rp3368
(dp3369
g1414
Vhttp://avatars.yandex.net/get-tv-shows/1333712606553M24172/orig
p3370
sg1416
VDeutsche Welle (\u0423\u043a\u0440\u0430\u0438\u043d\u0430)
p3371
sg1418
Vhttp://tv.yandex.ua/187/channels/355
p3372
sg1420
I326
sbsI327
g1408
(g1409
g1410
Ntp3373
Rp3374
(dp3375
g1414
Vhttp://avatars.yandex.net/get-tv-shows/1333713810610M50051/orig
p3376
sg1416
VFashion TV (\u0423\u043a\u0440\u0430\u0438\u043d\u0430)
p3377
sg1418
Vhttp://tv.yandex.ua/187/channels/661
p3378
sg1420
I327
sbsI328
g1408
(g1409
g1410
Ntp3379
Rp3380
(dp3381
g1414
Vhttp://avatars.yandex.net/get-tv-shows/1333713925399M49999/orig
p3382
sg1416
VHD \u0421\u043f\u043e\u0440\u0442 (\u0423\u043a\u0440\u0430\u0438\u043d\u0430)
p3383
sg1418
Vhttp://tv.yandex.ua/187/channels/429
p3384
sg1420
I328
sbsI329
g1408
(g1409
g1410
Ntp3385
Rp3386
(dp3387
g1414
Vhttp://avatars.yandex.net/get-tv-shows/1333713840422M72865/orig
p3388
sg1416
VMezzo (\u0423\u043a\u0440\u0430\u0438\u043d\u0430)
p3389
sg1418
Vhttp://tv.yandex.ua/187/channels/575
p3390
sg1420
I329
sbsI330
g1408
(g1409
g1410
Ntp3391
Rp3392
(dp3393
g1414
Vhttp://avatars.yandex.net/get-tv-shows/1333712622127M71944/orig
p3394
sg1416
VMGM (\u0423\u043a\u0440\u0430\u0438\u043d\u0430)
p3395
sg1418
Vhttp://tv.yandex.ua/187/channels/608
p3396
sg1420
I330
sbsI331
g1408
(g1409
g1410
Ntp3397
Rp3398
(dp3399
g1414
Vhttp://avatars.yandex.net/get-tv-shows/1333715529423M53477/orig
p3400
sg1416
VNational Geographic (\u0423\u043a\u0440\u0430\u0438\u043d\u0430)
p3401
sg1418
Vhttp://tv.yandex.ua/187/channels/102
p3402
sg1420
I331
sbsI332
g1408
(g1409
g1410
Ntp3403
Rp3404
(dp3405
g1414
Vhttp://avatars.yandex.net/get-tv-shows/1333713621438M28015/orig
p3406
sg1416
VNickelodeon (\u0423\u043a\u0440\u0430\u0438\u043d\u0430)
p3407
sg1418
Vhttp://tv.yandex.ua/187/channels/567
p3408
sg1420
I332
sbsI333
g1408
(g1409
g1410
Ntp3409
Rp3410
(dp3411
g1414
Vhttp://avatars.yandex.net/get-tv-shows/1333713085591M64755/orig
p3412
sg1416
VOcean TV (\u0423\u043a\u0440\u0430\u0438\u043d\u0430)
p3413
sg1418
Vhttp://tv.yandex.ua/187/channels/55
p3414
sg1420
I333
sbsI334
g1408
(g1409
g1410
Ntp3415
Rp3416
(dp3417
g1414
Vhttp://avatars.yandex.net/get-tv-shows/1333715680495M54747/orig
p3418
sg1416
VSyFy (\u0423\u043a\u0440\u0430\u0438\u043d\u0430)
p3419
sg1418
Vhttp://tv.yandex.ua/187/channels/75
p3420
sg1420
I334
sbsI335
g1408
(g1409
g1410
Ntp3421
Rp3422
(dp3423
g1414
Vhttp://avatars.yandex.net/get-tv-shows/1333715322381M67288/orig
p3424
sg1416
VTV1000 (\u0423\u043a\u0440\u0430\u0438\u043d\u0430)
p3425
sg1418
Vhttp://tv.yandex.ua/187/channels/127
p3426
sg1420
I335
sbsI336
g1408
(g1409
g1410
Ntp3427
Rp3428
(dp3429
g1414
Vhttp://avatars.yandex.net/get-tv-shows/1333716722923M49423/orig
p3430
sg1416
VTV1000 \u0420\u0443\u0441\u0441\u043a\u043e\u0435 \u043a\u0438\u043d\u043e (\u0423\u043a\u0440\u0430\u0438\u043d\u0430)
p3431
sg1418
Vhttp://tv.yandex.ua/187/channels/267
p3432
sg1420
I336
sbsI337
g1408
(g1409
g1410
Ntp3433
Rp3434
(dp3435
g1414
Vhttp://avatars.yandex.net/get-tv-shows/1333713975231M23496/orig
p3436
sg1416
VTV XXI (\u0423\u043a\u0440\u0430\u0438\u043d\u0430)
p3437
sg1418
Vhttp://tv.yandex.ua/187/channels/309
p3438
sg1420
I337
sbsI338
g1408
(g1409
g1410
Ntp3439
Rp3440
(dp3441
g1414
Vhttp://avatars.yandex.net/get-tv-shows/1333715355758M56368/orig
p3442
sg1416
VLuxe HD (\u0423\u043a\u0440\u0430\u0438\u043d\u0430)
p3443
sg1418
Vhttp://tv.yandex.ua/187/channels/312
p3444
sg1420
I338
sbsI339
g1408
(g1409
g1410
Ntp3445
Rp3446
(dp3447
g1414
Vhttp://avatars.yandex.net/get-tv-shows/1333713708028M30550/orig
p3448
sg1416
VTV5 (\u0423\u043a\u0440\u0430\u0438\u043d\u0430)
p3449
sg1418
Vhttp://tv.yandex.ua/187/channels/589
p3450
sg1420
I339
sbsI340
g1408
(g1409
g1410
Ntp3451
Rp3452
(dp3453
g1414
Vhttp://avatars.yandex.net/get-tv-shows/1333713528423M49234/orig
p3454
sg1416
VUniversal Channel (\u0423\u043a\u0440\u0430\u0438\u043d\u0430)
p3455
sg1418
Vhttp://tv.yandex.ua/187/channels/213
p3456
sg1420
I340
sbsI341
g1408
(g1409
g1410
Ntp3457
Rp3458
(dp3459
g1414
Vhttp://avatars.yandex.net/get-tv-shows/1333715635729M66606/orig
p3460
sg1416
VViasat Explorer (\u0423\u043a\u0440\u0430\u0438\u043d\u0430)
p3461
sg1418
Vhttp://tv.yandex.ua/187/channels/521
p3462
sg1420
I341
sbsI342
g1408
(g1409
g1410
Ntp3463
Rp3464
(dp3465
g1414
Vhttp://avatars.yandex.net/get-tv-shows/1333715410270M23339/orig
p3466
sg1416
VViasat History (\u0423\u043a\u0440\u0430\u0438\u043d\u0430)
p3467
sg1418
Vhttp://tv.yandex.ua/187/channels/277
p3468
sg1420
I342
sbsI343
g1408
(g1409
g1410
Ntp3469
Rp3470
(dp3471
g1414
Vhttp://avatars.yandex.net/get-tv-shows/1333707549264M49253/orig
p3472
sg1416
VWorld Fashion Channel (\u0423\u043a\u0440\u0430\u0438\u043d\u0430)
p3473
sg1418
Vhttp://tv.yandex.ua/187/channels/346
p3474
sg1420
I343
sbsI344
g1408
(g1409
g1410
Ntp3475
Rp3476
(dp3477
g1414
Vhttp://avatars.yandex.net/get-tv-shows/1333716071391M27068/orig
p3478
sg1416
V\u0411\u043e\u0435\u0446 (\u0423\u043a\u0440\u0430\u0438\u043d\u0430)
p3479
sg1418
Vhttp://tv.yandex.ua/187/channels/454
p3480
sg1420
I344
sbsI345
g1408
(g1409
g1410
Ntp3481
Rp3482
(dp3483
g1414
Vhttp://avatars.yandex.net/get-tv-shows/1333713688755M57280/orig
p3484
sg1416
V\u0412\u0440\u0435\u043c\u044f (\u0423\u043a\u0440\u0430\u0438\u043d\u0430)
p3485
sg1418
Vhttp://tv.yandex.ua/187/channels/669
p3486
sg1420
I345
sbsI346
g1408
(g1409
g1410
Ntp3487
Rp3488
(dp3489
g1414
Vhttp://avatars.yandex.net/get-tv-channel-logos/1348587564748M70641/orig
p3490
sg1416
V\u0414\u0435\u0442\u0441\u043a\u0438\u0439 (\u0423\u043a\u0440\u0430\u0438\u043d\u0430)
p3491
sg1418
Vhttp://tv.yandex.ua/187/channels/66
p3492
sg1420
I346
sbsI347
g1408
(g1409
g1410
Ntp3493
Rp3494
(dp3495
g1414
Vhttp://avatars.yandex.net/get-tv-channel-logos/1356771171081M25756/orig
p3496
sg1416
V\u0414\u0435\u0442\u0441\u043a\u0438\u0439 \u043c\u0438\u0440 (\u0423\u043a\u0440\u0430\u0438\u043d\u0430)
p3497
sg1418
Vhttp://tv.yandex.ua/187/channels/747
p3498
sg1420
I347
sbsI348
g1408
(g1409
g1410
Ntp3499
Rp3500
(dp3501
g1414
Vhttp://avatars.yandex.net/get-tv-shows/1333708636011M82578/orig
p3502
sg1416
V\u0414\u043e\u043c \u043a\u0438\u043d\u043e (\u0423\u043a\u0440\u0430\u0438\u043d\u0430)
p3503
sg1418
Vhttp://tv.yandex.ua/187/channels/834
p3504
sg1420
I348
sbsI349
g1408
(g1409
g1410
Ntp3505
Rp3506
(dp3507
g1414
Vhttp://avatars.yandex.net/get-tv-shows/1333707554614M47050/orig
p3508
sg1416
V\u0417\u043e\u043e \u0422\u0412 (\u0423\u043a\u0440\u0430\u0438\u043d\u0430)
p3509
sg1418
Vhttp://tv.yandex.ua/187/channels/273
p3510
sg1420
I349
sbsI350
g1408
(g1409
g1410
Ntp3511
Rp3512
(dp3513
g1414
Vhttp://avatars.yandex.net/get-tv-shows/1333715691315M43621/orig
p3514
sg1416
V\u0418\u043b\u043b\u044e\u0437\u0438\u043e\u043d + (\u0423\u043a\u0440\u0430\u0438\u043d\u0430)
p3515
sg1418
Vhttp://tv.yandex.ua/187/channels/123
p3516
sg1420
I350
sbsI351
g1408
(g1409
g1410
Ntp3517
Rp3518
(dp3519
g1414
Vhttp://avatars.yandex.net/get-tv-shows/1333707995986M34877/orig
p3520
sg1416
V\u0418\u043d\u0434\u0438\u044f \u0422\u0412 (\u0423\u043a\u0440\u0430\u0438\u043d\u0430)
p3521
sg1418
Vhttp://tv.yandex.ua/187/channels/798
p3522
sg1420
I351
sbsI352
g1408
(g1409
g1410
Ntp3523
Rp3524
(dp3525
g1414
Vhttp://avatars.yandex.net/get-tv-shows/1333708316300M57639/orig
p3526
sg1416
V\u041a\u0438\u043d\u043e\u043a\u043b\u0443\u0431 (\u0423\u043a\u0440\u0430\u0438\u043d\u0430)
p3527
sg1418
Vhttp://tv.yandex.ua/187/channels/462
p3528
sg1420
I352
sbsI353
g1408
(g1409
g1410
Ntp3529
Rp3530
(dp3531
g1414
Vhttp://avatars.yandex.net/get-tv-shows/1333716891806M18999/orig
p3532
sg1416
V\u041a\u0438\u043d\u043e\u043f\u043e\u043a\u0430\u0437 (\u0423\u043a\u0440\u0430\u0438\u043d\u0430)
p3533
sg1418
Vhttp://tv.yandex.ua/187/channels/22
p3534
sg1420
I353
sbsI354
g1408
(g1409
g1410
Ntp3535
Rp3536
(dp3537
g1414
Vhttp://avatars.yandex.net/get-tv-shows/1333715225057M89214/orig
p3538
sg1416
V\u041a\u0438\u043d\u043e\u0441\u043e\u044e\u0437 (\u0423\u043a\u0440\u0430\u0438\u043d\u0430)
p3539
sg1418
Vhttp://tv.yandex.ua/187/channels/71
p3540
sg1420
I354
sbsI355
g1408
(g1409
g1410
Ntp3541
Rp3542
(dp3543
g1414
Vhttp://avatars.yandex.net/get-tv-shows/1333713093430M11517/orig
p3544
sg1416
V\u041a\u0438\u043d\u043e\u0445\u0438\u0442 (\u0423\u043a\u0440\u0430\u0438\u043d\u0430)
p3545
sg1418
Vhttp://tv.yandex.ua/187/channels/542
p3546
sg1420
I355
sbsI356
g1408
(g1409
g1410
Ntp3547
Rp3548
(dp3549
g1414
Vhttp://avatars.yandex.net/get-tv-channel-logos/1352298708156M61329/orig
p3550
sg1416
V\u041c\u0430\u0442\u044c \u0438 \u0434\u0438\u0442\u044f (\u0423\u043a\u0440\u0430\u0438\u043d\u0430)
p3551
sg1418
Vhttp://tv.yandex.ua/187/channels/618
p3552
sg1420
I356
sbsI357
g1408
(g1409
g1410
Ntp3553
Rp3554
(dp3555
g1414
Vhttp://avatars.yandex.net/get-tv-shows/1333713764780M72648/orig
p3556
sg1416
V\u041c\u043e\u044f \u041f\u043b\u0430\u043d\u0435\u0442\u0430 (\u0423\u043a\u0440\u0430\u0438\u043d\u0430)
p3557
sg1418
Vhttp://tv.yandex.ua/187/channels/675
p3558
sg1420
I357
sbsI358
g1408
(g1409
g1410
Ntp3559
Rp3560
(dp3561
g1414
Vhttp://avatars.yandex.net/get-tv-channel-logos/1352298732686M97290/orig
p3562
sg1416
V\u041d\u0430\u0441\u0442\u043e\u044f\u0449\u0435\u0435 \u0421\u0442\u0440\u0430\u0448\u043d\u043e\u0435 \u0422\u0435\u043b\u0435\u0432\u0438\u0434\u0435\u043d\u0438\u0435 (\u0423\u043a\u0440\u0430\u0438\u043d\u0430)
p3563
sg1418
Vhttp://tv.yandex.ua/187/channels/518
p3564
sg1420
I358
sbsI359
g1408
(g1409
g1410
Ntp3565
Rp3566
(dp3567
g1414
Vhttp://avatars.yandex.net/get-tv-shows/1333715883475M39981/orig
p3568
sg1416
V\u041d\u0430\u0448\u0435 \u043a\u0438\u043d\u043e (\u0423\u043a\u0440\u0430\u0438\u043d\u0430)
p3569
sg1418
Vhttp://tv.yandex.ua/187/channels/12
p3570
sg1420
I359
sbsI360
g1408
(g1409
g1410
Ntp3571
Rp3572
(dp3573
g1414
Vhttp://avatars.yandex.net/get-tv-shows/1333715281884M92118/orig
p3574
sg1416
V\u041d\u0430\u0448\u0435 \u041d\u043e\u0432\u043e\u0435 \u041a\u0438\u043d\u043e (\u0423\u043a\u0440\u0430\u0438\u043d\u0430)
p3575
sg1418
Vhttp://tv.yandex.ua/187/channels/485
p3576
sg1420
I360
sbsI361
g1408
(g1409
g1410
Ntp3577
Rp3578
(dp3579
g1414
Vhttp://avatars.yandex.net/get-tv-shows/1333709127662M17128/orig
p3580
sg1416
V\u041d\u043e\u0441\u0442\u0430\u043b\u044c\u0433\u0438\u044f (\u0423\u043a\u0440\u0430\u0438\u043d\u0430)
p3581
sg1418
Vhttp://tv.yandex.ua/187/channels/783
p3582
sg1420
I361
sbsI362
g1408
(g1409
g1410
Ntp3583
Rp3584
(dp3585
g1414
Vhttp://avatars.yandex.net/get-tv-shows/1333715457097M72151/orig
p3586
sg1416
V\u041e\u0445\u043e\u0442\u0430 \u0438 \u0440\u044b\u0431\u0430\u043b\u043a\u0430 (\u0423\u043a\u0440\u0430\u0438\u043d\u0430)
p3587
sg1418
Vhttp://tv.yandex.ua/187/channels/617
p3588
sg1420
I362
sbsI363
g1408
(g1409
g1410
Ntp3589
Rp3590
(dp3591
g1414
Vhttp://avatars.yandex.net/get-tv-shows/1333707582031M183/orig
p3592
sg1416
V\u041f\u0440\u0435\u043c\u044c\u0435\u0440\u0430 (\u0423\u043a\u0440\u0430\u0438\u043d\u0430)
p3593
sg1418
Vhttp://tv.yandex.ua/187/channels/566
p3594
sg1420
I363
sbsI364
g1408
(g1409
g1410
Ntp3595
Rp3596
(dp3597
g1414
Vhttp://avatars.yandex.net/get-tv-shows/1333712861918M74194/orig
p3598
sg1416
V\u0420\u0430\u0434\u043e\u0441\u0442\u044c \u041c\u043e\u044f (\u0423\u043a\u0440\u0430\u0438\u043d\u0430)
p3599
sg1418
Vhttp://tv.yandex.ua/187/channels/638
p3600
sg1420
I364
sbsI365
g1408
(g1409
g1410
Ntp3601
Rp3602
(dp3603
g1414
Vhttp://avatars.yandex.net/get-tv-shows/1333716071911M4423/orig
p3604
sg1416
V\u0420\u0411\u041a (\u0423\u043a\u0440\u0430\u0438\u043d\u0430)
p3605
sg1418
Vhttp://tv.yandex.ua/187/channels/743
p3606
sg1420
I365
sbsI366
g1408
(g1409
g1410
Ntp3607
Rp3608
(dp3609
g1414
Vhttp://avatars.yandex.net/get-tv-channel-logos/1348587808200M68387/orig
p3610
sg1416
V\u0420\u0443\u0441\u0441\u043a\u0438\u0439 \u0418\u043b\u043b\u044e\u0437\u0438\u043e\u043d (\u0423\u043a\u0440\u0430\u0438\u043d\u0430)
p3611
sg1418
Vhttp://tv.yandex.ua/187/channels/53
p3612
sg1420
I366
sbsI367
g1408
(g1409
g1410
Ntp3613
Rp3614
(dp3615
g1414
Vhttp://avatars.yandex.net/get-tv-shows/1333709116007M94471/orig
p3616
sg1416
V\u0420\u0443\u0441\u0441\u043a\u0438\u0439 \u042d\u043a\u0441\u0442\u0440\u0438\u043c (\u0423\u043a\u0440\u0430\u0438\u043d\u0430)
p3617
sg1418
Vhttp://tv.yandex.ua/187/channels/406
p3618
sg1420
I367
sbsI368
g1408
(g1409
g1410
Ntp3619
Rp3620
(dp3621
g1414
Vhttp://avatars.yandex.net/get-tv-channel-logos/1347458235853M37527/orig
p3622
sg1416
V\u0421\u0430\u0440\u0430\u0444\u0430\u043d (\u0423\u043a\u0440\u0430\u0438\u043d\u0430)
p3623
sg1418
Vhttp://tv.yandex.ua/187/channels/663
p3624
sg1420
I368
sbsI369
g1408
(g1409
g1410
Ntp3625
Rp3626
(dp3627
g1414
Vhttp://avatars.yandex.net/get-tv-shows/1333713216376M58195/orig
p3628
sg1416
V\u0421\u043f\u0430\u0441 \u0422\u0412 (\u0423\u043a\u0440\u0430\u0438\u043d\u0430)
p3629
sg1418
Vhttp://tv.yandex.ua/187/channels/447
p3630
sg1420
I369
sbsI370
g1408
(g1409
g1410
Ntp3631
Rp3632
(dp3633
g1414
Vhttp://avatars.yandex.net/get-tv-shows/1333715467716M44576/orig
p3634
sg1416
V\u0421\u043f\u043e\u0440\u0442 1 (\u0423\u043a\u0440\u0430\u0438\u043d\u0430)
p3635
sg1418
Vhttp://tv.yandex.ua/187/channels/181
p3636
sg1420
I370
sbsI371
g1408
(g1409
g1410
Ntp3637
Rp3638
(dp3639
g1414
Vhttp://avatars.yandex.net/get-tv-shows/1333715984312M65283/orig
p3640
sg1416
V\u0422\u0435\u043b\u0435\u043a\u0430\u0444\u0435 (\u0423\u043a\u0440\u0430\u0438\u043d\u0430)
p3641
sg1418
Vhttp://tv.yandex.ua/187/channels/173
p3642
sg1420
I371
sbsI372
g1408
(g1409
g1410
Ntp3643
Rp3644
(dp3645
g1414
Vhttp://avatars.yandex.net/get-tv-shows/1333712862861M8549/orig
p3646
sg1416
V\u0422\u0435\u043b\u0435\u043a\u043b\u0443\u0431 (\u0423\u043a\u0440\u0430\u0438\u043d\u0430)
p3647
sg1418
Vhttp://tv.yandex.ua/187/channels/163
p3648
sg1420
I372
sbsI373
g1408
(g1409
g1410
Ntp3649
Rp3650
(dp3651
g1414
Vhttp://avatars.yandex.net/get-tv-shows/1333715993038M13981/orig
p3652
sg1416
V\u041c\u0443\u0437\u044b\u043a\u0430 \u041f\u0435\u0440\u0432\u043e\u0433\u043e (\u0423\u043a\u0440\u0430\u0438\u043d\u0430)
p3653
sg1418
Vhttp://tv.yandex.ua/187/channels/715
p3654
sg1420
I373
sbsI374
g1408
(g1409
g1410
Ntp3655
Rp3656
(dp3657
g1414
Vhttp://avatars.yandex.net/get-tv-shows/1333715659064M35098/orig
p3658
sg1416
V\u0422\u0435\u043b\u0435\u043f\u0443\u0442\u0435\u0448\u0435\u0441\u0442\u0432\u0438\u044f (\u0423\u043a\u0440\u0430\u0438\u043d\u0430)
p3659
sg1418
Vhttp://tv.yandex.ua/187/channels/794
p3660
sg1420
I374
sbsI375
g1408
(g1409
g1410
Ntp3661
Rp3662
(dp3663
g1414
Vhttp://avatars.yandex.net/get-tv-shows/1333717714948M87568/orig
p3664
sg1416
V\u0422\u0438\u043d \u0422\u0412 (\u0423\u043a\u0440\u0430\u0438\u043d\u0430)
p3665
sg1418
Vhttp://tv.yandex.ua/187/channels/716
p3666
sg1420
I375
sbsI376
g1408
(g1409
g1410
Ntp3667
Rp3668
(dp3669
g1414
Vhttp://avatars.yandex.net/get-tv-shows/1333715632130M79158/orig
p3670
sg1416
V\u0422\u041d\u0412 (\u0423\u043a\u0440\u0430\u0438\u043d\u0430)
p3671
sg1418
Vhttp://tv.yandex.ua/187/channels/180
p3672
sg1420
I376
sbsI377
g1408
(g1409
g1410
Ntp3673
Rp3674
(dp3675
g1414
Vhttp://avatars.yandex.net/get-tv-shows/1333713418795M13518/orig
p3676
sg1416
V\u0423\u0441\u0430\u0434\u044c\u0431\u0430 (\u0423\u043a\u0440\u0430\u0438\u043d\u0430)
p3677
sg1418
Vhttp://tv.yandex.ua/187/channels/779
p3678
sg1420
I377
sbsI378
g1408
(g1409
g1410
Ntp3679
Rp3680
(dp3681
g1414
Vhttp://avatars.yandex.net/get-tv-shows/1333713835801M19218/orig
p3682
sg1416
V\u0424\u0435\u043d\u0438\u043a\u0441+ \u041a\u0438\u043d\u043e (\u0423\u043a\u0440\u0430\u0438\u043d\u0430)
p3683
sg1418
Vhttp://tv.yandex.ua/187/channels/686
p3684
sg1420
I378
sbsI379
g1408
(g1409
g1410
Ntp3685
Rp3686
(dp3687
g1414
Vhttp://avatars.yandex.net/get-tv-shows/1333708104672M58814/orig
p3688
sg1416
V\u041e2\u0422\u0412 (\u0423\u043a\u0440\u0430\u0438\u043d\u0430)
p3689
sg1418
Vhttp://tv.yandex.ua/187/channels/777
p3690
sg1420
I379
sbsI380
g1408
(g1409
g1410
Ntp3691
Rp3692
(dp3693
g1414
Vhttp://avatars.yandex.net/get-tv-shows/1333712629582M95129/orig
p3694
sg1416
V\u042d\u043a\u0441\u043f\u0435\u0440\u0442-\u0422\u0412 (\u0423\u043a\u0440\u0430\u0438\u043d\u0430)
p3695
sg1418
Vhttp://tv.yandex.ua/187/channels/781
p3696
sg1420
I380
sbsI381
g1408
(g1409
g1410
Ntp3697
Rp3698
(dp3699
g1414
Vhttp://avatars.yandex.net/get-tv-shows/1333715595667M50557/orig
p3700
sg1416
VRTVI (\u0423\u043a\u0440\u0430\u0438\u043d\u0430)
p3701
sg1418
Vhttp://tv.yandex.ua/187/channels/76
p3702
sg1420
I381
sbsI382
g1408
(g1409
g1410
Ntp3703
Rp3704
(dp3705
g1414
Vhttp://avatars.yandex.net/get-tv-shows/1333709354444M76906/orig
p3706
sg1416
V24 \u0414\u041e\u041a (\u0423\u043a\u0440\u0430\u0438\u043d\u0430)
p3707
sg1418
Vhttp://tv.yandex.ua/187/channels/16
p3708
sg1420
I382
sbsI383
g1408
(g1409
g1410
Ntp3709
Rp3710
(dp3711
g1414
Vhttp://avatars.yandex.net/get-tv-shows/1333716896322M65134/orig
p3712
sg1416
VBBC (\u0423\u043a\u0440\u0430\u0438\u043d\u0430)
p3713
sg1418
Vhttp://tv.yandex.ua/187/channels/502
p3714
sg1420
I383
sbsI384
g1408
(g1409
g1410
Ntp3715
Rp3716
(dp3717
g1414
Vhttp://avatars.yandex.net/get-tv-shows/1333716106733M58501/orig
p3718
sg1416
VDa Vinci (\u0423\u043a\u0440\u0430\u0438\u043d\u0430)
p3719
sg1418
Vhttp://tv.yandex.ua/187/channels/410
p3720
sg1420
I384
sbsI385
g1408
(g1409
g1410
Ntp3721
Rp3722
(dp3723
g1414
Vhttp://avatars.yandex.net/get-tv-channel-logos/1349091347332M99473/orig
p3724
sg1416
VFOX (\u0423\u043a\u0440\u0430\u0438\u043d\u0430)
p3725
sg1418
Vhttp://tv.yandex.ua/187/channels/659
p3726
sg1420
I385
sbsI386
g1408
(g1409
g1410
Ntp3727
Rp3728
(dp3729
g1414
Vhttp://avatars.yandex.net/get-tv-shows/1333715973315M28208/orig
p3730
sg1416
VFox Life (\u0423\u043a\u0440\u0430\u0438\u043d\u0430)
p3731
sg1418
Vhttp://tv.yandex.ua/187/channels/615
p3732
sg1420
I386
sbsI387
g1408
(g1409
g1410
Ntp3733
Rp3734
(dp3735
g1414
Vhttp://avatars.yandex.net/get-tv-shows/1333715589076M84567/orig
p3736
sg1416
VGulli (\u0423\u043a\u0440\u0430\u0438\u043d\u0430)
p3737
sg1418
Vhttp://tv.yandex.ua/187/channels/810
p3738
sg1420
I387
sbsI388
g1408
(g1409
g1410
Ntp3739
Rp3740
(dp3741
g1414
Vhttp://avatars.yandex.net/get-tv-shows/1333707848439M17779/orig
p3742
sg1416
V\u0414\u043e\u043c\u0430\u0448\u043d\u0438\u0435 \u0436\u0438\u0432\u043e\u0442\u043d\u044b\u0435 (\u0423\u043a\u0440\u0430\u0438\u043d\u0430)
p3743
sg1418
Vhttp://tv.yandex.ua/187/channels/520
p3744
sg1420
I388
sbsI389
g1408
(g1409
g1410
Ntp3745
Rp3746
(dp3747
g1414
Vhttp://avatars.yandex.net/get-tv-channel-logos/1348587696219M11284/orig
p3748
sg1416
V\u0415\u0432\u0440\u043e\u043a\u0438\u043d\u043e (\u0423\u043a\u0440\u0430\u0438\u043d\u0430)
p3749
sg1418
Vhttp://tv.yandex.ua/187/channels/352
p3750
sg1420
I389
sbsI390
g1408
(g1409
g1410
Ntp3751
Rp3752
(dp3753
g1414
Vhttp://avatars.yandex.net/get-tv-shows/1333715354479M98366/orig
p3754
sg1416
VInvestigation Discovery (\u0423\u043a\u0440\u0430\u0438\u043d\u0430)
p3755
sg1418
Vhttp://tv.yandex.ua/187/channels/19
p3756
sg1420
I390
sbsI391
g1408
(g1409
g1410
Ntp3757
Rp3758
(dp3759
g1414
Vhttp://avatars.yandex.net/get-tv-shows/1333712806377M47354/orig
p3760
sg1416
V\u0421\u0442\u0440\u0430\u043d\u0430 (\u0423\u043a\u0440\u0430\u0438\u043d\u0430)
p3761
sg1418
Vhttp://tv.yandex.ua/187/channels/284
p3762
sg1420
I391
sbsI392
g1408
(g1409
g1410
Ntp3763
Rp3764
(dp3765
g1414
Vhttp://avatars.yandex.net/get-tv-shows/1333715462882M95375/orig
p3766
sg1416
VJimJam (\u0423\u043a\u0440\u0430\u0438\u043d\u0430)
p3767
sg1418
Vhttp://tv.yandex.ua/187/channels/494
p3768
sg1420
I392
sbsI393
g1408
(g1409
g1410
Ntp3769
Rp3770
(dp3771
g1414
Vhttp://avatars.yandex.net/get-tv-shows/1333716823193M39207/orig
p3772
sg1416
VKidsCo (\u0423\u043a\u0440\u0430\u0438\u043d\u0430)
p3773
sg1418
Vhttp://tv.yandex.ua/187/channels/598
p3774
sg1420
I393
sbsI394
g1408
(g1409
g1410
Ntp3775
Rp3776
(dp3777
g1414
Vhttp://avatars.yandex.net/get-tv-shows/1333708147128M24922/orig
p3778
sg1416
V\u041a\u0438\u043d\u043e\u043c\u0430\u043d\u0438\u044f (\u0423\u043a\u0440\u0430\u0438\u043d\u0430)
p3779
sg1418
Vhttp://tv.yandex.ua/187/channels/646
p3780
sg1420
I394
sbsI395
g1408
(g1409
g1410
Ntp3781
Rp3782
(dp3783
g1414
Vhttp://avatars.yandex.net/get-tv-shows/1333715618467M47634/orig
p3784
sg1416
V\u041a\u043e\u043c\u0435\u0434\u0438 \u0422\u0412 (\u0423\u043a\u0440\u0430\u0438\u043d\u0430)
p3785
sg1418
Vhttp://tv.yandex.ua/187/channels/51
p3786
sg1420
I395
sbsI396
g1408
(g1409
g1410
Ntp3787
Rp3788
(dp3789
g1414
Vhttp://avatars.yandex.net/get-tv-shows/1333716724098M99858/orig
p3790
sg1416
V\u041a\u0438\u043d\u043e\u043f\u043e\u043a\u0430\u0437 HD-1 (\u0423\u043a\u0440\u0430\u0438\u043d\u0430)
p3791
sg1418
Vhttp://tv.yandex.ua/187/channels/138
p3792
sg1420
I396
sbsI397
g1408
(g1409
g1410
Ntp3793
Rp3794
(dp3795
g1414
Vhttp://avatars.yandex.net/get-tv-shows/1333715600209M27625/orig
p3796
sg1416
V\u041a\u0438\u043d\u043e\u043f\u043e\u043a\u0430\u0437 HD-2 (\u0423\u043a\u0440\u0430\u0438\u043d\u0430)
p3797
sg1418
Vhttp://tv.yandex.ua/187/channels/741
p3798
sg1420
I397
sbsI398
g1408
(g1409
g1410
Ntp3799
Rp3800
(dp3801
g1414
Vhttp://avatars.yandex.net/get-tv-shows/1333713174626M97345/orig
p3802
sg1416
VMan TV (\u0423\u043a\u0440\u0430\u0438\u043d\u0430)
p3803
sg1418
Vhttp://tv.yandex.ua/187/channels/15
p3804
sg1420
I398
sbsI399
g1408
(g1409
g1410
Ntp3805
Rp3806
(dp3807
g1414
Vhttp://avatars.yandex.net/get-tv-shows/1333713698572M2584/orig
p3808
sg1416
VMezzo Live HD (\u0423\u043a\u0440\u0430\u0438\u043d\u0430)
p3809
sg1418
Vhttp://tv.yandex.ua/187/channels/801
p3810
sg1420
I399
sbsI400
g1408
(g1409
g1410
Ntp3811
Rp3812
(dp3813
g1414
Vhttp://avatars.yandex.net/get-tv-shows/1333707984831M90146/orig
p3814
sg1416
V\u041c\u0438\u0440 \u0441\u0435\u0440\u0438\u0430\u043b\u0430 (\u0423\u043a\u0440\u0430\u0438\u043d\u0430)
p3815
sg1418
Vhttp://tv.yandex.ua/187/channels/145
p3816
sg1420
I400
sbsI401
g1408
(g1409
g1410
Ntp3817
Rp3818
(dp3819
g1414
Vhttp://avatars.yandex.net/get-tv-shows/1333715305189M35114/orig
p3820
sg1416
V\u041c\u0443\u0436\u0441\u043a\u043e\u0439 (\u0423\u043a\u0440\u0430\u0438\u043d\u0430)
p3821
sg1418
Vhttp://tv.yandex.ua/187/channels/82
p3822
sg1420
I401
sbsI402
g1408
(g1409
g1410
Ntp3823
Rp3824
(dp3825
g1414
Vhttp://avatars.yandex.net/get-tv-shows/1333713644403M21507/orig
p3826
sg1416
VViasat Nature CEE (\u0423\u043a\u0440\u0430\u0438\u043d\u0430)
p3827
sg1418
Vhttp://tv.yandex.ua/187/channels/765
p3828
sg1420
I402
sbsI403
g1408
(g1409
g1410
Ntp3829
Rp3830
(dp3831
g1414
Vhttp://avatars.yandex.net/get-tv-shows/1333713433570M85481/orig
p3832
sg1416
VNat Geo WILD (\u0423\u043a\u0440\u0430\u0438\u043d\u0430)
p3833
sg1418
Vhttp://tv.yandex.ua/187/channels/223
p3834
sg1420
I403
sbsI404
g1408
(g1409
g1410
Ntp3835
Rp3836
(dp3837
g1414
Vhttp://avatars.yandex.net/get-tv-shows/1333715451260M61766/orig
p3838
sg1416
VC Music TV (\u0423\u043a\u0440\u0430\u0438\u043d\u0430)
p3839
sg1418
Vhttp://tv.yandex.ua/187/channels/319
p3840
sg1420
I404
sbsI405
g1408
(g1409
g1410
Ntp3841
Rp3842
(dp3843
g1414
Vhttp://avatars.yandex.net/get-tv-shows/1333707836435M19145/orig
p3844
sg1416
V\u041c\u0443\u043b\u044c\u0442\u0438\u043c\u0430\u043d\u0438\u044f (\u0423\u043a\u0440\u0430\u0438\u043d\u0430)
p3845
sg1418
Vhttp://tv.yandex.ua/187/channels/31
p3846
sg1420
I405
sbsI406
g1408
(g1409
g1410
Ntp3847
Rp3848
(dp3849
g1414
Vhttp://avatars.yandex.net/get-tv-shows/1333713751068M18827/orig
p3850
sg1416
VCNBC (\u0423\u043a\u0440\u0430\u0438\u043d\u0430)
p3851
sg1418
Vhttp://tv.yandex.ua/187/channels/831
p3852
sg1420
I406
sbsI407
g1408
(g1409
g1410
Ntp3853
Rp3854
(dp3855
g1414
Vhttp://avatars.yandex.net/get-tv-shows/1333716057211M42929/orig
p3856
sg1416
V\u041a\u0418\u041d\u041e \u041f\u041b\u042e\u0421 (\u0423\u043a\u0440\u0430\u0438\u043d\u0430)
p3857
sg1418
Vhttp://tv.yandex.ua/187/channels/644
p3858
sg1420
I407
sbsI408
g1408
(g1409
g1410
Ntp3859
Rp3860
(dp3861
g1414
Vhttp://avatars.yandex.net/get-tv-shows/1333713846214M92620/orig
p3862
sg1416
V\u041f\u0430\u0440\u043a \u0440\u0430\u0437\u0432\u043b\u0435\u0447\u0435\u043d\u0438\u0439 (\u0423\u043a\u0440\u0430\u0438\u043d\u0430)
p3863
sg1418
Vhttp://tv.yandex.ua/187/channels/37
p3864
sg1420
I408
sbsI409
g1408
(g1409
g1410
Ntp3865
Rp3866
(dp3867
g1414
Vhttp://avatars.yandex.net/get-tv-shows/1333715232241M630/orig
p3868
sg1416
V\u041f\u0441\u0438\u0445\u043e\u043b\u043e\u0433\u0438\u044f 21 (\u0423\u043a\u0440\u0430\u0438\u043d\u0430)
p3869
sg1418
Vhttp://tv.yandex.ua/187/channels/434
p3870
sg1420
I409
sbsI410
g1408
(g1409
g1410
Ntp3871
Rp3872
(dp3873
g1414
Vhttp://avatars.yandex.net/get-tv-shows/1333712701189M79995/orig
p3874
sg1416
VEnglish Club TV (\u0423\u043a\u0440\u0430\u0438\u043d\u0430)
p3875
sg1418
Vhttp://tv.yandex.ua/187/channels/757
p3876
sg1420
I410
sbsI411
g1408
(g1409
g1410
Ntp3877
Rp3878
(dp3879
g1414
Vhttp://avatars.yandex.net/get-tv-shows/1333713945719M63469/orig
p3880
sg1416
V\u0414\u043e\u0436\u0434\u044c (\u0423\u043a\u0440\u0430\u0438\u043d\u0430)
p3881
sg1418
Vhttp://tv.yandex.ua/187/channels/384
p3882
sg1420
I411
sbsI412
g1408
(g1409
g1410
Ntp3883
Rp3884
(dp3885
g1414
Vhttp://avatars.yandex.net/get-tv-shows/1333713816884M48668/orig
p3886
sg1416
VRussian Travel Guide (\u0423\u043a\u0440\u0430\u0438\u043d\u0430)
p3887
sg1418
Vhttp://tv.yandex.ua/187/channels/648
p3888
sg1420
I412
sbsI413
g1408
(g1409
g1410
Ntp3889
Rp3890
(dp3891
g1414
Vhttp://avatars.yandex.net/get-tv-shows/1333715412490M65597/orig
p3892
sg1416
VRussia Today (\u0423\u043a\u0440\u0430\u0438\u043d\u0430)
p3893
sg1418
Vhttp://tv.yandex.ua/187/channels/313
p3894
sg1420
I413
sbsI414
g1408
(g1409
g1410
Ntp3895
Rp3896
(dp3897
g1414
Vhttp://avatars.yandex.net/get-tv-shows/1333707837348M40226/orig
p3898
sg1416
VFrance 24 (\u0423\u043a\u0440\u0430\u0438\u043d\u0430)
p3899
sg1418
Vhttp://tv.yandex.ua/187/channels/461
p3900
sg1420
I414
sbsI415
g1408
(g1409
g1410
Ntp3901
Rp3902
(dp3903
g1414
Vhttp://avatars.yandex.net/get-tv-shows/1333713259234M5321/orig
p3904
sg1416
V\u041a\u0430\u0440\u0443\u0441\u0435\u043b\u044c INT
p3905
sg1418
Vhttp://tv.yandex.ua/187/channels/465
p3906
sg1420
I415
sbsI416
g1408
(g1409
g1410
Ntp3907
Rp3908
(dp3909
g1414
Vhttp://avatars.yandex.net/get-tv-shows/1333712713031M6232/orig
p3910
sg1416
VStyle TV (\u0423\u043a\u0440\u0430\u0438\u043d\u0430)
p3911
sg1418
Vhttp://tv.yandex.ua/187/channels/119
p3912
sg1420
I416
sbsI417
g1408
(g1409
g1410
Ntp3913
Rp3914
(dp3915
g1414
Vhttp://avatars.yandex.net/get-tv-shows/1333713389359M36074/orig
p3916
sg1416
VHD \u041c\u0435\u0434\u0438\u0430 (\u0423\u043a\u0440\u0430\u0438\u043d\u0430)
p3917
sg1418
Vhttp://tv.yandex.ua/187/channels/631
p3918
sg1420
I417
sbsI418
g1408
(g1409
g1410
Ntp3919
Rp3920
(dp3921
g1414
Vhttp://avatars.yandex.net/get-tv-shows/1333715673198M2663/orig
p3922
sg1416
V\u041f\u0435\u0440\u0432\u044b\u0439 \u043c\u0435\u0442\u0435\u043e (\u0423\u043a\u0440\u0430\u0438\u043d\u0430)
p3923
sg1418
Vhttp://tv.yandex.ua/187/channels/59
p3924
sg1420
I418
sbsI419
g1408
(g1409
g1410
Ntp3925
Rp3926
(dp3927
g1414
Vhttp://avatars.yandex.net/get-tv-shows/1333713176648M89316/orig
p3928
sg1416
VTV1000 Action (\u0423\u043a\u0440\u0430\u0438\u043d\u0430)
p3929
sg1418
Vhttp://tv.yandex.ua/187/channels/125
p3930
sg1420
I419
sbsI420
g1408
(g1409
g1410
Ntp3931
Rp3932
(dp3933
g1414
Vhttp://avatars.yandex.net/get-tv-shows/1333713783253M34729/orig
p3934
sg1416
V\u0427\u041f.Info (\u0423\u043a\u0440\u0430\u0438\u043d\u0430)
p3935
sg1418
Vhttp://tv.yandex.ua/187/channels/315
p3936
sg1420
I420
sbsI421
g1408
(g1409
g1410
Ntp3937
Rp3938
(dp3939
g1414
Vhttp://avatars.yandex.net/get-tv-shows/1333713457072M47395/orig
p3940
sg1416
V\u0423\u043b\u044b\u0431\u043a\u0430 \u0420\u0435\u0431\u0435\u043d\u043a\u0430 (\u0423\u043a\u0440\u0430\u0438\u043d\u0430)
p3941
sg1418
Vhttp://tv.yandex.ua/187/channels/789
p3942
sg1420
I421
sbsI422
g1408
(g1409
g1410
Ntp3943
Rp3944
(dp3945
g1414
Vhttp://avatars.yandex.net/get-tv-shows/1333715744438M85797/orig
p3946
sg1416
V\u0423\u0441\u043f\u0435\u0445 (\u0423\u043a\u0440\u0430\u0438\u043d\u0430)
p3947
sg1418
Vhttp://tv.yandex.ua/187/channels/547
p3948
sg1420
I422
sbsI423
g1408
(g1409
g1410
Ntp3949
Rp3950
(dp3951
g1414
Vhttp://avatars.yandex.net/get-tv-shows/1333712655464M52829/orig
p3952
sg1416
VVH1 Classic (\u0423\u043a\u0440\u0430\u0438\u043d\u0430)
p3953
sg1418
Vhttp://tv.yandex.ua/187/channels/156
p3954
sg1420
I423
sbsI424
g1408
(g1409
g1410
Ntp3955
Rp3956
(dp3957
g1414
Vhttp://avatars.yandex.net/get-tv-shows/1333712775005M93791/orig
p3958
sg1416
VViasat Sport (\u0423\u043a\u0440\u0430\u0438\u043d\u0430)
p3959
sg1418
Vhttp://tv.yandex.ua/187/channels/455
p3960
sg1420
I424
sbsI425
g1408
(g1409
g1410
Ntp3961
Rp3962
(dp3963
g1414
Vhttp://avatars.yandex.net/get-tv-shows/1333713681468M47452/orig
p3964
sg1416
V\u0412\u043e\u043f\u0440\u043e\u0441\u044b \u0438 \u043e\u0442\u0432\u0435\u0442\u044b (\u0423\u043a\u0440\u0430\u0438\u043d\u0430)
p3965
sg1418
Vhttp://tv.yandex.ua/187/channels/333
p3966
sg1420
I425
sbsI426
g1408
(g1409
g1410
Ntp3967
Rp3968
(dp3969
g1414
Vhttp://avatars.yandex.net/get-tv-shows/1333716913379M87044/orig
p3970
sg1416
V\u0412\u0441\u0435\u0433\u0434\u0430 \u0441 \u0442\u043e\u0431\u043e\u0439 (\u0423\u043a\u0440\u0430\u0438\u043d\u0430)
p3971
sg1418
Vhttp://tv.yandex.ua/187/channels/604
p3972
sg1420
I426
sbsI427
g1408
(g1409
g1410
Ntp3973
Rp3974
(dp3975
g1414
Vhttp://avatars.yandex.net/get-tv-shows/1333708247585M68464/orig
p3976
sg1416
V\u041e\u0440\u0443\u0436\u0438\u0435 (\u0423\u043a\u0440\u0430\u0438\u043d\u0430)
p3977
sg1418
Vhttp://tv.yandex.ua/187/channels/376
p3978
sg1420
I427
sbsI428
g1408
(g1409
g1410
Ntp3979
Rp3980
(dp3981
g1414
Vhttp://avatars.yandex.net/get-tv-shows/1333715997298M69767/orig
p3982
sg1416
V\u041a\u0442\u043e \u0435\u0441\u0442\u044c \u043a\u0442\u043e (\u0423\u043a\u0440\u0430\u0438\u043d\u0430)
p3983
sg1418
Vhttp://tv.yandex.ua/187/channels/769
p3984
sg1420
I428
sbsI429
g1408
(g1409
g1410
Ntp3985
Rp3986
(dp3987
g1414
Vhttp://avatars.yandex.net/get-tv-shows/1333716819878M97368/orig
p3988
sg1416
V\u0417\u0430\u0433\u043e\u0440\u043e\u0434\u043d\u044b\u0439 (\u0423\u043a\u0440\u0430\u0438\u043d\u0430)
p3989
sg1418
Vhttp://tv.yandex.ua/187/channels/705
p3990
sg1420
I429
sbsI430
g1408
(g1409
g1410
Ntp3991
Rp3992
(dp3993
g1414
Vhttp://avatars.yandex.net/get-tv-shows/1333712702253M97202/orig
p3994
sg1416
V\u0417\u0430\u0433\u043e\u0440\u043e\u0434\u043d\u0430\u044f \u0436\u0438\u0437\u043d\u044c (\u0423\u043a\u0440\u0430\u0438\u043d\u0430)
p3995
sg1418
Vhttp://tv.yandex.ua/187/channels/21
p3996
sg1420
I430
sbsI431
g1408
(g1409
g1410
Ntp3997
Rp3998
(dp3999
g1414
Vhttp://avatars.yandex.net/get-tv-shows/1333713481818M96462/orig
p4000
sg1416
VLuxe.TV (\u0423\u043a\u0440\u0430\u0438\u043d\u0430)
p4001
sg1418
Vhttp://tv.yandex.ua/187/channels/442
p4002
sg1420
I431
sbsI432
g1408
(g1409
g1410
Ntp4003
Rp4004
(dp4005
g1414
Vhttp://avatars.yandex.net/get-tv-shows/1333715814729M63454/orig
p4006
sg1416
VZee-TV (\u0423\u043a\u0440\u0430\u0438\u043d\u0430)
p4007
sg1418
Vhttp://tv.yandex.ua/187/channels/626
p4008
sg1420
I432
sbsI433
g1408
(g1409
g1410
Ntp4009
Rp4010
(dp4011
g1414
Vhttp://avatars.yandex.net/get-tv-shows/1333716033811M15593/orig
p4012
sg1416
V\u0422\u043e\u043d\u0443\u0441-\u0422\u0412 (\u0423\u043a\u0440\u0430\u0438\u043d\u0430)
p4013
sg1418
Vhttp://tv.yandex.ua/187/channels/637
p4014
sg1420
I433
sbsI434
g1408
(g1409
g1410
Ntp4015
Rp4016
(dp4017
g1414
Vhttp://avatars.yandex.net/get-tv-shows/1333713729069M489/orig
p4018
sg1416
V\u0420\u0422\u0412 - \u041b\u044e\u0431\u0438\u043c\u043e\u0435 \u043a\u0438\u043d\u043e (\u0423\u043a\u0440\u0430\u0438\u043d\u0430)
p4019
sg1418
Vhttp://tv.yandex.ua/187/channels/477
p4020
sg1420
I434
sbsI435
g1408
(g1409
g1410
Ntp4021
Rp4022
(dp4023
g1414
Vhttp://avatars.yandex.net/get-tv-shows/1333716969502M68148/orig
p4024
sg1416
VMCM POP (\u0423\u043a\u0440\u0430\u0438\u043d\u0430)
p4025
sg1418
Vhttp://tv.yandex.ua/187/channels/804
p4026
sg1420
I435
sbsI436
g1408
(g1409
g1410
Ntp4027
Rp4028
(dp4029
g1414
Vhttp://avatars.yandex.net/get-tv-shows/1333715741881M37018/orig
p4030
sg1416
V\u0420\u0422\u0412 - \u041d\u0430\u0448\u0435 \u043a\u0438\u043d\u043e (\u0423\u043a\u0440\u0430\u0438\u043d\u0430)
p4031
sg1418
Vhttp://tv.yandex.ua/187/channels/176
p4032
sg1420
I436
sbsI437
g1408
(g1409
g1410
Ntp4033
Rp4034
(dp4035
g1414
Vhttp://avatars.yandex.net/get-tv-shows/1333713682028M49283/orig
p4036
sg1416
VMCM TOP (\u0423\u043a\u0440\u0430\u0438\u043d\u0430)
p4037
sg1418
Vhttp://tv.yandex.ua/187/channels/533
p4038
sg1420
I437
sbsI438
g1408
(g1409
g1410
Ntp4039
Rp4040
(dp4041
g1414
Vhttp://avatars.yandex.net/get-tv-shows/1333712756259M40685/orig
p4042
sg1416
V\u0421\u043e\u0432\u0435\u0440\u0448\u0435\u043d\u043d\u043e \u0441\u0435\u043a\u0440\u0435\u0442\u043d\u043e (\u0423\u043a\u0440\u0430\u0438\u043d\u0430)
p4043
sg1418
Vhttp://tv.yandex.ua/187/channels/275
p4044
sg1420
I438
sbsI439
g1408
(g1409
g1410
Ntp4045
Rp4046
(dp4047
g1414
Vhttp://avatars.yandex.net/get-tv-shows/1333716791539M48053/orig
p4048
sg1416
VTDK (\u0423\u043a\u0440\u0430\u0438\u043d\u0430)
p4049
sg1418
Vhttp://tv.yandex.ua/187/channels/776
p4050
sg1420
I439
sbsI440
g1408
(g1409
g1410
Ntp4051
Rp4052
(dp4053
g1414
Vhttp://avatars.yandex.net/get-tv-shows/1333715457146M21776/orig
p4054
sg1416
VMusicBox RU (\u0423\u043a\u0440\u0430\u0438\u043d\u0430)
p4055
sg1418
Vhttp://tv.yandex.ua/187/channels/25
p4056
sg1420
I440
sbsI441
g1408
(g1409
g1410
Ntp4057
Rp4058
(dp4059
g1414
Vhttp://avatars.yandex.net/get-tv-shows/1333708713306M38200/orig
p4060
sg1416
VTiJi (\u0423\u043a\u0440\u0430\u0438\u043d\u0430)
p4061
sg1418
Vhttp://tv.yandex.ua/187/channels/555
p4062
sg1420
I441
sbsI442
g1408
(g1409
g1410
Ntp4063
Rp4064
(dp4065
g1414
Vhttp://avatars.yandex.net/get-tv-shows/1333709246196M1207/orig
p4066
sg1416
VBaby TV (\u0423\u043a\u0440\u0430\u0438\u043d\u0430)
p4067
sg1418
Vhttp://tv.yandex.ua/187/channels/308
p4068
sg1420
I442
sbsI443
g1408
(g1409
g1410
Ntp4069
Rp4070
(dp4071
g1414
Vhttp://avatars.yandex.net/get-tv-shows/1333713807307M19303/orig
p4072
sg1416
VMusicBox TV (\u0423\u043a\u0440\u0430\u0438\u043d\u0430)
p4073
sg1418
Vhttp://tv.yandex.ua/187/channels/642
p4074
sg1420
I443
sbsI444
g1408
(g1409
g1410
Ntp4075
Rp4076
(dp4077
g1414
Vhttp://avatars.yandex.net/get-tv-shows/1333708797928M94347/orig
p4078
sg1416
VMTV Dance (\u0423\u043a\u0440\u0430\u0438\u043d\u0430)
p4079
sg1418
Vhttp://tv.yandex.ua/187/channels/332
p4080
sg1420
I444
sbsI445
g1408
(g1409
g1410
Ntp4081
Rp4082
(dp4083
g1414
Vhttp://avatars.yandex.net/get-tv-shows/1333708221386M8318/orig
p4084
sg1416
VmyZen.tv (\u0423\u043a\u0440\u0430\u0438\u043d\u0430)
p4085
sg1418
Vhttp://tv.yandex.ua/187/channels/141
p4086
sg1420
I445
sbsI446
g1408
(g1409
g1410
Ntp4087
Rp4088
(dp4089
g1414
Vhttp://avatars.yandex.net/get-tv-shows/1333716825980M37994/orig
p4090
sg1416
VMTV Hits (\u0423\u043a\u0440\u0430\u0438\u043d\u0430)
p4091
sg1418
Vhttp://tv.yandex.ua/187/channels/849
p4092
sg1420
I446
sbsI447
g1408
(g1409
g1410
Ntp4093
Rp4094
(dp4095
g1414
Vhttp://avatars.yandex.net/get-tv-shows/1333713043514M62310/orig
p4096
sg1416
VMTV Rocks (\u0423\u043a\u0440\u0430\u0438\u043d\u0430)
p4097
sg1418
Vhttp://tv.yandex.ua/187/channels/388
p4098
sg1420
I447
sbsI448
g1408
(g1409
g1410
Ntp4099
Rp4100
(dp4101
g1414
Vhttp://avatars.yandex.net/get-tv-shows/1333708746764M31248/orig
p4102
sg1416
V\u041d\u0435\u0434\u0432\u0438\u0436\u0438\u043c\u043e\u0441\u0442\u044c (\u0423\u043a\u0440\u0430\u0438\u043d\u0430)
p4103
sg1418
Vhttp://tv.yandex.ua/187/channels/552
p4104
sg1420
I448
sbsI449
g1408
(g1409
g1410
Ntp4105
Rp4106
(dp4107
g1414
Vhttp://avatars.yandex.net/get-tv-channel-logos/1348227921654M54810/orig
p4108
sg1416
V\u041c\u0423\u0417 \u0422\u0412 (\u0423\u043a\u0440\u0430\u0438\u043d\u0430)
p4109
sg1418
Vhttp://tv.yandex.ua/187/channels/897
p4110
sg1420
I449
sbsI450
g1408
(g1409
g1410
Ntp4111
Rp4112
(dp4113
g1414
Vhttp://avatars.yandex.net/get-tv-shows/1333713976352M79712/orig
p4114
sg1416
VNewsOne (\u0423\u043a\u0440\u0430\u0438\u043d\u0430)
p4115
sg1418
Vhttp://tv.yandex.ua/187/channels/247
p4116
sg1420
I450
sbsI451
g1408
(g1409
g1410
Ntp4117
Rp4118
(dp4119
g1414
Vhttp://avatars.yandex.net/get-tv-shows/1333712715401M79935/orig
p4120
sg1416
VTLC (\u0423\u043a\u0440\u0430\u0438\u043d\u0430)
p4121
sg1418
Vhttp://tv.yandex.ua/187/channels/425
p4122
sg1420
I451
sbsI452
g1408
(g1409
g1410
Ntp4123
Rp4124
(dp4125
g1414
Vhttp://avatars.yandex.net/get-tv-shows/1333713582281M8534/orig
p4126
sg1416
V\u041f\u0435\u0440\u0432\u044b\u0439 \u043e\u0431\u0440\u0430\u0437\u043e\u0432\u0430\u0442\u0435\u043b\u044c\u043d\u044b\u0439 (\u0423\u043a\u0440\u0430\u0438\u043d\u0430)
p4127
sg1418
Vhttp://tv.yandex.ua/187/channels/774
p4128
sg1420
I452
sbsI453
g1408
(g1409
g1410
Ntp4129
Rp4130
(dp4131
g1414
Vhttp://avatars.yandex.net/get-tv-shows/1333715189104M67729/orig
p4132
sg1416
VRu.TV (\u0423\u043a\u0440\u0430\u0438\u043d\u0430)
p4133
sg1418
Vhttp://tv.yandex.ua/187/channels/258
p4134
sg1420
I453
sbsI454
g1408
(g1409
g1410
Ntp4135
Rp4136
(dp4137
g1414
Vhttp://avatars.yandex.net/get-tv-channel-logos/1357917709899M67755/orig
p4138
sg1416
VA-ONE (\u0423\u043a\u0440\u0430\u0438\u043d\u0430)
p4139
sg1418
Vhttp://tv.yandex.ua/187/channels/680
p4140
sg1420
I454
sbsI455
g1408
(g1409
g1410
Ntp4141
Rp4142
(dp4143
g1414
Vhttp://avatars.yandex.net/get-tv-shows/1333715841246M94104/orig
p4144
sg1416
V\u041e\u0445\u043e\u0442\u043d\u0438\u043a \u0438 \u0420\u044b\u0431\u043e\u043b\u043e\u0432 (\u0423\u043a\u0440\u0430\u0438\u043d\u0430)
p4145
sg1418
Vhttp://tv.yandex.ua/187/channels/132
p4146
sg1420
I455
sbsI456
g1408
(g1409
g1410
Ntp4147
Rp4148
(dp4149
g1414
Vhttp://avatars.yandex.net/get-tv-shows/1333708247583M29832/orig
p4150
sg1416
V\u041d\u0430\u0443\u043a\u0430 2.0 (\u0423\u043a\u0440\u0430\u0438\u043d\u0430)
p4151
sg1418
Vhttp://tv.yandex.ua/187/channels/723
p4152
sg1420
I456
sbsI457
g1408
(g1409
g1410
Ntp4153
Rp4154
(dp4155
g1414
Vhttp://avatars.yandex.net/get-tv-shows/1333716732109M13710/orig
p4156
sg1416
V\u041e\u0442\u043a\u0440\u044b\u0442\u044b\u0439 \u041c\u0438\u0440 (\u0423\u043a\u0440\u0430\u0438\u043d\u0430)
p4157
sg1418
Vhttp://tv.yandex.ua/187/channels/39
p4158
sg1420
I457
sbsI458
g1408
(g1409
g1410
Ntp4159
Rp4160
(dp4161
g1414
Vhttp://avatars.yandex.net/get-tv-shows/1333715766749M89647/orig
p4162
sg1416
VZoo\u043f\u0430\u0440\u043a (\u0423\u043a\u0440\u0430\u0438\u043d\u0430)
p4163
sg1418
Vhttp://tv.yandex.ua/187/channels/367
p4164
sg1420
I458
sbsI459
g1408
(g1409
g1410
Ntp4165
Rp4166
(dp4167
g1414
Vhttp://avatars.yandex.net/get-tv-shows/1333712862430M29121/orig
p4168
sg1416
V\u0414\u0440\u0430\u0439\u0432 (\u0423\u043a\u0440\u0430\u0438\u043d\u0430)
p4169
sg1418
Vhttp://tv.yandex.ua/187/channels/505
p4170
sg1420
I459
sbsI460
g1408
(g1409
g1410
Ntp4171
Rp4172
(dp4173
g1414
Vhttp://avatars.yandex.net/get-tv-shows/1333715678054M1312/orig
p4174
sg1416
V\u0417\u0434\u043e\u0440\u043e\u0432\u043e\u0435 \u0422\u0412 (\u0423\u043a\u0440\u0430\u0438\u043d\u0430)
p4175
sg1418
Vhttp://tv.yandex.ua/187/channels/595
p4176
sg1420
I460
sbsI461
g1408
(g1409
g1410
Ntp4177
Rp4178
(dp4179
g1414
Vhttp://avatars.yandex.net/get-tv-shows/1333708154865M86208/orig
p4180
sg1416
V\u0420\u0435\u0442\u0440\u043e \u0422\u0412 (\u0423\u043a\u0440\u0430\u0438\u043d\u0430)
p4181
sg1418
Vhttp://tv.yandex.ua/187/channels/6
p4182
sg1420
I461
sbsI462
g1408
(g1409
g1410
Ntp4183
Rp4184
(dp4185
g1414
Vhttp://avatars.yandex.net/get-tv-shows/1333716745405M72465/orig
p4186
sg1416
VRusong TV (\u0423\u043a\u0440\u0430\u0438\u043d\u0430)
p4187
sg1418
Vhttp://tv.yandex.ua/187/channels/591
p4188
sg1420
I462
sbsI463
g1408
(g1409
g1410
Ntp4189
Rp4190
(dp4191
g1414
Vhttp://avatars.yandex.net/get-tv-shows/1333713984447M70308/orig
p4192
sg1416
VEurosport (\u0423\u043a\u0440\u0430\u0438\u043d\u0430)
p4193
sg1418
Vhttp://tv.yandex.ua/187/channels/737
p4194
sg1420
I463
sbsI464
g1408
(g1409
g1410
Ntp4195
Rp4196
(dp4197
g1414
Vhttp://avatars.yandex.net/get-tv-shows/1333716803563M50186/orig
p4198
sg1416
V\u041a\u0425\u041b (\u0423\u043a\u0440\u0430\u0438\u043d\u0430)
p4199
sg1418
Vhttp://tv.yandex.ua/187/channels/481
p4200
sg1420
I464
sbsI465
g1408
(g1409
g1410
Ntp4201
Rp4202
(dp4203
g1414
Vhttp://avatars.yandex.net/get-tv-channel-logos/1356596026566M65418/orig
p4204
sg1416
V\u041c\u0418\u0420 (\u0423\u043a\u0440\u0430\u0438\u043d\u0430)
p4205
sg1418
Vhttp://tv.yandex.ua/187/channels/726
p4206
sg1420
I465
sbsI466
g1408
(g1409
g1410
Ntp4207
Rp4208
(dp4209
g1414
Vhttp://avatars.yandex.net/get-tv-shows/1333713160319M54984/orig
p4210
sg1416
V\u0416\u0418\u0412\u0418! (\u0423\u043a\u0440\u0430\u0438\u043d\u0430)
p4211
sg1418
Vhttp://tv.yandex.ua/187/channels/113
p4212
sg1420
I466
sbsI467
g1408
(g1409
g1410
Ntp4213
Rp4214
(dp4215
g1414
Vhttp://avatars.yandex.net/get-tv-shows/1333715748744M67529/orig
p4216
sg1416
VDIVA Universal (\u0423\u043a\u0440\u0430\u0438\u043d\u0430)
p4217
sg1418
Vhttp://tv.yandex.ua/187/channels/713
p4218
sg1420
I467
sbsI468
g1408
(g1409
g1410
Ntp4219
Rp4220
(dp4221
g1414
Vhttp://avatars.yandex.net/get-tv-shows/1333716977495M19933/orig
p4222
sg1416
VDiscovery HD Showcase (\u0423\u043a\u0440\u0430\u0438\u043d\u0430)
p4223
sg1418
Vhttp://tv.yandex.ua/187/channels/111
p4224
sg1420
I468
sbsI469
g1408
(g1409
g1410
Ntp4225
Rp4226
(dp4227
g1414
Vhttp://avatars.yandex.net/get-tv-shows/1333715852220M49281/orig
p4228
sg1416
V\u0422\u0443\u0440\u0418\u043d\u0444\u043e (\u0423\u043a\u0440\u0430\u0438\u043d\u0430)
p4229
sg1418
Vhttp://tv.yandex.ua/187/channels/731
p4230
sg1420
I469
sbsI470
g1408
(g1409
g1410
Ntp4231
Rp4232
(dp4233
g1414
Vhttp://avatars.yandex.net/get-tv-shows/1333708892947M65043/orig
p4234
sg1416
V\u0428\u0430\u043d\u0441\u043e\u043d-TB (\u0423\u043a\u0440\u0430\u0438\u043d\u0430)
p4235
sg1418
Vhttp://tv.yandex.ua/187/channels/662
p4236
sg1420
I470
sbsI471
g1408
(g1409
g1410
Ntp4237
Rp4238
(dp4239
g1414
Vhttp://avatars.yandex.net/get-tv-shows/1333713983645M99328/orig
p4240
sg1416
V\u0417\u043d\u0430\u043d\u0438\u0435 (\u0423\u043a\u0440\u0430\u0438\u043d\u0430)
p4241
sg1418
Vhttp://tv.yandex.ua/187/channels/201
p4242
sg1420
I471
sbsI472
g1408
(g1409
g1410
Ntp4243
Rp4244
(dp4245
g1414
Vhttp://avatars.yandex.net/get-tv-shows/1333715603725M3088/orig
p4246
sg1416
VEuropa Plus TV (\u0423\u043a\u0440\u0430\u0438\u043d\u0430)
p4247
sg1418
Vhttp://tv.yandex.ua/187/channels/681
p4248
sg1420
I472
sbsI473
g1408
(g1409
g1410
Ntp4249
Rp4250
(dp4251
g1414
Vhttp://avatars.yandex.net/get-tv-shows/1333715545258M24133/orig
p4252
sg1416
VOutdoor Channel (\u0423\u043a\u0440\u0430\u0438\u043d\u0430)
p4253
sg1418
Vhttp://tv.yandex.ua/187/channels/322
p4254
sg1420
I473
sbsI474
g1408
(g1409
g1410
Ntp4255
Rp4256
(dp4257
g1414
Vhttp://avatars.yandex.net/get-tv-shows/1333713680513M60480/orig
p4258
sg1416
V\u041d\u0422\u0412-\u041f\u041b\u042e\u0421 \u0421\u043f\u043e\u0440\u0442 \u041f\u043b\u044e\u0441 (\u0423\u043a\u0440\u0430\u0438\u043d\u0430)
p4259
sg1418
Vhttp://tv.yandex.ua/187/channels/377
p4260
sg1420
I474
sbsI475
g1408
(g1409
g1410
Ntp4261
Rp4262
(dp4263
g1414
Vhttp://avatars.yandex.net/get-tv-shows/1333713538946M7262/orig
p4264
sg1416
VVH1 European (\u0423\u043a\u0440\u0430\u0438\u043d\u0430)
p4265
sg1418
Vhttp://tv.yandex.ua/187/channels/491
p4266
sg1420
I475
sbsI476
g1408
(g1409
g1410
Ntp4267
Rp4268
(dp4269
g1414
Vhttp://avatars.yandex.net/get-tv-channel-logos/1349444212217M99907/orig
p4270
sg1416
V\u041d\u0422\u0412-\u041f\u041b\u042e\u0421 \u041d\u0430\u0448 \u0444\u0443\u0442\u0431\u043e\u043b (\u0423\u043a\u0440\u0430\u0438\u043d\u0430)
p4271
sg1418
Vhttp://tv.yandex.ua/187/channels/499
p4272
sg1420
I476
sbsI477
g1408
(g1409
g1410
Ntp4273
Rp4274
(dp4275
g1414
Vhttp://avatars.yandex.net/get-tv-shows/1333715434657M29292/orig
p4276
sg1416
V\u041d\u0422\u0412-\u041f\u041b\u042e\u0421 \u0421\u043f\u043e\u0440\u0442 (\u0423\u043a\u0440\u0430\u0438\u043d\u0430)
p4277
sg1418
Vhttp://tv.yandex.ua/187/channels/134
p4278
sg1420
I477
sbsI478
g1408
(g1409
g1410
Ntp4279
Rp4280
(dp4281
g1414
Vhttp://avatars.yandex.net/get-tv-shows/1333715630513M36394/orig
p4282
sg1416
V\u041d\u0422\u0412-\u041f\u041b\u042e\u0421 \u0424\u0443\u0442\u0431\u043e\u043b (\u0423\u043a\u0440\u0430\u0438\u043d\u0430)
p4283
sg1418
Vhttp://tv.yandex.ua/187/channels/664
p4284
sg1420
I478
sbsI479
g1408
(g1409
g1410
Ntp4285
Rp4286
(dp4287
g1414
Vhttp://avatars.yandex.net/get-tv-shows/1333716734381M94839/orig
p4288
sg1416
V\u041d\u0422\u0412-\u041f\u041b\u042e\u0421 \u0421\u043f\u043e\u0440\u0442 \u041e\u043d\u043b\u0430\u0439\u043d (\u0423\u043a\u0440\u0430\u0438\u043d\u0430)
p4289
sg1418
Vhttp://tv.yandex.ua/187/channels/183
p4290
sg1420
I479
sbsI480
g1408
(g1409
g1410
Ntp4291
Rp4292
(dp4293
g1414
Vhttp://avatars.yandex.net/get-tv-shows/1333713578162M89138/orig
p4294
sg1416
V\u041d\u0422\u0412-\u041f\u041b\u042e\u0421 \u0411\u0430\u0441\u043a\u0435\u0442\u0431\u043e\u043b (\u0423\u043a\u0440\u0430\u0438\u043d\u0430)
p4295
sg1418
Vhttp://tv.yandex.ua/187/channels/697
p4296
sg1420
I480
sbsI481
g1408
(g1409
g1410
Ntp4297
Rp4298
(dp4299
g1414
Vhttp://avatars.yandex.net/get-tv-shows/1333708043568M30613/orig
p4300
sg1416
V\u041d\u0422\u0412-\u041f\u041b\u042e\u0421 \u0422\u0435\u043d\u043d\u0438\u0441 (\u0423\u043a\u0440\u0430\u0438\u043d\u0430)
p4301
sg1418
Vhttp://tv.yandex.ua/187/channels/358
p4302
sg1420
I481
sbsI482
g1408
(g1409
g1410
Ntp4303
Rp4304
(dp4305
g1414
Vhttp://avatars.yandex.net/get-tv-shows/1333713040296M59201/orig
p4306
sg1416
VWorld Music Channel (\u0423\u043a\u0440\u0430\u0438\u043d\u0430)
p4307
sg1418
Vhttp://tv.yandex.ua/187/channels/91
p4308
sg1420
I482
sbsI483
g1408
(g1409
g1410
Ntp4309
Rp4310
(dp4311
g1414
Vhttp://avatars.yandex.net/get-tv-shows/1333708764683M58437/orig
p4312
sg1416
V\u041d\u0422\u0412-\u041f\u041b\u042e\u0421 \u0424\u0443\u0442\u0431\u043e\u043b 2 (\u0423\u043a\u0440\u0430\u0438\u043d\u0430)
p4313
sg1418
Vhttp://tv.yandex.ua/187/channels/563
p4314
sg1420
I483
sbsI484
g1408
(g1409
g1410
Ntp4315
Rp4316
(dp4317
g1414
Vhttp://avatars.yandex.net/get-tv-channel-logos/1347977439851M34882/orig
p4318
sg1416
VSONY \u0422\u0412 (\u0423\u043a\u0440\u0430\u0438\u043d\u0430)
p4319
sg1418
Vhttp://tv.yandex.ua/187/channels/311
p4320
sg1420
I484
sbsI485
g1408
(g1409
g1410
Ntp4321
Rp4322
(dp4323
g1414
Vhttp://avatars.yandex.net/get-tv-channel-logos/1346751438482M48687/orig
p4324
sg1416
V8 \u041a\u0430\u043d\u0430\u043b (\u0423\u043a\u0440\u0430\u0438\u043d\u0430)
p4325
sg1418
Vhttp://tv.yandex.ua/187/channels/217
p4326
sg1420
I485
sbsI486
g1408
(g1409
g1410
Ntp4327
Rp4328
(dp4329
g1414
Vhttp://avatars.yandex.net/get-tv-shows/1333708793754M69706/orig
p4330
sg1416
V\u0418\u043d\u0442\u0435\u0440\u0435\u0441\u043d\u043e\u0435 \u0422\u0412 (\u0423\u043a\u0440\u0430\u0438\u043d\u0430)
p4331
sg1418
Vhttp://tv.yandex.ua/187/channels/24
p4332
sg1420
I486
sbsI487
g1408
(g1409
g1410
Ntp4333
Rp4334
(dp4335
g1414
Vhttp://avatars.yandex.net/get-tv-shows/1333708053915M20046/orig
p4336
sg1416
V\u041c\u043d\u043e\u0433\u043e \u0422\u0412 (\u0423\u043a\u0440\u0430\u0438\u043d\u0430)
p4337
sg1418
Vhttp://tv.yandex.ua/187/channels/799
p4338
sg1420
I487
sbsI488
g1408
(g1409
g1410
Ntp4339
Rp4340
(dp4341
g1414
Vhttp://avatars.yandex.net/get-tv-channel-logos/1336217768352M70407/orig
p4342
sg1416
V\u041a\u043e\u043c\u0435\u0434\u0438\u044f \u0422\u0412 (\u0423\u043a\u0440\u0430\u0438\u043d\u0430)
p4343
sg1418
Vhttp://tv.yandex.ua/187/channels/821
p4344
sg1420
I488
sbsI489
g1408
(g1409
g1410
Ntp4345
Rp4346
(dp4347
g1414
Vhttp://avatars.yandex.net/get-tv-channel-logos/1344328736344M68981/orig
p4348
sg1416
V\u041a\u0443\u0445\u043d\u044f \u0422\u0412 (\u0423\u043a\u0440\u0430\u0438\u043d\u0430)
p4349
sg1418
Vhttp://tv.yandex.ua/187/channels/614
p4350
sg1420
I489
sbsI490
g1408
(g1409
g1410
Ntp4351
Rp4352
(dp4353
g1414
Vhttp://avatars.yandex.net/get-tv-channel-logos/1357806445014M68284/orig
p4354
sg1416
V\u0410\u0432\u0442\u043e \u041f\u043b\u044e\u0441 (\u0423\u043a\u0440\u0430\u0438\u043d\u0430)
p4355
sg1418
Vhttp://tv.yandex.ua/187/channels/153
p4356
sg1420
I490
sbsI491
g1408
(g1409
g1410
Ntp4357
Rp4358
(dp4359
g1414
Vhttp://avatars.yandex.net/get-tv-shows/1333709239764M13305/orig
p4360
sg1416
VHD Life (\u0423\u043a\u0440\u0430\u0438\u043d\u0430)
p4361
sg1418
Vhttp://tv.yandex.ua/187/channels/415
p4362
sg1420
I491
sbsI492
g1408
(g1409
g1410
Ntp4363
Rp4364
(dp4365
g1414
Vhttp://avatars.yandex.net/get-tv-shows/1333713175752M17275/orig
p4366
sg1416
V365 (\u0423\u043a\u0440\u0430\u0438\u043d\u0430)
p4367
sg1418
Vhttp://tv.yandex.ua/187/channels/250
p4368
sg1420
I492
sbsI493
g1408
(g1409
g1410
Ntp4369
Rp4370
(dp4371
g1414
Vhttp://avatars.yandex.net/get-tv-shows/1333715379935M43316/orig
p4372
sg1416
V\u041a\u0438\u043d\u043e\u043b\u044e\u043a\u0441 (\u0423\u043a\u0440\u0430\u0438\u043d\u0430)
p4373
sg1418
Vhttp://tv.yandex.ua/187/channels/8
p4374
sg1420
I493
sbsI494
g1408
(g1409
g1410
Ntp4375
Rp4376
(dp4377
g1414
Vhttp://avatars.yandex.net/get-tv-shows/1333713929498M22985/orig
p4378
sg1416
V\u0420\u0443\u0441\u0441\u043a\u0438\u0439 \u0440\u043e\u043c\u0430\u043d (\u0423\u043a\u0440\u0430\u0438\u043d\u0430)
p4379
sg1418
Vhttp://tv.yandex.ua/187/channels/401
p4380
sg1420
I494
sbsI495
g1408
(g1409
g1410
Ntp4381
Rp4382
(dp4383
g1414
Vhttp://avatars.yandex.net/get-tv-shows/1333715246259M47961/orig
p4384
sg1416
V\u0421\u043f\u043e\u0440\u0442 \u0421\u043e\u044e\u0437 (\u0423\u043a\u0440\u0430\u0438\u043d\u0430)
p4385
sg1418
Vhttp://tv.yandex.ua/187/channels/306
p4386
sg1420
I495
sbsI496
g1408
(g1409
g1410
Ntp4387
Rp4388
(dp4389
g1414
Vhttp://avatars.yandex.net/get-tv-shows/1333712655586M1831/orig
p4390
sg1416
VPRO Business (\u0423\u043a\u0440\u0430\u0438\u043d\u0430)
p4391
sg1418
Vhttp://tv.yandex.ua/187/channels/214
p4392
sg1420
I496
sbsI497
g1408
(g1409
g1410
Ntp4393
Rp4394
(dp4395
g1414
Vhttp://avatars.yandex.net/get-tv-channel-logos/1358325521945M33990/orig
p4396
sg1416
V\u0411\u0435\u043b\u0430\u0440\u0443\u0441\u044c-24 (\u0423\u043a\u0440\u0430\u0438\u043d\u0430)
p4397
sg1418
Vhttp://tv.yandex.ua/187/channels/851
p4398
sg1420
I497
sbsI498
g1408
(g1409
g1410
Ntp4399
Rp4400
(dp4401
g1414
Vhttp://avatars.yandex.net/get-tv-shows/1333715678250M70241/orig
p4402
sg1416
VMotors TV (\u0423\u043a\u0440\u0430\u0438\u043d\u0430)
p4403
sg1418
Vhttp://tv.yandex.ua/187/channels/531
p4404
sg1420
I498
sbsI499
g1408
(g1409
g1410
Ntp4405
Rp4406
(dp4407
g1414
Vhttp://avatars.yandex.net/get-tv-shows/1333713401739M87841/orig
p4408
sg1416
VTrace Urban (\u0423\u043a\u0440\u0430\u0438\u043d\u0430)
p4409
sg1418
Vhttp://tv.yandex.ua/187/channels/473
p4410
sg1420
I499
sbsI500
g1408
(g1409
g1410
Ntp4411
Rp4412
(dp4413
g1414
Vhttp://avatars.yandex.net/get-tv-shows/1333715692247M50804/orig
p4414
sg1416
V\u042e\u043c\u043e\u0440 BOX (\u0423\u043a\u0440\u0430\u0438\u043d\u0430)
p4415
sg1418
Vhttp://tv.yandex.ua/187/channels/412
p4416
sg1420
I500
sbsI501
g1408
(g1409
g1410
Ntp4417
Rp4418
(dp4419
g1414
Vhttp://avatars.yandex.net/get-tv-shows/1333713694458M58917/orig
p4420
sg1416
VMTV Music (\u0423\u043a\u0440\u0430\u0438\u043d\u0430)
p4421
sg1418
Vhttp://tv.yandex.ua/187/channels/430
p4422
sg1420
I501
sbsI502
g1408
(g1409
g1410
Ntp4423
Rp4424
(dp4425
g1414
Vhttp://avatars.yandex.net/get-tv-channel-logos/1356612022097M50743/orig
p4426
sg1416
V\u042d\u0433\u043e\u0438\u0441\u0442 \u0422\u0412 (\u0423\u043a\u0440\u0430\u0438\u043d\u0430)
p4427
sg1418
Vhttp://tv.yandex.ua/187/channels/431
p4428
sg1420
I502
sbsI503
g1408
(g1409
g1410
Ntp4429
Rp4430
(dp4431
g1414
Vhttp://avatars.yandex.net/get-tv-shows/1333713010310M30552/orig
p4432
sg1416
V\u0410\u0413\u0420\u041e-\u0422\u0412 (\u0423\u043a\u0440\u0430\u0438\u043d\u0430)
p4433
sg1418
Vhttp://tv.yandex.ua/187/channels/11
p4434
sg1420
I503
sbsI504
g1408
(g1409
g1410
Ntp4435
Rp4436
(dp4437
g1414
Vhttp://avatars.yandex.net/get-tv-shows/1334158126325M33910/orig
p4438
sg1416
V\u0420\u0430\u0437 \u0422\u0412 (\u0423\u043a\u0440\u0430\u0438\u043d\u0430)
p4439
sg1418
Vhttp://tv.yandex.ua/187/channels/363
p4440
sg1420
I504
sbsI505
g1408
(g1409
g1410
Ntp4441
Rp4442
(dp4443
g1414
Vhttp://avatars.yandex.net/get-tv-shows/1333715291495M67100/orig
p4444
sg1416
V\u041f\u0440\u043e\u0441\u0432\u0435\u0449\u0435\u043d\u0438\u0435 (\u0423\u043a\u0440\u0430\u0438\u043d\u0430)
p4445
sg1418
Vhttp://tv.yandex.ua/187/channels/685
p4446
sg1420
I505
sbsI506
g1408
(g1409
g1410
Ntp4447
Rp4448
(dp4449
g1414
Vhttp://avatars.yandex.net/get-tv-shows/1333713378901M21893/orig
p4450
sg1416
VPro \u0432\u0441\u0435 (\u0423\u043a\u0440\u0430\u0438\u043d\u0430)
p4451
sg1418
Vhttp://tv.yandex.ua/187/channels/458
p4452
sg1420
I506
sbsI507
g1408
(g1409
g1410
Ntp4453
Rp4454
(dp4455
g1414
Vhttp://avatars.yandex.net/get-tv-shows/1333713578373M76326/orig
p4456
sg1416
VBRIDGE TV (\u0423\u043a\u0440\u0430\u0438\u043d\u0430)
p4457
sg1418
Vhttp://tv.yandex.ua/187/channels/151
p4458
sg1420
I507
sbsI508
g1408
(g1409
g1410
Ntp4459
Rp4460
(dp4461
g1414
Vhttp://avatars.yandex.net/get-tv-shows/1333716766094M95286/orig
p4462
sg1416
V\u0422\u0420\u041e (\u0423\u043a\u0440\u0430\u0438\u043d\u0430)
p4463
sg1418
Vhttp://tv.yandex.ua/187/channels/730
p4464
sg1420
I508
sbsI509
g1408
(g1409
g1410
Ntp4465
Rp4466
(dp4467
g1414
Vhttp://avatars.yandex.net/get-tv-shows/1333707965006M57212/orig
p4468
sg1416
V\u0417\u0430\u043a\u043e\u043d-\u0422\u0412 (\u0423\u043a\u0440\u0430\u0438\u043d\u0430)
p4469
sg1418
Vhttp://tv.yandex.ua/187/channels/178
p4470
sg1420
I509
sbsI510
g1408
(g1409
g1410
Ntp4471
Rp4472
(dp4473
g1414
Vhttp://avatars.yandex.net/get-tv-shows/1333715232874M54663/orig
p4474
sg1416
V\u041d\u0430\u043d\u043e \u0422\u0412 (\u0423\u043a\u0440\u0430\u0438\u043d\u0430)
p4475
sg1418
Vhttp://tv.yandex.ua/187/channels/35
p4476
sg1420
I510
sbsI511
g1408
(g1409
g1410
Ntp4477
Rp4478
(dp4479
g1414
Vhttp://avatars.yandex.net/get-tv-shows/1333708540363M22180/orig
p4480
sg1416
VMTV Live HD (\u0423\u043a\u0440\u0430\u0438\u043d\u0430)
p4481
sg1418
Vhttp://tv.yandex.ua/187/channels/382
p4482
sg1420
I511
sbsI512
g1408
(g1409
g1410
Ntp4483
Rp4484
(dp4485
g1414
Vhttp://avatars.yandex.net/get-tv-shows/1333708977916M89754/orig
p4486
sg1416
V\u0422\u0411\u041d (\u0423\u043a\u0440\u0430\u0438\u043d\u0430)
p4487
sg1418
Vhttp://tv.yandex.ua/187/channels/576
p4488
sg1420
I512
sbsI513
g1408
(g1409
g1410
Ntp4489
Rp4490
(dp4491
g1414
Vhttp://avatars.yandex.net/get-tv-shows/1333715189760M70159/orig
p4492
sg1416
V\u0421\u043e\u044e\u0437 (\u0423\u043a\u0440\u0430\u0438\u043d\u0430)
p4493
sg1418
Vhttp://tv.yandex.ua/187/channels/349
p4494
sg1420
I513
sbsI514
g1408
(g1409
g1410
Ntp4495
Rp4496
(dp4497
g1414
Vhttp://avatars.yandex.net/get-tv-shows/1333709420684M86785/orig
p4498
sg1416
VMTV European (\u0423\u043a\u0440\u0430\u0438\u043d\u0430)
p4499
sg1418
Vhttp://tv.yandex.ua/187/channels/270
p4500
sg1420
I514
sbsI515
g1408
(g1409
g1410
Ntp4501
Rp4502
(dp4503
g1414
Vhttp://avatars.yandex.net/get-tv-shows/1333718307034M58256/orig
p4504
sg1416
V\u0414\u0435\u0432\u044f\u0442\u044b\u0439 (\u041e\u0440\u0431\u0438\u0442\u0430) (\u0423\u043a\u0440\u0430\u0438\u043d\u0430)
p4505
sg1418
Vhttp://tv.yandex.ua/187/channels/237
p4506
sg1420
I515
sbsI516
g1408
(g1409
g1410
Ntp4507
Rp4508
(dp4509
g1414
Vhttp://avatars.yandex.net/get-tv-shows/1333716969968M17969/orig
p4510
sg1416
V\u041a\u041f \u0422\u0412 (\u0423\u043a\u0440\u0430\u0438\u043d\u0430)
p4511
sg1418
Vhttp://tv.yandex.ua/187/channels/852
p4512
sg1420
I516
sbsI517
g1408
(g1409
g1410
Ntp4513
Rp4514
(dp4515
g1414
Vhttp://avatars.yandex.net/get-tv-shows/1333715618499M86752/orig
p4516
sg1416
VSTV (\u0423\u043a\u0440\u0430\u0438\u043d\u0430)
p4517
sg1418
Vhttp://tv.yandex.ua/187/channels/165
p4518
sg1420
I517
sbsI518
g1408
(g1409
g1410
Ntp4519
Rp4520
(dp4521
g1414
Vhttp://avatars.yandex.net/get-tv-shows/1333715800906M7024/orig
p4522
sg1416
V\u041b\u044f-\u041c\u0438\u043d\u043e\u0440 (\u0423\u043a\u0440\u0430\u0438\u043d\u0430)
p4523
sg1418
Vhttp://tv.yandex.ua/187/channels/257
p4524
sg1420
I518
sbsI519
g1408
(g1409
g1410
Ntp4525
Rp4526
(dp4527
g1414
Vhttp://avatars.yandex.net/get-tv-shows/1333713483747M17455/orig
p4528
sg1416
V\u0422\u0435\u043b\u0435\u043a\u0430\u043d\u0430\u043b 21+ (\u0423\u043a\u0440\u0430\u0438\u043d\u0430)
p4529
sg1418
Vhttp://tv.yandex.ua/187/channels/492
p4530
sg1420
I519
sbsI520
g1408
(g1409
g1410
Ntp4531
Rp4532
(dp4533
g1414
Vhttp://avatars.yandex.net/get-tv-shows/1333708295391M71704/orig
p4534
sg1416
V\u0410\u0421\u0422\u0420\u041e \u0422\u0412 (\u0423\u043a\u0440\u0430\u0438\u043d\u0430)
p4535
sg1418
Vhttp://tv.yandex.ua/187/channels/249
p4536
sg1420
I520
sbsI521
g1408
(g1409
g1410
Ntp4537
Rp4538
(dp4539
g1414
Vhttp://avatars.yandex.net/get-tv-shows/1333713846214M68965/orig
p4540
sg1416
VFine Living Network (\u0423\u043a\u0440\u0430\u0438\u043d\u0430)
p4541
sg1418
Vhttp://tv.yandex.ua/187/channels/393
p4542
sg1420
I521
sbssa.