(lp0
F1359041827.640777
a(dp1
S'__channel_count__'
p2
I557
sS'__search_dictionary__'
p3
(dp4
V\u0438\u043d\u0442\u0435\u0440
p5
c__builtin__
set
p6
((lp7
I5
aI23
atp8
Rp9
sVsci
p10
g6
((lp11
I298
aI44
atp12
Rp13
sVeuronews
p14
g6
((lp15
I308
aI54
atp16
Rp17
sVdance
p18
g6
((lp19
I428
aI175
atp20
Rp21
sS'(5)'
p22
g6
((lp23
I320
aI310
aI324
aI293
aI550
aI396
aI458
aI459
aI44
aI205
aI462
aI207
aI461
aI210
aI405
aI214
aI420
aI186
aI156
aI93
aI421
atp24
Rp25
sV\u043f\u0441\u0438
p26
g6
((lp27
I396
aI140
atp28
Rp29
sV\u043a\u043f
p30
g6
((lp31
I491
aI247
atp32
Rp33
sV\u043a\u0438\u043d\u043e\u043a\u043b\u0443\u0431
p34
g6
((lp35
I83
aI335
atp36
Rp37
sVtv
p38
g6
((lp39
I7
aI322
aI418
aI401
aI405
aI150
aI431
aI545
aI290
aI36
aI555
aI428
aI429
aI175
aI176
aI177
aI178
aI435
aI184
aI319
aI320
aI66
aI67
aI70
aI162
aI232
aI489
aI509
aI112
aI242
aI499
aI245
aI502
aI248
aI508
aI253
atp40
Rp41
sV0
p42
g6
((lp43
I187
aI438
atp44
Rp45
sV\u0435\u0434\u0430
p46
g6
((lp47
I494
aI495
atp48
Rp49
sV\u0441\u0442\u0440\u0430\u043d\u0430
p50
g6
((lp51
I122
aI365
atp52
Rp53
sV\u0438
p54
g6
((lp55
I407
aI430
aI339
aI87
aI345
aI186
aI156
aI93
atp56
Rp57
sVtb
p58
g6
((lp59
I201
aI451
atp60
Rp61
sV\u0440\u0435\u0442\u0440\u043e
p62
g6
((lp63
I192
aI443
atp64
Rp65
sV\u043f\u0430\u0440\u043a
p66
g6
((lp67
I139
aI395
atp68
Rp69
sV\u044e\u043d\u0438\u043e\u043d
p70
g6
((lp71
I32
atp72
Rp73
sV\u043e\u043b\u043e\u0433\u0438\u044f
p74
g6
((lp75
I396
aI140
atp76
Rp77
sVsony
p78
g6
((lp79
I464
aI527
aI270
aI215
atp80
Rp81
sV\u043b\u044e\u0431\u0438\u043c\u043e\u0435
p82
g6
((lp83
I420
aI165
atp84
Rp85
sV\u0437\u0434\u043e\u0440\u043e\u0432\u043e\u0435
p86
g6
((lp87
I441
aI191
atp88
Rp89
sV\u043a\u0443
p90
g6
((lp91
I220
aI469
atp92
Rp93
sV\u043a\u0442\u043e
p94
g6
((lp95
I412
aI159
atp96
Rp97
sV\u0440\u0436\u0434
p98
g6
((lp99
I506
aI556
atp100
Rp101
sV\u043e\u0431\u0440\u0430\u0437\u043e\u0432\u0430\u0442\u0435\u043b\u044c\u043d\u044b\u0439
p102
g6
((lp103
I434
aI183
atp104
Rp105
sV\u0442\u043e\u0431\u043e\u0439
p106
g6
((lp107
I410
aI157
atp108
Rp109
sV\u0437\u043d\u0430\u043d\u0438\u0435
p110
g6
((lp111
I202
aI452
atp112
Rp113
sVshowcase
p114
g6
((lp115
I450
aI199
atp116
Rp117
sV+
p118
g6
((lp119
I4
aI470
aI138
aI15
aI23
aI461
aI28
aI550
aI463
aI394
aI456
aI457
aI458
aI459
aI460
aI333
aI462
aI205
aI208
aI209
aI210
aI211
aI212
aI214
aI207
aI221
aI81
aI362
aI492
aI109
aI250
aI511
atp120
Rp121
sV\u043c\u043d\u043e\u0433\u043e
p122
g6
((lp123
I218
aI467
atp124
Rp125
sVinternational
p126
g6
((lp127
I34
aI38
atp128
Rp129
sVdisney
p130
g6
((lp131
I548
aI292
atp132
Rp133
sV\u0441\u043e\u044e\u0437
p134
g6
((lp135
I488
aI226
aI475
aI244
atp136
Rp137
sV\u043d\u0430\u0448
p138
g6
((lp139
I457
aI207
atp140
Rp141
sV34
p142
g6
((lp143
I29
atp144
Rp145
sV\u0447\u043f
p146
g6
((lp147
I501
aI151
atp148
Rp149
sVaction
p150
g6
((lp151
I401
aI150
atp152
Rp153
sVmoteurs
p154
g6
((lp155
I41
aI294
atp156
Rp157
sV\u0441\u0430\u043d\u043a\u0442
p158
g6
((lp159
I286
atp160
Rp161
sV\u0432\u0440\u0435\u043c\u044f
p162
g6
((lp163
I328
aI76
atp164
Rp165
sV\u043f\u0435\u0440\u0432\u044b\u0439
p166
g6
((lp167
I35
aI260
aI518
aI393
aI12
aI434
aI20
aI149
aI183
aI24
aI254
atp168
Rp169
sVfrance
p170
g6
((lp171
I145
aI389
atp172
Rp173
sVamedia
p174
g6
((lp175
I257
aI515
atp176
Rp177
sVlive
p178
g6
((lp179
I130
aI508
aI242
aI383
atp180
Rp181
sVmusic
p182
g6
((lp183
I454
aI135
aI232
aI213
aI502
aI379
atp184
Rp185
sV\u043f\u0435\u0442\u0435\u0440\u0431\u0443\u0440\u0433
p186
g6
((lp187
I273
aI285
aI286
aI279
atp188
Rp189
sVtoday
p190
g6
((lp191
I144
aI399
atp192
Rp193
sV\u043e
p194
g6
((lp195
I430
aI272
aI407
aI345
aI186
aI156
aI93
atp196
Rp197
sVturbo
p198
g6
((lp199
I270
aI527
atp200
Rp201
sVclub
p202
g6
((lp203
I385
aI141
atp204
Rp205
sV\u044e
p206
g6
((lp207
I547
aI291
atp208
Rp209
sVbaby
p210
g6
((lp211
I427
aI173
atp212
Rp213
sV\u0440\u0435\u0431\u0435\u043d\u043a\u0430
p214
g6
((lp215
I152
aI402
atp216
Rp217
sV\u0432\u0441\u0435\u0433\u0434\u0430
p218
g6
((lp219
I410
aI157
atp220
Rp221
sVscience
p222
g6
((lp223
I304
aI50
atp224
Rp225
sV\u0442\u0435\u0430\u0442\u0440
p226
g6
((lp227
I520
aI262
atp228
Rp229
sV\u0438\u0442
p230
g6
((lp231
I338
aI86
atp232
Rp233
sV\u043a\u0438\u0435\u0432
p234
g6
((lp235
I19
atp236
Rp237
sS'(2)'
p238
g6
((lp239
I512
aI2
aI515
aI7
aI520
aI521
aI522
aI524
aI525
aI14
aI18
aI531
aI20
aI21
aI23
aI24
aI537
aI28
aI29
aI30
aI543
aI33
aI34
aI547
aI36
aI37
aI38
aI41
aI42
aI43
aI556
aI46
aI50
aI51
aI52
aI53
aI55
aI57
aI62
aI66
aI70
aI73
aI74
aI78
aI79
aI81
aI88
aI90
aI95
aI97
aI98
aI101
aI104
aI530
aI110
aI113
aI115
aI116
aI119
aI121
aI536
aI127
aI128
aI130
aI131
aI135
aI138
aI139
aI533
aI141
aI144
aI145
aI146
aI149
aI151
aI152
aI153
aI154
aI155
aI161
aI166
aI168
aI169
aI174
aI176
aI183
aI184
aI185
aI188
aI198
aI199
aI201
aI203
aI546
aI206
aI213
aI548
aI221
aI225
aI226
aI227
aI228
aI230
aI237
aI246
aI248
aI249
aI254
aI255
aI256
aI258
aI259
aI260
aI268
aI269
aI270
aI271
aI275
aI277
aI278
aI279
aI280
aI283
aI286
aI290
aI296
aI299
aI302
aI303
aI308
aI311
aI312
aI313
aI316
aI317
aI318
aI323
aI327
aI328
aI329
aI332
aI334
aI335
aI336
aI337
aI344
aI346
aI349
aI540
aI352
aI353
aI356
aI357
aI359
aI360
aI361
aI363
aI365
aI366
aI370
aI372
aI374
aI375
aI376
aI377
aI381
aI382
aI386
aI390
aI391
aI392
aI397
aI400
aI411
aI414
aI417
aI419
aI422
aI423
aI425
aI426
aI427
aI433
aI437
aI439
aI440
aI441
aI442
aI443
aI444
aI446
aI448
aI452
aI455
aI464
aI465
aI466
aI467
aI468
aI471
aI472
aI473
aI477
aI480
aI482
aI484
aI485
aI486
aI487
aI488
aI491
aI493
aI495
aI496
aI497
aI498
aI499
aI503
aI504
aI505
aI507
atp240
Rp241
sV\u043e\u043d\u043b\u0430\u0439\u043d
p242
g6
((lp243
I210
aI460
atp244
Rp245
sVhistory
p246
g6
((lp247
I73
aI325
atp248
Rp249
sV\u043c1
p250
g6
((lp251
I13
atp252
Rp253
sV\u0434\u0440\u0430\u0439\u0432
p254
g6
((lp255
I440
aI190
atp256
Rp257
sVplorer
p258
g6
((lp259
I72
aI324
atp260
Rp261
sV\u043c\u0443\u0437
p262
g6
((lp263
I480
aI180
atp264
Rp265
sV\u0438\u043d\u0432\u0430
p266
g6
((lp267
I513
aI255
atp268
Rp269
sV\u0430\u0432\u0442\u043e\u043c\u043e\u0431\u0438\u043b\u044c\u043d\u044b\u0439
p270
g6
((lp271
I20
atp272
Rp273
sV\u0440\u043e\u043c\u0430\u043d
p274
g6
((lp275
I225
aI474
atp276
Rp277
sV\u043d\u0430\u0441\u0442\u043e\u044f\u0449\u0435\u0435
p278
g6
((lp279
I89
aI341
atp280
Rp281
sVtravel
p282
g6
((lp283
I398
aI143
atp284
Rp285
sV\u043a\u043e\u043c\u0435\u0434\u0438
p286
g6
((lp287
I377
aI126
atp288
Rp289
sV\u043f\u0435\u0440\u0432\u043e\u0433\u043e
p290
g6
((lp291
I104
aI348
atp292
Rp293
sVamazing
p294
g6
((lp295
I42
aI295
atp296
Rp297
sVanimal
p298
g6
((lp299
I297
aI14
atp300
Rp301
sV\u0441\u0430\u0440\u0430\u0444\u0430\u043d
p302
g6
((lp303
I352
aI99
atp304
Rp305
sVcomedy
p306
g6
((lp307
I493
aI551
atp308
Rp309
sVparamount
p310
g6
((lp311
I493
aI551
atp312
Rp313
sV\u0435\u0432\u0440\u043e\u043f\u0430
p314
g6
((lp315
I265
aI523
atp316
Rp317
sVdiva
p318
g6
((lp319
I449
aI198
atp320
Rp321
sV\u0440\u044b\u0431\u043e\u043b\u043e\u0432
p322
g6
((lp323
I186
aI430
atp324
Rp325
sV\u043c\u043e\u0441\u043a\u0432\u0430
p326
g6
((lp327
I546
aI540
atp328
Rp329
sVfi
p330
g6
((lp331
I298
aI44
atp332
Rp333
sVman
p334
g6
((lp335
I129
aI382
atp336
Rp337
sV\u0441\u0435\u043a\u0440\u0435\u0442\u043d\u043e
p338
g6
((lp339
I424
aI169
atp340
Rp341
sV\u043f\u0438\u043a\u0441\u0435\u043b\u044c
p342
g6
((lp343
I1
atp344
Rp345
sVdeutsche
p346
g6
((lp347
I57
aI305
atp348
Rp349
sVq
p350
g6
((lp351
I36
atp352
Rp353
sVenter
p354
g6
((lp355
I21
atp356
Rp357
sV\u0440\u0443\u0441\u0441\u043a\u0438\u0439
p358
g6
((lp359
I97
aI98
aI225
aI474
aI350
aI351
atp360
Rp361
sV\u0434\u043e\u043d\u0431\u0430\u0441\u0441
p362
g6
((lp363
I27
atp364
Rp365
sVzee
p366
g6
((lp367
I417
aI163
atp368
Rp369
sV\u043f\u0440\u0435\u043c\u044c\u0435\u0440\u0430
p370
g6
((lp371
I346
aI94
atp372
Rp373
sV24
p374
g6
((lp375
I546
aI228
aI293
aI145
aI40
aI389
aI364
aI113
aI478
aI30
aI287
atp376
Rp377
sV1
p378
g6
((lp379
I354
aI4
aI101
aI271
aI528
aI378
aI127
atp380
Rp381
sVstyle
p382
g6
((lp383
I400
aI147
atp384
Rp385
sV21
p386
g6
((lp387
I396
aI250
aI140
aI511
atp388
Rp389
sVlu
p390
g6
((lp391
I162
aI315
aI69
aI405
atp392
Rp393
sVtreme
p394
g6
((lp395
I56
aI310
atp396
Rp397
sVcee
p398
g6
((lp399
I387
aI133
atp400
Rp401
sV\u0442\u0435\u0442
p402
g6
((lp403
I25
atp404
Rp405
sV\u0441\u043f\u043e\u0440\u0442
p406
g6
((lp407
I226
aI475
aI101
aI456
aI458
aI354
aI460
aI205
aI208
aI210
aI312
aI59
atp408
Rp409
sV\u0444\u0435\u043d\u0438\u043a\u0441
p410
g6
((lp411
I362
aI109
atp412
Rp413
sVrocks
p414
g6
((lp415
I178
aI431
atp416
Rp417
sV\u044d\u0433\u043e\u0438\u0441\u0442
p418
g6
((lp419
I233
aI503
atp420
Rp421
sV\u0441\u0435\u0440\u0438\u0430\u043b\u0430
p422
g6
((lp423
I384
aI131
atp424
Rp425
sV\u0440\u0430\u0437\u0432\u043b\u0435\u0447\u0435\u043d\u0438\u0439
p426
g6
((lp427
I139
aI395
atp428
Rp429
sV\u0437\u043e\u043e
p430
g6
((lp431
I80
aI332
atp432
Rp433
sV\u043c\u0443\u043b\u044c\u0442\u0438\u043c\u0430\u043d\u0438\u044f
p434
g6
((lp435
I136
aI391
atp436
Rp437
sVru
p438
g6
((lp439
I184
aI435
aI171
aI413
atp440
Rp441
sV\u0438\u043d\u0442\u0435\u0440\u043d\u0435\u0442
p442
g6
((lp443
I260
aI518
atp444
Rp445
sVnetwork
p446
g6
((lp447
I300
aI252
aI500
aI46
atp448
Rp449
sVentertainment
p450
g6
((lp451
I498
aI554
atp452
Rp453
sVinvestigation
p454
g6
((lp455
I121
aI373
atp456
Rp457
sV\u043d\u043e\u0441\u0442\u0430\u043b\u044c\u0433\u0438\u044f
p458
g6
((lp459
I344
aI92
atp460
Rp461
sV\u0430\u0433\u0440\u043e
p462
g6
((lp463
I504
aI234
atp464
Rp465
sV\u0442\u0438\u043d
p466
g6
((lp467
I106
aI359
atp468
Rp469
sV\u0444\u0438\u043b\u044c\u043c
p470
g6
((lp471
I21
atp472
Rp473
sV\u0440\u0430\u0437
p474
g6
((lp475
I482
aI235
atp476
Rp477
sV\u0438\u044f
p478
g6
((lp479
I105
aI358
atp480
Rp481
sV\u043c\u0443\u0437\u044b\u043a\u0430
p482
g6
((lp483
I104
aI348
atp484
Rp485
sV\u0438\u043d\u0442\u0435\u0440\u0435\u0441\u043d\u043e\u0435
p486
g6
((lp487
I217
aI466
atp488
Rp489
sV\u043e\u0440\u0443\u0436\u0438\u0435
p490
g6
((lp491
I411
aI158
atp492
Rp493
sV2_2
p494
g6
((lp495
I544
aI289
aI15
atp496
Rp497
sV1000
p498
g6
((lp499
I320
aI66
aI67
aI401
aI150
aI319
atp500
Rp501
sV\u043e\u0439
p502
g6
((lp503
I285
atp504
Rp505
sVnhk
p506
g6
((lp507
I259
aI517
atp508
Rp509
sVone
p510
g6
((lp511
I185
aI258
aI436
aI516
atp512
Rp513
sV\u0442\u0431\u043d
p514
g6
((lp515
I243
aI487
atp516
Rp517
sV\u0437\u0430\u0433\u043e\u0440\u043e\u0434\u043d\u044b\u0439
p518
g6
((lp519
I160
aI414
atp520
Rp521
sV\u043c\u0435\u0434\u0438\u0430
p522
g6
((lp523
I392
aI513
aI148
aI255
atp524
Rp525
sV\u043c\u0443\u0436\u0441\u043a\u043e\u0439
p526
g6
((lp527
I386
aI132
atp528
Rp529
sVtop
p530
g6
((lp531
I168
aI409
atp532
Rp533
sV\u0437\u0430\u043a\u043e\u043d
p534
g6
((lp535
I240
aI486
atp536
Rp537
sV\u043e\u043a\u043a\u0435\u0439
p538
g6
((lp539
I33
atp540
Rp541
sV2
p542
g6
((lp543
I128
aI289
aI438
aI463
aI15
aI275
aI532
aI309
aI214
aI55
aI544
aI187
aI380
atp544
Rp545
sVmusicbo
p546
g6
((lp547
I416
aI171
aI413
aI174
atp548
Rp549
sV\u043f\u043b\u0430\u043d\u0435\u0442\u0430
p550
g6
((lp551
I88
aI340
aI268
aI37
aI526
atp552
Rp553
sVurban
p554
g6
((lp555
I230
aI479
atp556
Rp557
sV\u0442\u0435\u043b\u0435\u043a\u043b\u0443\u0431
p558
g6
((lp559
I492
aI357
aI550
aI103
atp560
Rp561
sV\u0441\u043f\u0430\u0441
p562
g6
((lp563
I353
aI100
atp564
Rp565
sV\u043c\u043e\u044f
p566
g6
((lp567
I88
aI347
aI340
aI95
atp568
Rp569
sV\u043c\u0435\u0442\u0435\u043e
p570
g6
((lp571
I393
aI149
atp572
Rp573
sV\u043a\u0443\u043b\u044c\u0442\u0443\u0440\u0430
p574
g6
((lp575
I274
aI531
atp576
Rp577
sV\u0442\u0435\u043b\u0435\u0432\u0438\u0434\u0435\u043d\u0438\u0435
p578
g6
((lp579
I89
aI341
atp580
Rp581
sV\u043e\u0441\u0442
p582
g6
((lp583
I521
aI263
atp584
Rp585
sV+_+
p586
g6
((lp587
I456
aI205
atp588
Rp589
sVr
p590
g6
((lp591
I112
aI253
atp592
Rp593
sVrussia
p594
g6
((lp595
I144
aI399
atp596
Rp597
sV\u0441\u0438\u043d\u0435\u0440\u0433\u0438\u044f
p598
g6
((lp599
I267
aI525
atp600
Rp601
sVbridge
p602
g6
((lp603
I484
aI238
atp604
Rp605
sVfashion
p606
g6
((lp607
I258
aI3
aI516
aI326
aI74
aI311
aI58
atp608
Rp609
sV\u043a\u0438\u043d\u043e
p610
g6
((lp611
I320
aI67
aI342
aI165
aI167
aI138
aI331
aI109
aI79
aI338
aI86
aI343
aI420
aI90
aI91
aI362
aI394
aI421
atp612
Rp613
sVpro
p614
g6
((lp615
I227
aI476
aI237
aI483
atp616
Rp617
sS'(3)'
p618
g6
((lp619
I513
aI514
aI3
aI4
aI517
aI518
aI12
aI526
aI15
aI528
aI532
aI516
aI538
aI545
aI39
aI552
aI553
aI554
aI555
aI68
aI69
aI86
aI87
aI89
aI91
aI105
aI109
aI112
aI117
aI133
aI134
aI143
aI150
aI157
aI159
aI171
aI175
aI177
aI178
aI187
aI195
aI220
aI231
aI232
aI551
aI242
aI245
aI250
aI252
aI261
aI265
aI272
aI273
aI285
aI287
aI289
aI294
aI295
aI297
aI300
aI301
aI304
aI305
aI306
aI307
aI309
aI314
aI319
aI322
aI325
aI326
aI330
aI331
aI333
aI340
aI342
aI347
aI348
aI350
aI351
aI354
aI355
aI364
aI367
aI368
aI371
aI373
aI378
aI379
aI380
aI383
aI384
aI385
aI389
aI393
aI394
aI395
aI399
aI402
aI403
aI404
aI406
aI408
aI409
aI415
aI416
aI418
aI424
aI432
aI434
aI435
aI436
aI447
aI449
aI450
aI451
aI453
aI454
aI470
aI527
aI474
aI475
aI476
aI478
aI479
aI483
aI489
aI490
aI501
aI510
atp620
Rp621
sV\u043a\u0438\u043d\u043e\u043f\u043e\u043a\u0430\u0437
p622
g6
((lp623
I128
aI336
aI84
aI378
aI380
aI127
atp624
Rp625
sVgala
p626
g6
((lp627
I261
aI519
atp628
Rp629
sV\u0434\u0435\u0442\u0441\u043a\u0438\u0439
p630
g6
((lp631
I550
aI329
aI330
aI492
aI77
aI78
atp632
Rp633
sV\u0442\u0440\u043e
p634
g6
((lp635
I485
aI239
atp636
Rp637
sV\u0438\u043d\u0434\u0438\u044f
p638
g6
((lp639
I82
aI334
atp640
Rp641
sVtrace
p642
g6
((lp643
I230
aI479
atp644
Rp645
sVukrainian
p646
g6
((lp647
I3
atp648
Rp649
sVwelle
p650
g6
((lp651
I57
aI305
atp652
Rp653
sVgeographic
p654
g6
((lp655
I314
aI62
atp656
Rp657
sV\u0442\u0435\u043d\u043d\u0438\u0441
p658
g6
((lp659
I212
aI462
atp660
Rp661
sV\u043e\u0442\u043d\u0438\u043a
p662
g6
((lp663
I186
aI430
atp664
Rp665
sVm
p666
g6
((lp667
I545
aI290
aI232
aI428
aI242
aI175
aI177
aI178
aI245
aI502
aI429
aI431
aI508
aI509
atp668
Rp669
sV\u0442\u043d\u0432
p670
g6
((lp671
I360
aI107
aI268
aI526
atp672
Rp673
sV\u043d\u0435\u0432\u0441\u043a\u0438\u0439
p674
g6
((lp675
I277
atp676
Rp677
sVrussian
p678
g6
((lp679
I398
aI143
atp680
Rp681
sV1_1
p682
g6
((lp683
I4
atp684
Rp685
sVfine
p686
g6
((lp687
I500
aI252
atp688
Rp689
sV\u043a1
p690
g6
((lp691
I31
atp692
Rp693
sV\u043a\u0438\u043d\u043e\u043b\u044e\u043a\u0441
p694
g6
((lp695
I224
aI473
atp696
Rp697
sV\u0436\u0438\u0432\u043e\u0442\u043d\u044b\u0435
p698
g6
((lp699
I371
aI119
atp700
Rp701
sV8
p702
g6
((lp703
I216
aI465
atp704
Rp705
sV\u043d\u044f
p706
g6
((lp707
I220
aI469
atp708
Rp709
sV\u0441\u0442\u0440\u0430\u0448\u043d\u043e\u0435
p710
g6
((lp711
I89
aI341
atp712
Rp713
sV\u0440
p714
g6
((lp715
I421
aI420
aI165
aI167
atp716
Rp717
sV\u0432\u043e\u043f\u0440\u043e\u0441\u044b
p718
g6
((lp719
I156
aI407
atp720
Rp721
sV\u043d\u043e
p722
g6
((lp723
I40
aI293
atp724
Rp725
sVmgm
p726
g6
((lp727
I61
aI269
atp728
Rp729
sVda
p730
g6
((lp731
I115
aI367
atp732
Rp733
sV\u043e\u0442\u0430
p734
g6
((lp735
I345
aI93
atp736
Rp737
sVgeo
p738
g6
((lp739
I388
aI134
atp740
Rp741
sVt\u0432
p742
g6
((lp743
I43
atp744
Rp745
sV\u0434\u0435\u0432\u044f\u0442\u044b\u0439
p746
g6
((lp747
I510
aI246
atp748
Rp749
sVnickelodeon
p750
g6
((lp751
I316
aI63
atp752
Rp753
sVx
p754
g6
((lp755
I261
aI519
aI324
aI140
aI403
aI405
aI153
aI413
aI416
aI33
aI162
aI293
aI40
aI298
aI171
aI44
aI174
aI310
aI56
aI186
aI315
aI445
aI321
aI195
aI68
aI69
aI289
aI72
aI396
aI338
aI469
aI86
aI544
aI345
aI220
aI93
aI481
aI231
aI368
aI369
aI116
aI117
aI430
atp756
Rp757
sV\u0442\u0443\u0440\u0438\u043d\u0444\u043e
p758
g6
((lp759
I200
aI442
atp760
Rp761
sVespn
p762
g6
((lp763
I307
aI52
atp764
Rp765
sV\u0441\u0435\u043c\u044c\u044f
p766
g6
((lp767
I541
atp768
Rp769
sVnational
p770
g6
((lp771
I314
aI62
atp772
Rp773
sV\u0442\u043e\u043d\u0438\u0441
p774
g6
((lp775
I16
atp776
Rp777
sV\u043c\u0438\u043d\u043e\u0440
p778
g6
((lp779
I249
aI490
atp780
Rp781
sVsport
p782
g6
((lp783
I155
aI406
atp784
Rp785
sV\u043c\u0430\u0442\u044c
p786
g6
((lp787
I339
aI87
atp788
Rp789
sVma\u043a\u0441i
p790
g6
((lp791
I43
atp792
Rp793
sV3
p794
g6
((lp795
I538
aI283
atp796
Rp797
sV\u043b
p798
g6
((lp799
I195
aI445
atp800
Rp801
sV365
p802
g6
((lp803
I472
aI223
atp804
Rp805
sV\u0440\u0430\u0434\u043e\u0441\u0442\u044c
p806
g6
((lp807
I347
aI95
atp808
Rp809
sVdiscovery
p810
g6
((lp811
I450
aI199
aI265
aI523
aI306
aI303
aI304
aI49
aI50
aI51
aI373
aI121
atp812
Rp813
sVeuropa
p814
g6
((lp815
I203
aI453
atp816
Rp817
sVnature
p818
g6
((lp819
I387
aI133
atp820
Rp821
sV\u0436\u0438\u0432\u0438
p822
g6
((lp823
I448
aI197
atp824
Rp825
sVjr
p826
g6
((lp827
I256
aI514
atp828
Rp829
sV\u043a\u0442\u043e_\u043a\u0442\u043e
p830
g6
((lp831
I412
aI159
atp832
Rp833
sV\u0434\u043e\u043c\u0430\u0448\u043d\u0438\u0435
p834
g6
((lp835
I371
aI119
atp836
Rp837
sV\u044d\u043a\u0441\u043f\u0435\u0440\u0442
p838
g6
((lp839
I363
aI111
atp840
Rp841
sV\u0434\u043e\u043c\u0430\u0448\u043d\u0438\u0439
p842
g6
((lp843
I277
aI534
atp844
Rp845
sV\u0442\u0435\u043b\u0435\u043f\u0443\u0442\u0435\u0448\u0435\u0441
p846
g6
((lp847
I105
aI358
atp848
Rp849
sVc
p850
g6
((lp851
I379
aI135
atp852
Rp853
sV\u043c\u0435\u0433\u0430
p854
g6
((lp855
I17
atp856
Rp857
sVtlc
p858
g6
((lp859
I433
aI182
atp860
Rp861
sVs
p862
g6
((lp863
I248
aI489
atp864
Rp865
sVrusong
p866
g6
((lp867
I193
aI437
atp868
Rp869
sV\u043a\u0438\u043d\u043e\u0441\u043e\u044e\u0437
p870
g6
((lp871
I337
aI85
atp872
Rp873
sVpop
p874
g6
((lp875
I408
aI166
atp876
Rp877
sVx_x
p878
g6
((lp879
I321
aI68
atp880
Rp881
sVmezzo
p882
g6
((lp883
I313
aI130
aI60
aI383
atp884
Rp885
sVeurosport
p886
g6
((lp887
I194
aI444
aI309
aI55
atp888
Rp889
sV\u0440\u0431\u043a
p890
g6
((lp891
I96
aI349
atp892
Rp893
sVbbc
p894
g6
((lp895
I554
aI114
aI366
aI301
aI498
aI53
atp896
Rp897
sV\u0442\u043e\u043d\u0443\u0441
p898
g6
((lp899
I419
aI164
atp900
Rp901
sVlife
p902
g6
((lp903
I295
aI42
aI369
aI117
aI471
aI222
atp904
Rp905
sV\u0443\u0441\u043f\u0435
p906
g6
((lp907
I153
aI403
atp908
Rp909
sV\u0443\u043a\u0440\u0430\u0438\u043d\u0430
p910
g6
((lp911
I11
aI2
aI3
aI12
atp912
Rp913
sVvinci
p914
g6
((lp915
I115
aI367
atp916
Rp917
sVhits
p918
g6
((lp919
I177
aI429
atp920
Rp921
sV\u043f\u0440\u043e\u0441\u0432\u0435\u0449\u0435\u043d\u0438\u0435
p922
g6
((lp923
I505
aI236
atp924
Rp925
sV\u0444\u0443\u0442\u0431\u043e\u043b
p926
g6
((lp927
I390
aI457
aI459
aI207
aI209
aI214
aI26
aI463
aI28
atp928
Rp929
sVn
p930
g6
((lp931
I298
aI44
atp932
Rp933
sVwild
p934
g6
((lp935
I388
aI134
atp936
Rp937
sVguide
p938
g6
((lp939
I398
aI143
atp940
Rp941
sS'(6)'
p942
g6
((lp943
I456
aI457
aI298
aI460
aI430
aI463
aI407
aI345
atp944
Rp945
sV\u0435\u0432\u0440\u043e\u043a\u0438\u043d\u043e
p946
g6
((lp947
I120
aI372
atp948
Rp949
sV\u043a
p950
g6
((lp951
I195
aI445
atp952
Rp953
sV\u0446\u0435\u043d\u0442\u0440
p954
g6
((lp955
I272
aI529
aI38
atp956
Rp957
sVmotors
p958
g6
((lp959
I229
aI477
atp960
Rp961
sV\u044d\u043a\u0441\u0442\u0440\u0438\u043c
p962
g6
((lp963
I98
aI351
atp964
Rp965
sVic
p966
g6
((lp967
I7
atp968
Rp969
sV\u0441\u0442\u0431
p970
g6
((lp971
I6
atp972
Rp973
sVfo
p974
g6
((lp975
I368
aI369
aI116
aI117
atp976
Rp977
sV\u0441\u0442\u043e
p978
g6
((lp979
I284
atp980
Rp981
sVeuropean
p982
g6
((lp983
I509
aI245
aI206
aI447
atp984
Rp985
sV\u0441
p986
g6
((lp987
I410
aI157
atp988
Rp989
sV\u0441\u0442\u0441
p990
g6
((lp991
I34
aI535
aI279
atp992
Rp993
sV\u0432\u043a\u0442
p994
g6
((lp995
I539
atp996
Rp997
sS'(4)'
p998
g6
((lp999
I387
aI388
aI519
aI523
aI140
aI398
aI401
aI410
aI412
aI413
aI544
aI162
aI165
aI167
aI40
aI428
aI429
aI431
aI438
aI56
aI315
aI445
aI321
aI67
aI72
aI208
aI209
aI338
aI339
aI212
aI341
aI343
aI481
aI358
aI362
aI492
aI509
aI369
aI211
aI500
aI502
aI511
aI508
aI253
aI469
atp1000
Rp1001
sV\u043e\u0442\u043a\u0440\u044b\u0442\u044b\u0439
p1002
g6
((lp1003
I432
aI188
atp1004
Rp1005
sVa
p1006
g6
((lp1007
I185
aI298
aI436
aI44
atp1008
Rp1009
sVbloomberg
p1010
g6
((lp1011
I299
aI45
atp1012
Rp1013
sV\u0432\u043e\u0441\u0442\u043e\u0447\u043d\u0430\u044f
p1014
g6
((lp1015
I265
aI523
atp1016
Rp1017
sVcartoon
p1018
g6
((lp1019
I300
aI46
atp1020
Rp1021
sViconcerts
p1022
g6
((lp1023
I264
aI522
atp1024
Rp1025
sVi
p1026
g6
((lp1027
I112
aI321
aI18
aI68
aI253
atp1028
Rp1029
sVocean
p1030
g6
((lp1031
I64
aI317
atp1032
Rp1033
sV\u043e\u0440\u0431\u0438\u0442\u0430
p1034
g6
((lp1035
I510
aI246
atp1036
Rp1037
sVenglish
p1038
g6
((lp1039
I385
aI141
atp1040
Rp1041
sVy
p1042
g6
((lp1043
I261
aI519
atp1044
Rp1045
sV\u043d\u043e\u0432\u043e\u0435
p1046
g6
((lp1047
I91
aI343
atp1048
Rp1049
sVoutdoor
p1050
g6
((lp1051
I204
aI455
atp1052
Rp1053
sV\u0434\u043e\u0436\u0434\u044c
p1054
g6
((lp1055
I397
aI142
atp1056
Rp1057
sV\u0448\u0430\u043d\u0441\u043e\u043d
p1058
g6
((lp1059
I201
aI451
atp1060
Rp1061
sV\u043a\u043e\u043c\u0435\u0434\u0438\u044f
p1062
g6
((lp1063
I219
aI468
atp1064
Rp1065
sVgulli
p1066
g6
((lp1067
I370
aI118
atp1068
Rp1069
sVviasat
p1070
g6
((lp1071
I387
aI324
aI133
aI72
aI73
aI406
aI155
aI325
atp1072
Rp1073
sVreality
p1074
g6
((lp1075
I497
aI553
atp1076
Rp1077
sV\u043d\u0435\u0434\u0432\u0438\u0436\u0438\u043c\u043e\u0441\u0442\u044c
p1078
g6
((lp1079
I179
aI422
atp1080
Rp1081
sV\u0440\u0435\u043d
p1082
g6
((lp1083
I0
aI278
atp1084
Rp1085
sVjimjam
p1086
g6
((lp1087
I123
aI374
atp1088
Rp1089
sVtiji
p1090
g6
((lp1091
I426
aI172
atp1092
Rp1093
sV5
p1094
g6
((lp1095
I280
aI9
aI322
aI70
atp1096
Rp1097
sV\u0441\u043e\u0432\u0435\u0440\u0448\u0435\u043d\u043d\u043e
p1098
g6
((lp1099
I424
aI169
atp1100
Rp1101
sV\u0434\u043e\u0432\u0435\u0440\u0438\u0435
p1102
g6
((lp1103
I540
atp1104
Rp1105
sVbiz
p1106
g6
((lp1107
I555
aI499
atp1108
Rp1109
sVworld
p1110
g6
((lp1111
I259
aI454
aI326
aI74
aI517
aI301
aI306
aI51
aI53
aI213
atp1112
Rp1113
sV\u0434\u043e\u0431\u0440\u043e
p1114
g6
((lp1115
I2
atp1116
Rp1117
sV\u0442\u0435\u043b\u0435\u043a\u0430\u043d\u0430\u043b
p1118
g6
((lp1119
I250
aI29
aI511
atp1120
Rp1121
sV\u044e\u043c\u043e\u0440
p1122
g6
((lp1123
I481
aI231
atp1124
Rp1125
sV\u0442\u0435
p1126
g6
((lp1127
I40
aI293
atp1128
Rp1129
sV\u0442\u0432
p1130
g6
((lp1131
I272
aI273
aI18
aI407
aI461
aI283
aI156
aI285
aI538
aI420
aI165
aI39
aI456
aI457
aI458
aI459
aI460
aI205
aI462
aI207
aI208
aI209
aI210
aI211
aI212
aI214
aI463
aI421
aI355
aI358
aI105
aI167
aI530
aI110
atp1132
Rp1133
sV\u0435\u0441\u0442\u044c
p1134
g6
((lp1135
I412
aI159
atp1136
Rp1137
sV\u0430\u0441\u0442\u0440\u043e
p1138
g6
((lp1139
I512
aI251
atp1140
Rp1141
sV\u0448\u043a\u043e\u043b\u044c\u043d\u0438\u043a
p1142
g6
((lp1143
I549
atp1144
Rp1145
sVsyfy
p1146
g6
((lp1147
I65
aI318
atp1148
Rp1149
sV\u0440\u043e\u0441\u0441\u0438\u044f
p1150
g6
((lp1151
I512
aI513
aI514
aI515
aI516
aI517
aI518
aI519
aI520
aI521
aI522
aI523
aI524
aI525
aI526
aI527
aI528
aI531
aI532
aI533
aI536
aI537
aI538
aI30
aI543
aI544
aI545
aI547
aI548
aI37
aI550
aI551
aI552
aI553
aI554
aI555
aI556
aI253
aI254
aI269
aI271
aI275
aI278
aI280
aI287
aI293
aI294
aI295
aI296
aI297
aI298
aI299
aI300
aI301
aI302
aI303
aI304
aI305
aI306
aI307
aI308
aI309
aI310
aI311
aI312
aI313
aI314
aI315
aI316
aI317
aI318
aI319
aI320
aI321
aI322
aI323
aI324
aI325
aI326
aI327
aI328
aI329
aI330
aI331
aI332
aI333
aI334
aI335
aI336
aI337
aI338
aI339
aI340
aI341
aI342
aI343
aI344
aI345
aI346
aI347
aI348
aI349
aI350
aI351
aI352
aI353
aI354
aI355
aI356
aI357
aI358
aI359
aI360
aI361
aI362
aI363
aI364
aI365
aI366
aI367
aI368
aI369
aI370
aI371
aI372
aI373
aI374
aI375
aI376
aI377
aI378
aI379
aI380
aI381
aI382
aI383
aI384
aI385
aI386
aI387
aI388
aI389
aI390
aI391
aI392
aI393
aI394
aI395
aI396
aI397
aI398
aI399
aI400
aI401
aI402
aI403
aI404
aI405
aI406
aI407
aI408
aI409
aI410
aI411
aI412
aI413
aI414
aI415
aI416
aI417
aI418
aI419
aI420
aI421
aI422
aI423
aI424
aI425
aI426
aI427
aI428
aI429
aI430
aI431
aI432
aI433
aI434
aI435
aI436
aI437
aI438
aI439
aI440
aI441
aI442
aI443
aI444
aI445
aI446
aI447
aI448
aI449
aI450
aI451
aI452
aI453
aI454
aI455
aI456
aI457
aI458
aI459
aI460
aI461
aI462
aI463
aI464
aI465
aI466
aI467
aI468
aI469
aI470
aI471
aI472
aI473
aI474
aI475
aI476
aI477
aI478
aI479
aI480
aI481
aI482
aI483
aI484
aI485
aI486
aI487
aI488
aI489
aI490
aI491
aI495
aI500
aI501
aI502
aI503
aI504
aI505
aI507
aI508
aI509
aI510
aI511
atp1152
Rp1153
sV\u0437\u0432\u0435\u0437\u0434\u0430
p1154
g6
((lp1155
I536
aI281
atp1156
Rp1157
sVcnn
p1158
g6
((lp1159
I302
aI47
atp1160
Rp1161
sV\u043b\u044f
p1162
g6
((lp1163
I249
aI490
atp1164
Rp1165
sVtdk
p1166
g6
((lp1167
I425
aI170
atp1168
Rp1169
sV\u0434\u0438\u0442\u044f
p1170
g6
((lp1171
I339
aI87
atp1172
Rp1173
sVbusiness
p1174
g6
((lp1175
I227
aI476
atp1176
Rp1177
sVbo
p1178
g6
((lp1179
I481
aI231
atp1180
Rp1181
sV\u0434\u0435\u043b\u043e\u0432\u043e\u0439
p1182
g6
((lp1183
I24
atp1184
Rp1185
sV\u0440\u044b\u0431\u0430\u043b\u043a\u0430
p1186
g6
((lp1187
I345
aI93
atp1188
Rp1189
sV\u0443\u0441\u0430\u0434\u044c\u0431\u0430
p1190
g6
((lp1191
I361
aI108
atp1192
Rp1193
sVo
p1194
g6
((lp1195
I22
atp1196
Rp1197
sVdrama
p1198
g6
((lp1199
I496
aI552
atp1200
Rp1201
sV\u0432\u0441\u0435
p1202
g6
((lp1203
I483
aI237
atp1204
Rp1205
sVplus
p1206
g6
((lp1207
I203
aI453
atp1208
Rp1209
sV\u043a\u0438\u043d\u043e\u043c\u0430\u043d\u0438\u044f
p1210
g6
((lp1211
I376
aI125
atp1212
Rp1213
sV\u0431\u0435\u043b\u0430\u0440\u0443\u0441\u044c
p1214
g6
((lp1215
I228
aI478
atp1216
Rp1217
sV\u043e2
p1218
g6
((lp1219
I355
aI110
atp1220
Rp1221
sV\u0438\u043b\u043b\u044e\u0437\u0438\u043e\u043d
p1222
g6
((lp1223
I81
aI333
aI350
aI97
atp1224
Rp1225
sVsports
p1226
g6
((lp1227
I56
aI310
atp1228
Rp1229
sVnewsone
p1230
g6
((lp1231
I181
aI423
atp1232
Rp1233
sVvh1
p1234
g6
((lp1235
I154
aI404
aI206
aI447
atp1236
Rp1237
sV\u0442\u0435\u043b\u0435\u043a\u0430\u0444\u0435
p1238
g6
((lp1239
I356
aI102
atp1240
Rp1241
sS'(1)'
p1242
g6
((lp1243
I0
aI1
aI5
aI6
aI8
aI9
aI10
aI11
aI13
aI16
aI17
aI19
aI529
aI22
aI535
aI25
aI26
aI27
aI541
aI542
aI31
aI32
aI35
aI549
aI45
aI47
aI48
aI49
aI54
aI58
aI59
aI60
aI61
aI63
aI64
aI65
aI71
aI75
aI76
aI77
aI80
aI82
aI83
aI84
aI85
aI92
aI94
aI96
aI99
aI100
aI102
aI103
aI106
aI107
aI108
aI111
aI114
aI118
aI120
aI122
aI123
aI124
aI125
aI126
aI129
aI132
aI534
aI136
aI137
aI142
aI147
aI148
aI158
aI160
aI163
aI164
aI170
aI172
aI173
aI179
aI180
aI181
aI182
aI189
aI190
aI191
aI192
aI193
aI194
aI196
aI197
aI200
aI202
aI204
aI215
aI216
aI217
aI218
aI219
aI222
aI223
aI224
aI229
aI233
aI234
aI235
aI236
aI238
aI239
aI240
aI241
aI243
aI244
aI247
aI251
aI257
aI262
aI263
aI264
aI266
aI267
aI274
aI276
aI281
aI282
aI284
aI288
aI291
aI292
aI539
aI494
aI506
atp1244
Rp1245
sV\u043a\u0430\u0440\u0443\u0441\u0435\u043b\u044c
p1246
g6
((lp1247
I288
aI146
aI543
atp1248
Rp1249
sV\u0430\u0432\u0442\u043e
p1250
g6
((lp1251
I221
aI470
atp1252
Rp1253
sV\u0437\u0430\u0433\u043e\u0440\u043e\u0434\u043d\u0430\u044f
p1254
g6
((lp1255
I161
aI415
atp1256
Rp1257
sV\u0434\u043e\u043c
p1258
g6
((lp1259
I331
aI79
atp1260
Rp1261
sV\u0434\u043e\u043a
p1262
g6
((lp1263
I113
aI364
atp1264
Rp1265
sVinfo
p1266
g6
((lp1267
I501
aI151
atp1268
Rp1269
sV\u0440\u043e\u0441\u0441\u0438\u044f_\u0440\u043e\u0441\u0441\u0438\u044f
p1270
g6
((lp1271
I528
aI532
aI287
atp1272
Rp1273
sVplanet
p1274
g6
((lp1275
I297
aI14
atp1276
Rp1277
sV\u0440\u0443\u0441\u0441\u043a\u043e\u0435
p1278
g6
((lp1279
I320
aI67
atp1280
Rp1281
sVboomerang
p1282
g6
((lp1283
I266
aI524
atp1284
Rp1285
sVcnbc
p1286
g6
((lp1287
I137
aI381
atp1288
Rp1289
sVab
p1290
g6
((lp1291
I41
aI294
atp1292
Rp1293
sVmyzen
p1294
g6
((lp1295
I176
aI418
atp1296
Rp1297
sVclassic
p1298
g6
((lp1299
I404
aI154
aI307
aI52
atp1300
Rp1301
sVint
p1302
g6
((lp1303
I146
atp1304
Rp1305
sV\u043f\u043e\u0434\u043c\u043e\u0441\u043a\u043e\u0432\u044c\u0435
p1306
g6
((lp1307
I542
atp1308
Rp1309
sVuniversal
p1310
g6
((lp1311
I449
aI323
aI198
aI71
atp1312
Rp1313
sV\u0436\u0438\u0437\u043d\u044c
p1314
g6
((lp1315
I161
aI415
atp1316
Rp1317
sVmcm
p1318
g6
((lp1319
I168
aI408
aI166
aI409
atp1320
Rp1321
sVcbs
p1322
g6
((lp1323
I496
aI497
aI553
aI552
atp1324
Rp1325
sVkidsco
p1326
g6
((lp1327
I124
aI375
atp1328
Rp1329
sV\u0443\u043b\u044b\u0431\u043a\u0430
p1330
g6
((lp1331
I152
aI402
atp1332
Rp1333
sV\u043d\u0430\u0443\u043a\u0430
p1334
g6
((lp1335
I187
aI438
atp1336
Rp1337
sVnick
p1338
g6
((lp1339
I256
aI514
atp1340
Rp1341
sVzoo\u043f\u0430\u0440\u043a
p1342
g6
((lp1343
I189
aI439
atp1344
Rp1345
sVnat
p1346
g6
((lp1347
I388
aI134
atp1348
Rp1349
sV\u043d\u0430\u0446\u0438\u043e\u043d\u0430\u043b\u044c\u043d\u044b\u0439
p1350
g6
((lp1351
I12
atp1352
Rp1353
sV\u043d
p1354
g6
((lp1355
I530
aI39
aI456
aI457
aI458
aI459
aI273
aI205
aI462
aI207
aI208
aI209
aI210
aI211
aI212
aI214
aI461
aI463
aI460
atp1356
Rp1357
sV\u043d\u0430\u043d\u043e
p1358
g6
((lp1359
I241
aI507
atp1360
Rp1361
sVliving
p1362
g6
((lp1363
I500
aI252
atp1364
Rp1365
sV\u0431\u043e\u0435\u0446
p1366
g6
((lp1367
I75
aI327
atp1368
Rp1369
sV\u0435\u0442\u044b
p1370
g6
((lp1371
I156
aI407
atp1372
Rp1373
sV\u043d\u0442\u043d
p1374
g6
((lp1375
I10
atp1376
Rp1377
sVe
p1378
g6
((lp1379
I162
aI324
aI69
aI72
aI405
aI310
aI56
aI315
atp1380
Rp1381
sV\u043d\u0430\u0448\u0435
p1382
g6
((lp1383
I421
aI167
aI342
aI343
aI90
aI91
atp1384
Rp1385
sV\u043c\u0438\u0440
p1386
g6
((lp1387
I384
aI131
aI196
aI550
aI39
aI330
aI492
aI78
aI432
aI188
aI446
atp1388
Rp1389
sV\u0431\u0430\u0441\u043a\u0435\u0442\u0431\u043e\u043b
p1390
g6
((lp1391
I211
aI461
atp1392
Rp1393
sV\u043d\u043e\u0432\u044b\u0439
p1394
g6
((lp1395
I8
atp1396
Rp1397
sVajara
p1398
g6
((lp1399
I48
aI296
atp1400
Rp1401
sV\u043f\u0435\u0440\u0435\u0446
p1402
g6
((lp1403
I537
aI282
atp1404
Rp1405
sV\u0442\u043d\u0442
p1406
g6
((lp1407
I276
aI533
atp1408
Rp1409
ssS'__channel_objects__'
p1410
(dp1411
I0
ccopy_reg
_reconstructor
p1412
(cchannel_cache
Channel
p1413
c__builtin__
object
p1414
Ntp1415
Rp1416
(dp1417
S'image_url'
p1418
Vhttp://avatars.yandex.net/get-tv-shows/1333713588740M9764/orig
p1419
sS'name'
p1420
V\u0420\u0415\u041d \u0422\u0412
p1421
sS'info_url'
p1422
Vhttp://tv.yandex.ua/187/channels/689
p1423
sS'id'
p1424
I0
sbsI1
g1412
(g1413
g1414
Ntp1425
Rp1426
(dp1427
g1418
Vhttp://avatars.yandex.net/get-tv-channel-logos/1356612144844M65707/orig
p1428
sg1420
V\u041f\u0438\u043a\u0441\u0435\u043b\u044c
p1429
sg1422
Vhttp://tv.yandex.ua/187/channels/940
p1430
sg1424
I1
sbsI2
g1412
(g1413
g1414
Ntp1431
Rp1432
(dp1433
g1418
Nsg1420
V\u0414\u043e\u0431\u0440\u043e \u0422\u0412 (\u0423\u043a\u0440\u0430\u0438\u043d\u0430)
p1434
sg1422
Vhttp://tv.yandex.ua/187/channels/937
p1435
sg1424
I2
sbsI3
g1412
(g1413
g1414
Ntp1436
Rp1437
(dp1438
g1418
Vhttp://avatars.yandex.net/get-tv-channel-logos/1357919708763M31170/orig
p1439
sg1420
VUkrainian Fashion (\u0423\u043a\u0440\u0430\u0438\u043d\u0430)
p1440
sg1422
Vhttp://tv.yandex.ua/187/channels/939
p1441
sg1424
I3
sbsI4
g1412
(g1413
g1414
Ntp1442
Rp1443
(dp1444
g1418
Vhttp://avatars.yandex.net/get-tv-shows/1333715806060M27456/orig
p1445
sg1420
V1+1
p1446
sg1422
Vhttp://tv.yandex.ua/187/channels/620
p1447
sg1424
I4
sbsI5
g1412
(g1413
g1414
Ntp1448
Rp1449
(dp1450
g1418
Vhttp://avatars.yandex.net/get-tv-shows/1333712760038M4940/orig
p1451
sg1420
V\u0418\u043d\u0442\u0435\u0440
p1452
sg1422
Vhttp://tv.yandex.ua/187/channels/677
p1453
sg1424
I5
sbsI6
g1412
(g1413
g1414
Ntp1454
Rp1455
(dp1456
g1418
Vhttp://avatars.yandex.net/get-tv-channel-logos/1336200135761M53389/orig
p1457
sg1420
V\u0421\u0422\u0411
p1458
sg1422
Vhttp://tv.yandex.ua/187/channels/670
p1459
sg1424
I6
sbsI7
g1412
(g1413
g1414
Ntp1460
Rp1461
(dp1462
g1418
Vhttp://avatars.yandex.net/get-tv-shows/1333715667706M25067/orig
p1463
sg1420
VICTV
p1464
sg1422
Vhttp://tv.yandex.ua/187/channels/709
p1465
sg1424
I7
sbsI8
g1412
(g1413
g1414
Ntp1466
Rp1467
(dp1468
g1418
Vhttp://avatars.yandex.net/get-tv-shows/1333715224166M18872/orig
p1469
sg1420
V\u041d\u043e\u0432\u044b\u0439 \u043a\u0430\u043d\u0430\u043b
p1470
sg1422
Vhttp://tv.yandex.ua/187/channels/128
p1471
sg1424
I8
sbsI9
g1412
(g1413
g1414
Ntp1472
Rp1473
(dp1474
g1418
Vhttp://avatars.yandex.net/get-tv-shows/1333713186198M12220/orig
p1475
sg1420
V5 \u043a\u0430\u043d\u0430\u043b
p1476
sg1422
Vhttp://tv.yandex.ua/187/channels/586
p1477
sg1424
I9
sbsI10
g1412
(g1413
g1414
Ntp1478
Rp1479
(dp1480
g1418
Vhttp://avatars.yandex.net/get-tv-shows/1333715590594M58125/orig
p1481
sg1420
V\u041d\u0422\u041d
p1482
sg1422
Vhttp://tv.yandex.ua/187/channels/140
p1483
sg1424
I10
sbsI11
g1412
(g1413
g1414
Ntp1484
Rp1485
(dp1486
g1418
Vhttp://avatars.yandex.net/get-tv-channel-logos/1334666594849M22949/orig
p1487
sg1420
V\u0423\u043a\u0440\u0430\u0438\u043d\u0430
p1488
sg1422
Vhttp://tv.yandex.ua/187/channels/326
p1489
sg1424
I11
sbsI12
g1412
(g1413
g1414
Ntp1490
Rp1491
(dp1492
g1418
Vhttp://avatars.yandex.net/get-tv-shows/1333708395005M37754/orig
p1493
sg1420
V\u041f\u0435\u0440\u0432\u044b\u0439 \u043d\u0430\u0446\u0438\u043e\u043d\u0430\u043b\u044c\u043d\u044b\u0439 \u0423\u043a\u0440\u0430\u0438\u043d\u0430
p1494
sg1422
Vhttp://tv.yandex.ua/187/channels/773
p1495
sg1424
I12
sbsI13
g1412
(g1413
g1414
Ntp1496
Rp1497
(dp1498
g1418
Vhttp://avatars.yandex.net/get-tv-shows/1333715776098M80324/orig
p1499
sg1420
V\u041c1
p1500
sg1422
Vhttp://tv.yandex.ua/187/channels/632
p1501
sg1424
I13
sbsI14
g1412
(g1413
g1414
Ntp1502
Rp1503
(dp1504
g1418
Vhttp://avatars.yandex.net/get-tv-shows/1333715963968M59749/orig
p1505
sg1420
VAnimal Planet
p1506
sg1422
Vhttp://tv.yandex.ua/187/channels/607
p1507
sg1424
I14
sbsI15
g1412
(g1413
g1414
Ntp1508
Rp1509
(dp1510
g1418
Vhttp://avatars.yandex.net/get-tv-shows/1333712959005M39465/orig
p1511
sg1420
V2+2
p1512
sg1422
Vhttp://tv.yandex.ua/187/channels/583
p1513
sg1424
I15
sbsI16
g1412
(g1413
g1414
Ntp1514
Rp1515
(dp1516
g1418
Vhttp://avatars.yandex.net/get-tv-channel-logos/1334667568769M76050/orig
p1517
sg1420
V\u0422\u043e\u043d\u0438\u0441
p1518
sg1422
Vhttp://tv.yandex.ua/187/channels/627
p1519
sg1424
I16
sbsI17
g1412
(g1413
g1414
Ntp1520
Rp1521
(dp1522
g1418
Vhttp://avatars.yandex.net/get-tv-shows/1333715678544M95135/orig
p1523
sg1420
V\u0422\u041a \u041c\u0435\u0433\u0430
p1524
sg1422
Vhttp://tv.yandex.ua/187/channels/788
p1525
sg1424
I17
sbsI18
g1412
(g1413
g1414
Ntp1526
Rp1527
(dp1528
g1418
Vhttp://avatars.yandex.net/get-tv-shows/1333713949080M46069/orig
p1529
sg1420
V\u0422\u0412i
p1530
sg1422
Vhttp://tv.yandex.ua/187/channels/650
p1531
sg1424
I18
sbsI19
g1412
(g1413
g1414
Ntp1532
Rp1533
(dp1534
g1418
Vhttp://avatars.yandex.net/get-tv-shows/1333712652761M79477/orig
p1535
sg1420
V\u041a\u0438\u0435\u0432
p1536
sg1422
Vhttp://tv.yandex.ua/187/channels/634
p1537
sg1424
I19
sbsI20
g1412
(g1413
g1414
Ntp1538
Rp1539
(dp1540
g1418
Vhttp://avatars.yandex.net/get-tv-channel-logos/1334667359799M65057/orig
p1541
sg1420
V\u041f\u0435\u0440\u0432\u044b\u0439 \u0430\u0432\u0442\u043e\u043c\u043e\u0431\u0438\u043b\u044c\u043d\u044b\u0439
p1542
sg1422
Vhttp://tv.yandex.ua/187/channels/507
p1543
sg1424
I20
sbsI21
g1412
(g1413
g1414
Ntp1544
Rp1545
(dp1546
g1418
Vhttp://avatars.yandex.net/get-tv-shows/1333716835613M81770/orig
p1547
sg1420
VEnter-\u0444\u0438\u043b\u044c\u043c
p1548
sg1422
Vhttp://tv.yandex.ua/187/channels/281
p1549
sg1424
I21
sbsI22
g1412
(g1413
g1414
Ntp1550
Rp1551
(dp1552
g1418
Vhttp://avatars.yandex.net/get-tv-shows/1333715641594M53127/orig
p1553
sg1420
VO-TV
p1554
sg1422
Vhttp://tv.yandex.ua/187/channels/167
p1555
sg1424
I22
sbsI23
g1412
(g1413
g1414
Ntp1556
Rp1557
(dp1558
g1418
Vhttp://avatars.yandex.net/get-tv-shows/1333715284079M99947/orig
p1559
sg1420
V\u0418\u043d\u0442\u0435\u0440+
p1560
sg1422
Vhttp://tv.yandex.ua/187/channels/808
p1561
sg1424
I23
sbsI24
g1412
(g1413
g1414
Ntp1562
Rp1563
(dp1564
g1418
Vhttp://avatars.yandex.net/get-tv-channel-logos/1334666928508M51216/orig
p1565
sg1420
V\u041f\u0435\u0440\u0432\u044b\u0439 \u0434\u0435\u043b\u043e\u0432\u043e\u0439
p1566
sg1422
Vhttp://tv.yandex.ua/187/channels/85
p1567
sg1424
I24
sbsI25
g1412
(g1413
g1414
Ntp1568
Rp1569
(dp1570
g1418
Vhttp://avatars.yandex.net/get-tv-channel-logos/1334667133239M67794/orig
p1571
sg1420
V\u0422\u0415\u0422
p1572
sg1422
Vhttp://tv.yandex.ua/187/channels/479
p1573
sg1424
I25
sbsI26
g1412
(g1413
g1414
Ntp1574
Rp1575
(dp1576
g1418
Vhttp://avatars.yandex.net/get-tv-channel-logos/1357914650300M76133/orig
p1577
sg1420
V\u0424\u0443\u0442\u0431\u043e\u043b
p1578
sg1422
Vhttp://tv.yandex.ua/187/channels/666
p1579
sg1424
I26
sbsI27
g1412
(g1413
g1414
Ntp1580
Rp1581
(dp1582
g1418
Vhttp://avatars.yandex.net/get-tv-shows/1333716077131M91231/orig
p1583
sg1420
V\u0422\u0420\u041a \u0414\u043e\u043d\u0431\u0430\u0441\u0441
p1584
sg1422
Vhttp://tv.yandex.ua/187/channels/641
p1585
sg1424
I27
sbsI28
g1412
(g1413
g1414
Ntp1586
Rp1587
(dp1588
g1418
Vhttp://avatars.yandex.net/get-tv-channel-logos/1357914614690M92867/orig
p1589
sg1420
V\u0424\u0443\u0442\u0431\u043e\u043b+
p1590
sg1422
Vhttp://tv.yandex.ua/187/channels/753
p1591
sg1424
I28
sbsI29
g1412
(g1413
g1414
Ntp1592
Rp1593
(dp1594
g1418
Vhttp://avatars.yandex.net/get-tv-shows/1333713946027M27822/orig
p1595
sg1420
V34 \u0442\u0435\u043b\u0435\u043a\u0430\u043d\u0430\u043b
p1596
sg1422
Vhttp://tv.yandex.ua/187/channels/561
p1597
sg1424
I29
sbsI30
g1412
(g1413
g1414
Ntp1598
Rp1599
(dp1600
g1418
Vhttp://avatars.yandex.net/get-tv-shows/1333715233642M2369/orig
p1601
sg1420
V\u0420\u043e\u0441\u0441\u0438\u044f 24
p1602
sg1422
Vhttp://tv.yandex.ua/187/channels/291
p1603
sg1424
I30
sbsI31
g1412
(g1413
g1414
Ntp1604
Rp1605
(dp1606
g1418
Vhttp://avatars.yandex.net/get-tv-shows/1333713201452M27295/orig
p1607
sg1420
V\u041a1
p1608
sg1422
Vhttp://tv.yandex.ua/187/channels/453
p1609
sg1424
I31
sbsI32
g1412
(g1413
g1414
Ntp1610
Rp1611
(dp1612
g1418
Vhttp://avatars.yandex.net/get-tv-shows/1333715921518M78285/orig
p1613
sg1420
V\u0422\u0420\u041a \u042e\u043d\u0438\u043e\u043d
p1614
sg1422
Vhttp://tv.yandex.ua/187/channels/90
p1615
sg1424
I32
sbsI33
g1412
(g1413
g1414
Ntp1616
Rp1617
(dp1618
g1418
Vhttp://avatars.yandex.net/get-tv-shows/1333716890872M95176/orig
p1619
sg1420
V\u0425\u043e\u043a\u043a\u0435\u0439
p1620
sg1422
Vhttp://tv.yandex.ua/187/channels/702
p1621
sg1424
I33
sbsI34
g1412
(g1413
g1414
Ntp1622
Rp1623
(dp1624
g1418
Vhttp://avatars.yandex.net/get-tv-channel-logos/1348142097301M59393/orig
p1625
sg1420
V\u0421\u0422\u0421 International
p1626
sg1422
Vhttp://tv.yandex.ua/187/channels/166
p1627
sg1424
I34
sbsI35
g1412
(g1413
g1414
Ntp1628
Rp1629
(dp1630
g1418
Vhttp://avatars.yandex.net/get-tv-shows/1333715379889M58608/orig
p1631
sg1420
V\u041f\u0435\u0440\u0432\u044b\u0439
p1632
sg1422
Vhttp://tv.yandex.ua/187/channels/391
p1633
sg1424
I35
sbsI36
g1412
(g1413
g1414
Ntp1634
Rp1635
(dp1636
g1418
Vhttp://avatars.yandex.net/get-tv-shows/1333709125468M55872/orig
p1637
sg1420
VQTV
p1638
sg1422
Vhttp://tv.yandex.ua/187/channels/280
p1639
sg1424
I36
sbsI37
g1412
(g1413
g1414
Ntp1640
Rp1641
(dp1642
g1418
Vhttp://avatars.yandex.net/get-tv-shows/1333718316371M58959/orig
p1643
sg1420
V\u0420\u043e\u0441\u0441\u0438\u044f-\u041f\u043b\u0430\u043d\u0435\u0442\u0430
p1644
sg1422
Vhttp://tv.yandex.ua/187/channels/143
p1645
sg1424
I37
sbsI38
g1412
(g1413
g1414
Ntp1646
Rp1647
(dp1648
g1418
Vhttp://avatars.yandex.net/get-tv-shows/1333713805411M63113/orig
p1649
sg1420
V\u0422\u0412 \u0426\u0435\u043d\u0442\u0440-International
p1650
sg1422
Vhttp://tv.yandex.ua/187/channels/435
p1651
sg1424
I38
sbsI39
g1412
(g1413
g1414
Ntp1652
Rp1653
(dp1654
g1418
Vhttp://avatars.yandex.net/get-tv-shows/1333709186098M48833/orig
p1655
sg1420
V\u041d\u0422\u0412-\u041c\u0438\u0440
p1656
sg1422
Vhttp://tv.yandex.ua/187/channels/422
p1657
sg1424
I39
sbsI40
g1412
(g1413
g1414
Ntp1658
Rp1659
(dp1660
g1418
Vhttp://avatars.yandex.net/get-tv-shows/1333715305318M14526/orig
p1661
sg1420
V24 \u0422\u0435\u0445\u043d\u043e
p1662
sg1422
Vhttp://tv.yandex.ua/187/channels/710
p1663
sg1424
I40
sbsI41
g1412
(g1413
g1414
Ntp1664
Rp1665
(dp1666
g1418
Vhttp://avatars.yandex.net/get-tv-shows/1333716796927M20496/orig
p1667
sg1420
VAB Moteurs
p1668
sg1422
Vhttp://tv.yandex.ua/187/channels/579
p1669
sg1424
I41
sbsI42
g1412
(g1413
g1414
Ntp1670
Rp1671
(dp1672
g1418
Vhttp://avatars.yandex.net/get-tv-shows/1333708911984M73554/orig
p1673
sg1420
VAmazing Life
p1674
sg1422
Vhttp://tv.yandex.ua/187/channels/658
p1675
sg1424
I42
sbsI43
g1412
(g1413
g1414
Ntp1676
Rp1677
(dp1678
g1418
Vhttp://avatars.yandex.net/get-tv-shows/1333715451160M7791/orig
p1679
sg1420
VMa\u043a\u0441i-T\u0412
p1680
sg1422
Vhttp://tv.yandex.ua/187/channels/228
p1681
sg1424
I43
sbsI44
g1412
(g1413
g1414
Ntp1682
Rp1683
(dp1684
g1418
Vhttp://avatars.yandex.net/get-tv-channel-logos/1347977468008M80159/orig
p1685
sg1420
VAXN Sci-Fi
p1686
sg1422
Vhttp://tv.yandex.ua/187/channels/516
p1687
sg1424
I44
sbsI45
g1412
(g1413
g1414
Ntp1688
Rp1689
(dp1690
g1418
Vhttp://avatars.yandex.net/get-tv-shows/1333713774748M13525/orig
p1691
sg1420
VBloomberg
p1692
sg1422
Vhttp://tv.yandex.ua/187/channels/463
p1693
sg1424
I45
sbsI46
g1412
(g1413
g1414
Ntp1694
Rp1695
(dp1696
g1418
Vhttp://avatars.yandex.net/get-tv-shows/1333713460684M81763/orig
p1697
sg1420
VCartoon Network
p1698
sg1422
Vhttp://tv.yandex.ua/187/channels/601
p1699
sg1424
I46
sbsI47
g1412
(g1413
g1414
Ntp1700
Rp1701
(dp1702
g1418
Vhttp://avatars.yandex.net/get-tv-shows/1333713868645M58659/orig
p1703
sg1420
VCNN
p1704
sg1422
Vhttp://tv.yandex.ua/187/channels/495
p1705
sg1424
I47
sbsI48
g1412
(g1413
g1414
Ntp1706
Rp1707
(dp1708
g1418
Vhttp://avatars.yandex.net/get-tv-shows/1333713824656M29108/orig
p1709
sg1420
VAjara TV
p1710
sg1422
Vhttp://tv.yandex.ua/187/channels/756
p1711
sg1424
I48
sbsI49
g1412
(g1413
g1414
Ntp1712
Rp1713
(dp1714
g1418
Vhttp://avatars.yandex.net/get-tv-shows/1333716035229M94207/orig
p1715
sg1420
VDiscovery Channel
p1716
sg1422
Vhttp://tv.yandex.ua/187/channels/325
p1717
sg1424
I49
sbsI50
g1412
(g1413
g1414
Ntp1718
Rp1719
(dp1720
g1418
Vhttp://avatars.yandex.net/get-tv-channel-logos/1358335632205M86039/orig
p1721
sg1420
VDiscovery Science
p1722
sg1422
Vhttp://tv.yandex.ua/187/channels/409
p1723
sg1424
I50
sbsI51
g1412
(g1413
g1414
Ntp1724
Rp1725
(dp1726
g1418
Vhttp://avatars.yandex.net/get-tv-channel-logos/1358335592919M76257/orig
p1727
sg1420
VDiscovery World
p1728
sg1422
Vhttp://tv.yandex.ua/187/channels/437
p1729
sg1424
I51
sbsI52
g1412
(g1413
g1414
Ntp1730
Rp1731
(dp1732
g1418
Vhttp://avatars.yandex.net/get-tv-shows/1333713695937M46754/orig
p1733
sg1420
VESPN classic
p1734
sg1422
Vhttp://tv.yandex.ua/187/channels/60
p1735
sg1424
I52
sbsI53
g1412
(g1413
g1414
Ntp1736
Rp1737
(dp1738
g1418
Vhttp://avatars.yandex.net/get-tv-shows/1333715265608M77219/orig
p1739
sg1420
VBBC World
p1740
sg1422
Vhttp://tv.yandex.ua/187/channels/828
p1741
sg1424
I53
sbsI54
g1412
(g1413
g1414
Ntp1742
Rp1743
(dp1744
g1418
Vhttp://avatars.yandex.net/get-tv-shows/1333715747653M72464/orig
p1745
sg1420
VEuroNews
p1746
sg1422
Vhttp://tv.yandex.ua/187/channels/23
p1747
sg1424
I54
sbsI55
g1412
(g1413
g1414
Ntp1748
Rp1749
(dp1750
g1418
Vhttp://avatars.yandex.net/get-tv-shows/1333713989705M95921/orig
p1751
sg1420
VEurosport 2
p1752
sg1422
Vhttp://tv.yandex.ua/187/channels/850
p1753
sg1424
I55
sbsI56
g1412
(g1413
g1414
Ntp1754
Rp1755
(dp1756
g1418
Vhttp://avatars.yandex.net/get-tv-shows/1333716877043M9588/orig
p1757
sg1420
VExtreme Sports
p1758
sg1422
Vhttp://tv.yandex.ua/187/channels/288
p1759
sg1424
I56
sbsI57
g1412
(g1413
g1414
Ntp1760
Rp1761
(dp1762
g1418
Vhttp://avatars.yandex.net/get-tv-shows/1333712606553M24172/orig
p1763
sg1420
VDeutsche Welle
p1764
sg1422
Vhttp://tv.yandex.ua/187/channels/355
p1765
sg1424
I57
sbsI58
g1412
(g1413
g1414
Ntp1766
Rp1767
(dp1768
g1418
Vhttp://avatars.yandex.net/get-tv-shows/1333713810610M50051/orig
p1769
sg1420
VFashion TV
p1770
sg1422
Vhttp://tv.yandex.ua/187/channels/661
p1771
sg1424
I58
sbsI59
g1412
(g1413
g1414
Ntp1772
Rp1773
(dp1774
g1418
Vhttp://avatars.yandex.net/get-tv-shows/1333713925399M49999/orig
p1775
sg1420
VHD \u0421\u043f\u043e\u0440\u0442
p1776
sg1422
Vhttp://tv.yandex.ua/187/channels/429
p1777
sg1424
I59
sbsI60
g1412
(g1413
g1414
Ntp1778
Rp1779
(dp1780
g1418
Vhttp://avatars.yandex.net/get-tv-shows/1333713840422M72865/orig
p1781
sg1420
VMezzo
p1782
sg1422
Vhttp://tv.yandex.ua/187/channels/575
p1783
sg1424
I60
sbsI61
g1412
(g1413
g1414
Ntp1784
Rp1785
(dp1786
g1418
Vhttp://avatars.yandex.net/get-tv-shows/1333712622127M71944/orig
p1787
sg1420
VMGM
p1788
sg1422
Vhttp://tv.yandex.ua/187/channels/608
p1789
sg1424
I61
sbsI62
g1412
(g1413
g1414
Ntp1790
Rp1791
(dp1792
g1418
Vhttp://avatars.yandex.net/get-tv-shows/1333715529423M53477/orig
p1793
sg1420
VNational Geographic
p1794
sg1422
Vhttp://tv.yandex.ua/187/channels/102
p1795
sg1424
I62
sbsI63
g1412
(g1413
g1414
Ntp1796
Rp1797
(dp1798
g1418
Vhttp://avatars.yandex.net/get-tv-shows/1333713621438M28015/orig
p1799
sg1420
VNickelodeon
p1800
sg1422
Vhttp://tv.yandex.ua/187/channels/567
p1801
sg1424
I63
sbsI64
g1412
(g1413
g1414
Ntp1802
Rp1803
(dp1804
g1418
Vhttp://avatars.yandex.net/get-tv-shows/1333713085591M64755/orig
p1805
sg1420
VOcean TV
p1806
sg1422
Vhttp://tv.yandex.ua/187/channels/55
p1807
sg1424
I64
sbsI65
g1412
(g1413
g1414
Ntp1808
Rp1809
(dp1810
g1418
Vhttp://avatars.yandex.net/get-tv-shows/1333715680495M54747/orig
p1811
sg1420
VSyFy
p1812
sg1422
Vhttp://tv.yandex.ua/187/channels/75
p1813
sg1424
I65
sbsI66
g1412
(g1413
g1414
Ntp1814
Rp1815
(dp1816
g1418
Vhttp://avatars.yandex.net/get-tv-shows/1333715322381M67288/orig
p1817
sg1420
VTV1000
p1818
sg1422
Vhttp://tv.yandex.ua/187/channels/127
p1819
sg1424
I66
sbsI67
g1412
(g1413
g1414
Ntp1820
Rp1821
(dp1822
g1418
Vhttp://avatars.yandex.net/get-tv-shows/1333716722923M49423/orig
p1823
sg1420
VTV1000 \u0420\u0443\u0441\u0441\u043a\u043e\u0435 \u043a\u0438\u043d\u043e
p1824
sg1422
Vhttp://tv.yandex.ua/187/channels/267
p1825
sg1424
I67
sbsI68
g1412
(g1413
g1414
Ntp1826
Rp1827
(dp1828
g1418
Vhttp://avatars.yandex.net/get-tv-shows/1333713975231M23496/orig
p1829
sg1420
VTV XXI
p1830
sg1422
Vhttp://tv.yandex.ua/187/channels/309
p1831
sg1424
I68
sbsI69
g1412
(g1413
g1414
Ntp1832
Rp1833
(dp1834
g1418
Vhttp://avatars.yandex.net/get-tv-shows/1333715355758M56368/orig
p1835
sg1420
VLuxe HD
p1836
sg1422
Vhttp://tv.yandex.ua/187/channels/312
p1837
sg1424
I69
sbsI70
g1412
(g1413
g1414
Ntp1838
Rp1839
(dp1840
g1418
Vhttp://avatars.yandex.net/get-tv-shows/1333713708028M30550/orig
p1841
sg1420
VTV5
p1842
sg1422
Vhttp://tv.yandex.ua/187/channels/589
p1843
sg1424
I70
sbsI71
g1412
(g1413
g1414
Ntp1844
Rp1845
(dp1846
g1418
Vhttp://avatars.yandex.net/get-tv-shows/1333713528423M49234/orig
p1847
sg1420
VUniversal Channel
p1848
sg1422
Vhttp://tv.yandex.ua/187/channels/213
p1849
sg1424
I71
sbsI72
g1412
(g1413
g1414
Ntp1850
Rp1851
(dp1852
g1418
Vhttp://avatars.yandex.net/get-tv-shows/1333715635729M66606/orig
p1853
sg1420
VViasat Explorer
p1854
sg1422
Vhttp://tv.yandex.ua/187/channels/521
p1855
sg1424
I72
sbsI73
g1412
(g1413
g1414
Ntp1856
Rp1857
(dp1858
g1418
Vhttp://avatars.yandex.net/get-tv-shows/1333715410270M23339/orig
p1859
sg1420
VViasat History
p1860
sg1422
Vhttp://tv.yandex.ua/187/channels/277
p1861
sg1424
I73
sbsI74
g1412
(g1413
g1414
Ntp1862
Rp1863
(dp1864
g1418
Vhttp://avatars.yandex.net/get-tv-shows/1333707549264M49253/orig
p1865
sg1420
VWorld Fashion Channel
p1866
sg1422
Vhttp://tv.yandex.ua/187/channels/346
p1867
sg1424
I74
sbsI75
g1412
(g1413
g1414
Ntp1868
Rp1869
(dp1870
g1418
Vhttp://avatars.yandex.net/get-tv-shows/1333716071391M27068/orig
p1871
sg1420
V\u0411\u043e\u0435\u0446
p1872
sg1422
Vhttp://tv.yandex.ua/187/channels/454
p1873
sg1424
I75
sbsI76
g1412
(g1413
g1414
Ntp1874
Rp1875
(dp1876
g1418
Vhttp://avatars.yandex.net/get-tv-shows/1333713688755M57280/orig
p1877
sg1420
V\u0412\u0440\u0435\u043c\u044f
p1878
sg1422
Vhttp://tv.yandex.ua/187/channels/669
p1879
sg1424
I76
sbsI77
g1412
(g1413
g1414
Ntp1880
Rp1881
(dp1882
g1418
Vhttp://avatars.yandex.net/get-tv-channel-logos/1348587564748M70641/orig
p1883
sg1420
V\u0414\u0435\u0442\u0441\u043a\u0438\u0439
p1884
sg1422
Vhttp://tv.yandex.ua/187/channels/66
p1885
sg1424
I77
sbsI78
g1412
(g1413
g1414
Ntp1886
Rp1887
(dp1888
g1418
Vhttp://avatars.yandex.net/get-tv-channel-logos/1356771171081M25756/orig
p1889
sg1420
V\u0414\u0435\u0442\u0441\u043a\u0438\u0439 \u043c\u0438\u0440
p1890
sg1422
Vhttp://tv.yandex.ua/187/channels/747
p1891
sg1424
I78
sbsI79
g1412
(g1413
g1414
Ntp1892
Rp1893
(dp1894
g1418
Vhttp://avatars.yandex.net/get-tv-shows/1333708636011M82578/orig
p1895
sg1420
V\u0414\u043e\u043c \u043a\u0438\u043d\u043e
p1896
sg1422
Vhttp://tv.yandex.ua/187/channels/834
p1897
sg1424
I79
sbsI80
g1412
(g1413
g1414
Ntp1898
Rp1899
(dp1900
g1418
Vhttp://avatars.yandex.net/get-tv-shows/1333707554614M47050/orig
p1901
sg1420
V\u0417\u043e\u043e \u0422\u0412
p1902
sg1422
Vhttp://tv.yandex.ua/187/channels/273
p1903
sg1424
I80
sbsI81
g1412
(g1413
g1414
Ntp1904
Rp1905
(dp1906
g1418
Vhttp://avatars.yandex.net/get-tv-shows/1333715691315M43621/orig
p1907
sg1420
V\u0418\u043b\u043b\u044e\u0437\u0438\u043e\u043d +
p1908
sg1422
Vhttp://tv.yandex.ua/187/channels/123
p1909
sg1424
I81
sbsI82
g1412
(g1413
g1414
Ntp1910
Rp1911
(dp1912
g1418
Vhttp://avatars.yandex.net/get-tv-shows/1333707995986M34877/orig
p1913
sg1420
V\u0418\u043d\u0434\u0438\u044f \u0422\u0412
p1914
sg1422
Vhttp://tv.yandex.ua/187/channels/798
p1915
sg1424
I82
sbsI83
g1412
(g1413
g1414
Ntp1916
Rp1917
(dp1918
g1418
Vhttp://avatars.yandex.net/get-tv-shows/1333708316300M57639/orig
p1919
sg1420
V\u041a\u0438\u043d\u043e\u043a\u043b\u0443\u0431
p1920
sg1422
Vhttp://tv.yandex.ua/187/channels/462
p1921
sg1424
I83
sbsI84
g1412
(g1413
g1414
Ntp1922
Rp1923
(dp1924
g1418
Vhttp://avatars.yandex.net/get-tv-shows/1333716891806M18999/orig
p1925
sg1420
V\u041a\u0438\u043d\u043e\u043f\u043e\u043a\u0430\u0437
p1926
sg1422
Vhttp://tv.yandex.ua/187/channels/22
p1927
sg1424
I84
sbsI85
g1412
(g1413
g1414
Ntp1928
Rp1929
(dp1930
g1418
Vhttp://avatars.yandex.net/get-tv-shows/1333715225057M89214/orig
p1931
sg1420
V\u041a\u0438\u043d\u043e\u0441\u043e\u044e\u0437
p1932
sg1422
Vhttp://tv.yandex.ua/187/channels/71
p1933
sg1424
I85
sbsI86
g1412
(g1413
g1414
Ntp1934
Rp1935
(dp1936
g1418
Vhttp://avatars.yandex.net/get-tv-shows/1333713093430M11517/orig
p1937
sg1420
V\u041a\u0438\u043d\u043e\u0445\u0438\u0442
p1938
sg1422
Vhttp://tv.yandex.ua/187/channels/542
p1939
sg1424
I86
sbsI87
g1412
(g1413
g1414
Ntp1940
Rp1941
(dp1942
g1418
Vhttp://avatars.yandex.net/get-tv-channel-logos/1352298708156M61329/orig
p1943
sg1420
V\u041c\u0430\u0442\u044c \u0438 \u0434\u0438\u0442\u044f
p1944
sg1422
Vhttp://tv.yandex.ua/187/channels/618
p1945
sg1424
I87
sbsI88
g1412
(g1413
g1414
Ntp1946
Rp1947
(dp1948
g1418
Vhttp://avatars.yandex.net/get-tv-shows/1333713764780M72648/orig
p1949
sg1420
V\u041c\u043e\u044f \u041f\u043b\u0430\u043d\u0435\u0442\u0430
p1950
sg1422
Vhttp://tv.yandex.ua/187/channels/675
p1951
sg1424
I88
sbsI89
g1412
(g1413
g1414
Ntp1952
Rp1953
(dp1954
g1418
Vhttp://avatars.yandex.net/get-tv-channel-logos/1352298732686M97290/orig
p1955
sg1420
V\u041d\u0430\u0441\u0442\u043e\u044f\u0449\u0435\u0435 \u0421\u0442\u0440\u0430\u0448\u043d\u043e\u0435 \u0422\u0435\u043b\u0435\u0432\u0438\u0434\u0435\u043d\u0438\u0435
p1956
sg1422
Vhttp://tv.yandex.ua/187/channels/518
p1957
sg1424
I89
sbsI90
g1412
(g1413
g1414
Ntp1958
Rp1959
(dp1960
g1418
Vhttp://avatars.yandex.net/get-tv-shows/1333715883475M39981/orig
p1961
sg1420
V\u041d\u0430\u0448\u0435 \u043a\u0438\u043d\u043e
p1962
sg1422
Vhttp://tv.yandex.ua/187/channels/12
p1963
sg1424
I90
sbsI91
g1412
(g1413
g1414
Ntp1964
Rp1965
(dp1966
g1418
Vhttp://avatars.yandex.net/get-tv-shows/1333715281884M92118/orig
p1967
sg1420
V\u041d\u0430\u0448\u0435 \u041d\u043e\u0432\u043e\u0435 \u041a\u0438\u043d\u043e
p1968
sg1422
Vhttp://tv.yandex.ua/187/channels/485
p1969
sg1424
I91
sbsI92
g1412
(g1413
g1414
Ntp1970
Rp1971
(dp1972
g1418
Vhttp://avatars.yandex.net/get-tv-shows/1333709127662M17128/orig
p1973
sg1420
V\u041d\u043e\u0441\u0442\u0430\u043b\u044c\u0433\u0438\u044f
p1974
sg1422
Vhttp://tv.yandex.ua/187/channels/783
p1975
sg1424
I92
sbsI93
g1412
(g1413
g1414
Ntp1976
Rp1977
(dp1978
g1418
Vhttp://avatars.yandex.net/get-tv-shows/1333715457097M72151/orig
p1979
sg1420
V\u041e\u0445\u043e\u0442\u0430 \u0438 \u0440\u044b\u0431\u0430\u043b\u043a\u0430
p1980
sg1422
Vhttp://tv.yandex.ua/187/channels/617
p1981
sg1424
I93
sbsI94
g1412
(g1413
g1414
Ntp1982
Rp1983
(dp1984
g1418
Vhttp://avatars.yandex.net/get-tv-shows/1333707582031M183/orig
p1985
sg1420
V\u041f\u0440\u0435\u043c\u044c\u0435\u0440\u0430
p1986
sg1422
Vhttp://tv.yandex.ua/187/channels/566
p1987
sg1424
I94
sbsI95
g1412
(g1413
g1414
Ntp1988
Rp1989
(dp1990
g1418
Vhttp://avatars.yandex.net/get-tv-shows/1333712861918M74194/orig
p1991
sg1420
V\u0420\u0430\u0434\u043e\u0441\u0442\u044c \u041c\u043e\u044f
p1992
sg1422
Vhttp://tv.yandex.ua/187/channels/638
p1993
sg1424
I95
sbsI96
g1412
(g1413
g1414
Ntp1994
Rp1995
(dp1996
g1418
Vhttp://avatars.yandex.net/get-tv-shows/1333716071911M4423/orig
p1997
sg1420
V\u0420\u0411\u041a
p1998
sg1422
Vhttp://tv.yandex.ua/187/channels/743
p1999
sg1424
I96
sbsI97
g1412
(g1413
g1414
Ntp2000
Rp2001
(dp2002
g1418
Vhttp://avatars.yandex.net/get-tv-channel-logos/1348587808200M68387/orig
p2003
sg1420
V\u0420\u0443\u0441\u0441\u043a\u0438\u0439 \u0418\u043b\u043b\u044e\u0437\u0438\u043e\u043d
p2004
sg1422
Vhttp://tv.yandex.ua/187/channels/53
p2005
sg1424
I97
sbsI98
g1412
(g1413
g1414
Ntp2006
Rp2007
(dp2008
g1418
Vhttp://avatars.yandex.net/get-tv-shows/1333709116007M94471/orig
p2009
sg1420
V\u0420\u0443\u0441\u0441\u043a\u0438\u0439 \u042d\u043a\u0441\u0442\u0440\u0438\u043c
p2010
sg1422
Vhttp://tv.yandex.ua/187/channels/406
p2011
sg1424
I98
sbsI99
g1412
(g1413
g1414
Ntp2012
Rp2013
(dp2014
g1418
Vhttp://avatars.yandex.net/get-tv-channel-logos/1347458235853M37527/orig
p2015
sg1420
V\u0421\u0430\u0440\u0430\u0444\u0430\u043d
p2016
sg1422
Vhttp://tv.yandex.ua/187/channels/663
p2017
sg1424
I99
sbsI100
g1412
(g1413
g1414
Ntp2018
Rp2019
(dp2020
g1418
Vhttp://avatars.yandex.net/get-tv-shows/1333713216376M58195/orig
p2021
sg1420
V\u0421\u043f\u0430\u0441 \u0422\u0412
p2022
sg1422
Vhttp://tv.yandex.ua/187/channels/447
p2023
sg1424
I100
sbsI101
g1412
(g1413
g1414
Ntp2024
Rp2025
(dp2026
g1418
Vhttp://avatars.yandex.net/get-tv-shows/1333715467716M44576/orig
p2027
sg1420
V\u0421\u043f\u043e\u0440\u0442 1
p2028
sg1422
Vhttp://tv.yandex.ua/187/channels/181
p2029
sg1424
I101
sbsI102
g1412
(g1413
g1414
Ntp2030
Rp2031
(dp2032
g1418
Vhttp://avatars.yandex.net/get-tv-shows/1333715984312M65283/orig
p2033
sg1420
V\u0422\u0435\u043b\u0435\u043a\u0430\u0444\u0435
p2034
sg1422
Vhttp://tv.yandex.ua/187/channels/173
p2035
sg1424
I102
sbsI103
g1412
(g1413
g1414
Ntp2036
Rp2037
(dp2038
g1418
Vhttp://avatars.yandex.net/get-tv-shows/1333712862861M8549/orig
p2039
sg1420
V\u0422\u0435\u043b\u0435\u043a\u043b\u0443\u0431
p2040
sg1422
Vhttp://tv.yandex.ua/187/channels/163
p2041
sg1424
I103
sbsI104
g1412
(g1413
g1414
Ntp2042
Rp2043
(dp2044
g1418
Vhttp://avatars.yandex.net/get-tv-shows/1333715993038M13981/orig
p2045
sg1420
V\u041c\u0443\u0437\u044b\u043a\u0430 \u041f\u0435\u0440\u0432\u043e\u0433\u043e
p2046
sg1422
Vhttp://tv.yandex.ua/187/channels/715
p2047
sg1424
I104
sbsI105
g1412
(g1413
g1414
Ntp2048
Rp2049
(dp2050
g1418
Vhttp://avatars.yandex.net/get-tv-shows/1333715659064M35098/orig
p2051
sg1420
V\u0422\u0435\u043b\u0435\u043f\u0443\u0442\u0435\u0448\u0435\u0441\u0442\u0432\u0438\u044f
p2052
sg1422
Vhttp://tv.yandex.ua/187/channels/794
p2053
sg1424
I105
sbsI106
g1412
(g1413
g1414
Ntp2054
Rp2055
(dp2056
g1418
Vhttp://avatars.yandex.net/get-tv-shows/1333717714948M87568/orig
p2057
sg1420
V\u0422\u0438\u043d \u0422\u0412
p2058
sg1422
Vhttp://tv.yandex.ua/187/channels/716
p2059
sg1424
I106
sbsI107
g1412
(g1413
g1414
Ntp2060
Rp2061
(dp2062
g1418
Vhttp://avatars.yandex.net/get-tv-shows/1333715632130M79158/orig
p2063
sg1420
V\u0422\u041d\u0412
p2064
sg1422
Vhttp://tv.yandex.ua/187/channels/180
p2065
sg1424
I107
sbsI108
g1412
(g1413
g1414
Ntp2066
Rp2067
(dp2068
g1418
Vhttp://avatars.yandex.net/get-tv-shows/1333713418795M13518/orig
p2069
sg1420
V\u0423\u0441\u0430\u0434\u044c\u0431\u0430
p2070
sg1422
Vhttp://tv.yandex.ua/187/channels/779
p2071
sg1424
I108
sbsI109
g1412
(g1413
g1414
Ntp2072
Rp2073
(dp2074
g1418
Vhttp://avatars.yandex.net/get-tv-shows/1333713835801M19218/orig
p2075
sg1420
V\u0424\u0435\u043d\u0438\u043a\u0441+ \u041a\u0438\u043d\u043e
p2076
sg1422
Vhttp://tv.yandex.ua/187/channels/686
p2077
sg1424
I109
sbsI110
g1412
(g1413
g1414
Ntp2078
Rp2079
(dp2080
g1418
Vhttp://avatars.yandex.net/get-tv-shows/1333708104672M58814/orig
p2081
sg1420
V\u041e2\u0422\u0412
p2082
sg1422
Vhttp://tv.yandex.ua/187/channels/777
p2083
sg1424
I110
sbsI111
g1412
(g1413
g1414
Ntp2084
Rp2085
(dp2086
g1418
Vhttp://avatars.yandex.net/get-tv-shows/1333712629582M95129/orig
p2087
sg1420
V\u042d\u043a\u0441\u043f\u0435\u0440\u0442-\u0422\u0412
p2088
sg1422
Vhttp://tv.yandex.ua/187/channels/781
p2089
sg1424
I111
sbsI112
g1412
(g1413
g1414
Ntp2090
Rp2091
(dp2092
g1418
Vhttp://avatars.yandex.net/get-tv-shows/1333715595667M50557/orig
p2093
sg1420
VRTVI
p2094
sg1422
Vhttp://tv.yandex.ua/187/channels/76
p2095
sg1424
I112
sbsI113
g1412
(g1413
g1414
Ntp2096
Rp2097
(dp2098
g1418
Vhttp://avatars.yandex.net/get-tv-shows/1333709354444M76906/orig
p2099
sg1420
V24 \u0414\u041e\u041a
p2100
sg1422
Vhttp://tv.yandex.ua/187/channels/16
p2101
sg1424
I113
sbsI114
g1412
(g1413
g1414
Ntp2102
Rp2103
(dp2104
g1418
Vhttp://avatars.yandex.net/get-tv-shows/1333716896322M65134/orig
p2105
sg1420
VBBC
p2106
sg1422
Vhttp://tv.yandex.ua/187/channels/502
p2107
sg1424
I114
sbsI115
g1412
(g1413
g1414
Ntp2108
Rp2109
(dp2110
g1418
Vhttp://avatars.yandex.net/get-tv-shows/1333716106733M58501/orig
p2111
sg1420
VDa Vinci
p2112
sg1422
Vhttp://tv.yandex.ua/187/channels/410
p2113
sg1424
I115
sbsI116
g1412
(g1413
g1414
Ntp2114
Rp2115
(dp2116
g1418
Vhttp://avatars.yandex.net/get-tv-channel-logos/1349091347332M99473/orig
p2117
sg1420
VFOX
p2118
sg1422
Vhttp://tv.yandex.ua/187/channels/659
p2119
sg1424
I116
sbsI117
g1412
(g1413
g1414
Ntp2120
Rp2121
(dp2122
g1418
Vhttp://avatars.yandex.net/get-tv-shows/1333715973315M28208/orig
p2123
sg1420
VFox Life
p2124
sg1422
Vhttp://tv.yandex.ua/187/channels/615
p2125
sg1424
I117
sbsI118
g1412
(g1413
g1414
Ntp2126
Rp2127
(dp2128
g1418
Vhttp://avatars.yandex.net/get-tv-shows/1333715589076M84567/orig
p2129
sg1420
VGulli
p2130
sg1422
Vhttp://tv.yandex.ua/187/channels/810
p2131
sg1424
I118
sbsI119
g1412
(g1413
g1414
Ntp2132
Rp2133
(dp2134
g1418
Vhttp://avatars.yandex.net/get-tv-shows/1333707848439M17779/orig
p2135
sg1420
V\u0414\u043e\u043c\u0430\u0448\u043d\u0438\u0435 \u0436\u0438\u0432\u043e\u0442\u043d\u044b\u0435
p2136
sg1422
Vhttp://tv.yandex.ua/187/channels/520
p2137
sg1424
I119
sbsI120
g1412
(g1413
g1414
Ntp2138
Rp2139
(dp2140
g1418
Vhttp://avatars.yandex.net/get-tv-channel-logos/1348587696219M11284/orig
p2141
sg1420
V\u0415\u0432\u0440\u043e\u043a\u0438\u043d\u043e
p2142
sg1422
Vhttp://tv.yandex.ua/187/channels/352
p2143
sg1424
I120
sbsI121
g1412
(g1413
g1414
Ntp2144
Rp2145
(dp2146
g1418
Vhttp://avatars.yandex.net/get-tv-shows/1333715354479M98366/orig
p2147
sg1420
VInvestigation Discovery
p2148
sg1422
Vhttp://tv.yandex.ua/187/channels/19
p2149
sg1424
I121
sbsI122
g1412
(g1413
g1414
Ntp2150
Rp2151
(dp2152
g1418
Vhttp://avatars.yandex.net/get-tv-shows/1333712806377M47354/orig
p2153
sg1420
V\u0421\u0442\u0440\u0430\u043d\u0430
p2154
sg1422
Vhttp://tv.yandex.ua/187/channels/284
p2155
sg1424
I122
sbsI123
g1412
(g1413
g1414
Ntp2156
Rp2157
(dp2158
g1418
Vhttp://avatars.yandex.net/get-tv-shows/1333715462882M95375/orig
p2159
sg1420
VJimJam
p2160
sg1422
Vhttp://tv.yandex.ua/187/channels/494
p2161
sg1424
I123
sbsI124
g1412
(g1413
g1414
Ntp2162
Rp2163
(dp2164
g1418
Vhttp://avatars.yandex.net/get-tv-shows/1333716823193M39207/orig
p2165
sg1420
VKidsCo
p2166
sg1422
Vhttp://tv.yandex.ua/187/channels/598
p2167
sg1424
I124
sbsI125
g1412
(g1413
g1414
Ntp2168
Rp2169
(dp2170
g1418
Vhttp://avatars.yandex.net/get-tv-shows/1333708147128M24922/orig
p2171
sg1420
V\u041a\u0438\u043d\u043e\u043c\u0430\u043d\u0438\u044f
p2172
sg1422
Vhttp://tv.yandex.ua/187/channels/646
p2173
sg1424
I125
sbsI126
g1412
(g1413
g1414
Ntp2174
Rp2175
(dp2176
g1418
Vhttp://avatars.yandex.net/get-tv-shows/1333715618467M47634/orig
p2177
sg1420
V\u041a\u043e\u043c\u0435\u0434\u0438 \u0422\u0412
p2178
sg1422
Vhttp://tv.yandex.ua/187/channels/51
p2179
sg1424
I126
sbsI127
g1412
(g1413
g1414
Ntp2180
Rp2181
(dp2182
g1418
Vhttp://avatars.yandex.net/get-tv-shows/1333716724098M99858/orig
p2183
sg1420
V\u041a\u0438\u043d\u043e\u043f\u043e\u043a\u0430\u0437 HD-1
p2184
sg1422
Vhttp://tv.yandex.ua/187/channels/138
p2185
sg1424
I127
sbsI128
g1412
(g1413
g1414
Ntp2186
Rp2187
(dp2188
g1418
Vhttp://avatars.yandex.net/get-tv-shows/1333715600209M27625/orig
p2189
sg1420
V\u041a\u0438\u043d\u043e\u043f\u043e\u043a\u0430\u0437 HD-2
p2190
sg1422
Vhttp://tv.yandex.ua/187/channels/741
p2191
sg1424
I128
sbsI129
g1412
(g1413
g1414
Ntp2192
Rp2193
(dp2194
g1418
Vhttp://avatars.yandex.net/get-tv-shows/1333713174626M97345/orig
p2195
sg1420
VMan TV
p2196
sg1422
Vhttp://tv.yandex.ua/187/channels/15
p2197
sg1424
I129
sbsI130
g1412
(g1413
g1414
Ntp2198
Rp2199
(dp2200
g1418
Vhttp://avatars.yandex.net/get-tv-shows/1333713698572M2584/orig
p2201
sg1420
VMezzo Live HD
p2202
sg1422
Vhttp://tv.yandex.ua/187/channels/801
p2203
sg1424
I130
sbsI131
g1412
(g1413
g1414
Ntp2204
Rp2205
(dp2206
g1418
Vhttp://avatars.yandex.net/get-tv-shows/1333707984831M90146/orig
p2207
sg1420
V\u041c\u0438\u0440 \u0441\u0435\u0440\u0438\u0430\u043b\u0430
p2208
sg1422
Vhttp://tv.yandex.ua/187/channels/145
p2209
sg1424
I131
sbsI132
g1412
(g1413
g1414
Ntp2210
Rp2211
(dp2212
g1418
Vhttp://avatars.yandex.net/get-tv-shows/1333715305189M35114/orig
p2213
sg1420
V\u041c\u0443\u0436\u0441\u043a\u043e\u0439
p2214
sg1422
Vhttp://tv.yandex.ua/187/channels/82
p2215
sg1424
I132
sbsI133
g1412
(g1413
g1414
Ntp2216
Rp2217
(dp2218
g1418
Vhttp://avatars.yandex.net/get-tv-shows/1333713644403M21507/orig
p2219
sg1420
VViasat Nature CEE
p2220
sg1422
Vhttp://tv.yandex.ua/187/channels/765
p2221
sg1424
I133
sbsI134
g1412
(g1413
g1414
Ntp2222
Rp2223
(dp2224
g1418
Vhttp://avatars.yandex.net/get-tv-shows/1333713433570M85481/orig
p2225
sg1420
VNat Geo WILD
p2226
sg1422
Vhttp://tv.yandex.ua/187/channels/223
p2227
sg1424
I134
sbsI135
g1412
(g1413
g1414
Ntp2228
Rp2229
(dp2230
g1418
Vhttp://avatars.yandex.net/get-tv-shows/1333715451260M61766/orig
p2231
sg1420
VC Music TV
p2232
sg1422
Vhttp://tv.yandex.ua/187/channels/319
p2233
sg1424
I135
sbsI136
g1412
(g1413
g1414
Ntp2234
Rp2235
(dp2236
g1418
Vhttp://avatars.yandex.net/get-tv-shows/1333707836435M19145/orig
p2237
sg1420
V\u041c\u0443\u043b\u044c\u0442\u0438\u043c\u0430\u043d\u0438\u044f
p2238
sg1422
Vhttp://tv.yandex.ua/187/channels/31
p2239
sg1424
I136
sbsI137
g1412
(g1413
g1414
Ntp2240
Rp2241
(dp2242
g1418
Vhttp://avatars.yandex.net/get-tv-shows/1333713751068M18827/orig
p2243
sg1420
VCNBC
p2244
sg1422
Vhttp://tv.yandex.ua/187/channels/831
p2245
sg1424
I137
sbsI138
g1412
(g1413
g1414
Ntp2246
Rp2247
(dp2248
g1418
Vhttp://avatars.yandex.net/get-tv-shows/1333716057211M42929/orig
p2249
sg1420
V\u041a\u0418\u041d\u041e \u041f\u041b\u042e\u0421
p2250
sg1422
Vhttp://tv.yandex.ua/187/channels/644
p2251
sg1424
I138
sbsI139
g1412
(g1413
g1414
Ntp2252
Rp2253
(dp2254
g1418
Vhttp://avatars.yandex.net/get-tv-shows/1333713846214M92620/orig
p2255
sg1420
V\u041f\u0430\u0440\u043a \u0440\u0430\u0437\u0432\u043b\u0435\u0447\u0435\u043d\u0438\u0439
p2256
sg1422
Vhttp://tv.yandex.ua/187/channels/37
p2257
sg1424
I139
sbsI140
g1412
(g1413
g1414
Ntp2258
Rp2259
(dp2260
g1418
Vhttp://avatars.yandex.net/get-tv-shows/1333715232241M630/orig
p2261
sg1420
V\u041f\u0441\u0438\u0445\u043e\u043b\u043e\u0433\u0438\u044f 21
p2262
sg1422
Vhttp://tv.yandex.ua/187/channels/434
p2263
sg1424
I140
sbsI141
g1412
(g1413
g1414
Ntp2264
Rp2265
(dp2266
g1418
Vhttp://avatars.yandex.net/get-tv-shows/1333712701189M79995/orig
p2267
sg1420
VEnglish Club TV
p2268
sg1422
Vhttp://tv.yandex.ua/187/channels/757
p2269
sg1424
I141
sbsI142
g1412
(g1413
g1414
Ntp2270
Rp2271
(dp2272
g1418
Vhttp://avatars.yandex.net/get-tv-shows/1333713945719M63469/orig
p2273
sg1420
V\u0414\u043e\u0436\u0434\u044c
p2274
sg1422
Vhttp://tv.yandex.ua/187/channels/384
p2275
sg1424
I142
sbsI143
g1412
(g1413
g1414
Ntp2276
Rp2277
(dp2278
g1418
Vhttp://avatars.yandex.net/get-tv-shows/1333713816884M48668/orig
p2279
sg1420
VRussian Travel Guide
p2280
sg1422
Vhttp://tv.yandex.ua/187/channels/648
p2281
sg1424
I143
sbsI144
g1412
(g1413
g1414
Ntp2282
Rp2283
(dp2284
g1418
Vhttp://avatars.yandex.net/get-tv-shows/1333715412490M65597/orig
p2285
sg1420
VRussia Today
p2286
sg1422
Vhttp://tv.yandex.ua/187/channels/313
p2287
sg1424
I144
sbsI145
g1412
(g1413
g1414
Ntp2288
Rp2289
(dp2290
g1418
Vhttp://avatars.yandex.net/get-tv-shows/1333707837348M40226/orig
p2291
sg1420
VFrance 24
p2292
sg1422
Vhttp://tv.yandex.ua/187/channels/461
p2293
sg1424
I145
sbsI146
g1412
(g1413
g1414
Ntp2294
Rp2295
(dp2296
g1418
Vhttp://avatars.yandex.net/get-tv-shows/1333713259234M5321/orig
p2297
sg1420
V\u041a\u0430\u0440\u0443\u0441\u0435\u043b\u044c INT
p2298
sg1422
Vhttp://tv.yandex.ua/187/channels/465
p2299
sg1424
I146
sbsI147
g1412
(g1413
g1414
Ntp2300
Rp2301
(dp2302
g1418
Vhttp://avatars.yandex.net/get-tv-shows/1333712713031M6232/orig
p2303
sg1420
VStyle TV
p2304
sg1422
Vhttp://tv.yandex.ua/187/channels/119
p2305
sg1424
I147
sbsI148
g1412
(g1413
g1414
Ntp2306
Rp2307
(dp2308
g1418
Vhttp://avatars.yandex.net/get-tv-shows/1333713389359M36074/orig
p2309
sg1420
VHD \u041c\u0435\u0434\u0438\u0430
p2310
sg1422
Vhttp://tv.yandex.ua/187/channels/631
p2311
sg1424
I148
sbsI149
g1412
(g1413
g1414
Ntp2312
Rp2313
(dp2314
g1418
Vhttp://avatars.yandex.net/get-tv-shows/1333715673198M2663/orig
p2315
sg1420
V\u041f\u0435\u0440\u0432\u044b\u0439 \u043c\u0435\u0442\u0435\u043e
p2316
sg1422
Vhttp://tv.yandex.ua/187/channels/59
p2317
sg1424
I149
sbsI150
g1412
(g1413
g1414
Ntp2318
Rp2319
(dp2320
g1418
Vhttp://avatars.yandex.net/get-tv-shows/1333713176648M89316/orig
p2321
sg1420
VTV1000 Action
p2322
sg1422
Vhttp://tv.yandex.ua/187/channels/125
p2323
sg1424
I150
sbsI151
g1412
(g1413
g1414
Ntp2324
Rp2325
(dp2326
g1418
Vhttp://avatars.yandex.net/get-tv-shows/1333713783253M34729/orig
p2327
sg1420
V\u0427\u041f.Info
p2328
sg1422
Vhttp://tv.yandex.ua/187/channels/315
p2329
sg1424
I151
sbsI152
g1412
(g1413
g1414
Ntp2330
Rp2331
(dp2332
g1418
Vhttp://avatars.yandex.net/get-tv-shows/1333713457072M47395/orig
p2333
sg1420
V\u0423\u043b\u044b\u0431\u043a\u0430 \u0420\u0435\u0431\u0435\u043d\u043a\u0430
p2334
sg1422
Vhttp://tv.yandex.ua/187/channels/789
p2335
sg1424
I152
sbsI153
g1412
(g1413
g1414
Ntp2336
Rp2337
(dp2338
g1418
Vhttp://avatars.yandex.net/get-tv-shows/1333715744438M85797/orig
p2339
sg1420
V\u0423\u0441\u043f\u0435\u0445
p2340
sg1422
Vhttp://tv.yandex.ua/187/channels/547
p2341
sg1424
I153
sbsI154
g1412
(g1413
g1414
Ntp2342
Rp2343
(dp2344
g1418
Vhttp://avatars.yandex.net/get-tv-shows/1333712655464M52829/orig
p2345
sg1420
VVH1 Classic
p2346
sg1422
Vhttp://tv.yandex.ua/187/channels/156
p2347
sg1424
I154
sbsI155
g1412
(g1413
g1414
Ntp2348
Rp2349
(dp2350
g1418
Vhttp://avatars.yandex.net/get-tv-shows/1333712775005M93791/orig
p2351
sg1420
VViasat Sport
p2352
sg1422
Vhttp://tv.yandex.ua/187/channels/455
p2353
sg1424
I155
sbsI156
g1412
(g1413
g1414
Ntp2354
Rp2355
(dp2356
g1418
Vhttp://avatars.yandex.net/get-tv-shows/1333713681468M47452/orig
p2357
sg1420
V\u0412\u043e\u043f\u0440\u043e\u0441\u044b \u0438 \u043e\u0442\u0432\u0435\u0442\u044b
p2358
sg1422
Vhttp://tv.yandex.ua/187/channels/333
p2359
sg1424
I156
sbsI157
g1412
(g1413
g1414
Ntp2360
Rp2361
(dp2362
g1418
Vhttp://avatars.yandex.net/get-tv-shows/1333716913379M87044/orig
p2363
sg1420
V\u0412\u0441\u0435\u0433\u0434\u0430 \u0441 \u0442\u043e\u0431\u043e\u0439
p2364
sg1422
Vhttp://tv.yandex.ua/187/channels/604
p2365
sg1424
I157
sbsI158
g1412
(g1413
g1414
Ntp2366
Rp2367
(dp2368
g1418
Vhttp://avatars.yandex.net/get-tv-shows/1333708247585M68464/orig
p2369
sg1420
V\u041e\u0440\u0443\u0436\u0438\u0435
p2370
sg1422
Vhttp://tv.yandex.ua/187/channels/376
p2371
sg1424
I158
sbsI159
g1412
(g1413
g1414
Ntp2372
Rp2373
(dp2374
g1418
Vhttp://avatars.yandex.net/get-tv-shows/1333715997298M69767/orig
p2375
sg1420
V\u041a\u0442\u043e \u0435\u0441\u0442\u044c \u043a\u0442\u043e
p2376
sg1422
Vhttp://tv.yandex.ua/187/channels/769
p2377
sg1424
I159
sbsI160
g1412
(g1413
g1414
Ntp2378
Rp2379
(dp2380
g1418
Vhttp://avatars.yandex.net/get-tv-shows/1333716819878M97368/orig
p2381
sg1420
V\u0417\u0430\u0433\u043e\u0440\u043e\u0434\u043d\u044b\u0439
p2382
sg1422
Vhttp://tv.yandex.ua/187/channels/705
p2383
sg1424
I160
sbsI161
g1412
(g1413
g1414
Ntp2384
Rp2385
(dp2386
g1418
Vhttp://avatars.yandex.net/get-tv-shows/1333712702253M97202/orig
p2387
sg1420
V\u0417\u0430\u0433\u043e\u0440\u043e\u0434\u043d\u0430\u044f \u0436\u0438\u0437\u043d\u044c
p2388
sg1422
Vhttp://tv.yandex.ua/187/channels/21
p2389
sg1424
I161
sbsI162
g1412
(g1413
g1414
Ntp2390
Rp2391
(dp2392
g1418
Vhttp://avatars.yandex.net/get-tv-shows/1333713481818M96462/orig
p2393
sg1420
VLuxe.TV
p2394
sg1422
Vhttp://tv.yandex.ua/187/channels/442
p2395
sg1424
I162
sbsI163
g1412
(g1413
g1414
Ntp2396
Rp2397
(dp2398
g1418
Vhttp://avatars.yandex.net/get-tv-shows/1333715814729M63454/orig
p2399
sg1420
VZee-TV
p2400
sg1422
Vhttp://tv.yandex.ua/187/channels/626
p2401
sg1424
I163
sbsI164
g1412
(g1413
g1414
Ntp2402
Rp2403
(dp2404
g1418
Vhttp://avatars.yandex.net/get-tv-shows/1333716033811M15593/orig
p2405
sg1420
V\u0422\u043e\u043d\u0443\u0441-\u0422\u0412
p2406
sg1422
Vhttp://tv.yandex.ua/187/channels/637
p2407
sg1424
I164
sbsI165
g1412
(g1413
g1414
Ntp2408
Rp2409
(dp2410
g1418
Vhttp://avatars.yandex.net/get-tv-shows/1333713729069M489/orig
p2411
sg1420
V\u0420\u0422\u0412 - \u041b\u044e\u0431\u0438\u043c\u043e\u0435 \u043a\u0438\u043d\u043e
p2412
sg1422
Vhttp://tv.yandex.ua/187/channels/477
p2413
sg1424
I165
sbsI166
g1412
(g1413
g1414
Ntp2414
Rp2415
(dp2416
g1418
Vhttp://avatars.yandex.net/get-tv-shows/1333716969502M68148/orig
p2417
sg1420
VMCM POP
p2418
sg1422
Vhttp://tv.yandex.ua/187/channels/804
p2419
sg1424
I166
sbsI167
g1412
(g1413
g1414
Ntp2420
Rp2421
(dp2422
g1418
Vhttp://avatars.yandex.net/get-tv-shows/1333715741881M37018/orig
p2423
sg1420
V\u0420\u0422\u0412 - \u041d\u0430\u0448\u0435 \u043a\u0438\u043d\u043e
p2424
sg1422
Vhttp://tv.yandex.ua/187/channels/176
p2425
sg1424
I167
sbsI168
g1412
(g1413
g1414
Ntp2426
Rp2427
(dp2428
g1418
Vhttp://avatars.yandex.net/get-tv-shows/1333713682028M49283/orig
p2429
sg1420
VMCM TOP
p2430
sg1422
Vhttp://tv.yandex.ua/187/channels/533
p2431
sg1424
I168
sbsI169
g1412
(g1413
g1414
Ntp2432
Rp2433
(dp2434
g1418
Vhttp://avatars.yandex.net/get-tv-shows/1333712756259M40685/orig
p2435
sg1420
V\u0421\u043e\u0432\u0435\u0440\u0448\u0435\u043d\u043d\u043e \u0441\u0435\u043a\u0440\u0435\u0442\u043d\u043e
p2436
sg1422
Vhttp://tv.yandex.ua/187/channels/275
p2437
sg1424
I169
sbsI170
g1412
(g1413
g1414
Ntp2438
Rp2439
(dp2440
g1418
Vhttp://avatars.yandex.net/get-tv-shows/1333716791539M48053/orig
p2441
sg1420
VTDK
p2442
sg1422
Vhttp://tv.yandex.ua/187/channels/776
p2443
sg1424
I170
sbsI171
g1412
(g1413
g1414
Ntp2444
Rp2445
(dp2446
g1418
Vhttp://avatars.yandex.net/get-tv-shows/1333715457146M21776/orig
p2447
sg1420
VMusicBox RU
p2448
sg1422
Vhttp://tv.yandex.ua/187/channels/25
p2449
sg1424
I171
sbsI172
g1412
(g1413
g1414
Ntp2450
Rp2451
(dp2452
g1418
Vhttp://avatars.yandex.net/get-tv-shows/1333708713306M38200/orig
p2453
sg1420
VTiJi
p2454
sg1422
Vhttp://tv.yandex.ua/187/channels/555
p2455
sg1424
I172
sbsI173
g1412
(g1413
g1414
Ntp2456
Rp2457
(dp2458
g1418
Vhttp://avatars.yandex.net/get-tv-shows/1333709246196M1207/orig
p2459
sg1420
VBaby TV
p2460
sg1422
Vhttp://tv.yandex.ua/187/channels/308
p2461
sg1424
I173
sbsI174
g1412
(g1413
g1414
Ntp2462
Rp2463
(dp2464
g1418
Vhttp://avatars.yandex.net/get-tv-shows/1333713807307M19303/orig
p2465
sg1420
VMusicBox TV
p2466
sg1422
Vhttp://tv.yandex.ua/187/channels/642
p2467
sg1424
I174
sbsI175
g1412
(g1413
g1414
Ntp2468
Rp2469
(dp2470
g1418
Vhttp://avatars.yandex.net/get-tv-shows/1333708797928M94347/orig
p2471
sg1420
VMTV Dance
p2472
sg1422
Vhttp://tv.yandex.ua/187/channels/332
p2473
sg1424
I175
sbsI176
g1412
(g1413
g1414
Ntp2474
Rp2475
(dp2476
g1418
Vhttp://avatars.yandex.net/get-tv-shows/1333708221386M8318/orig
p2477
sg1420
VmyZen.tv
p2478
sg1422
Vhttp://tv.yandex.ua/187/channels/141
p2479
sg1424
I176
sbsI177
g1412
(g1413
g1414
Ntp2480
Rp2481
(dp2482
g1418
Vhttp://avatars.yandex.net/get-tv-shows/1333716825980M37994/orig
p2483
sg1420
VMTV Hits
p2484
sg1422
Vhttp://tv.yandex.ua/187/channels/849
p2485
sg1424
I177
sbsI178
g1412
(g1413
g1414
Ntp2486
Rp2487
(dp2488
g1418
Vhttp://avatars.yandex.net/get-tv-shows/1333713043514M62310/orig
p2489
sg1420
VMTV Rocks
p2490
sg1422
Vhttp://tv.yandex.ua/187/channels/388
p2491
sg1424
I178
sbsI179
g1412
(g1413
g1414
Ntp2492
Rp2493
(dp2494
g1418
Vhttp://avatars.yandex.net/get-tv-shows/1333708746764M31248/orig
p2495
sg1420
V\u041d\u0435\u0434\u0432\u0438\u0436\u0438\u043c\u043e\u0441\u0442\u044c
p2496
sg1422
Vhttp://tv.yandex.ua/187/channels/552
p2497
sg1424
I179
sbsI180
g1412
(g1413
g1414
Ntp2498
Rp2499
(dp2500
g1418
Vhttp://avatars.yandex.net/get-tv-channel-logos/1348227921654M54810/orig
p2501
sg1420
V\u041c\u0423\u0417 \u0422\u0412
p2502
sg1422
Vhttp://tv.yandex.ua/187/channels/897
p2503
sg1424
I180
sbsI181
g1412
(g1413
g1414
Ntp2504
Rp2505
(dp2506
g1418
Vhttp://avatars.yandex.net/get-tv-shows/1333713976352M79712/orig
p2507
sg1420
VNewsOne
p2508
sg1422
Vhttp://tv.yandex.ua/187/channels/247
p2509
sg1424
I181
sbsI182
g1412
(g1413
g1414
Ntp2510
Rp2511
(dp2512
g1418
Vhttp://avatars.yandex.net/get-tv-shows/1333712715401M79935/orig
p2513
sg1420
VTLC
p2514
sg1422
Vhttp://tv.yandex.ua/187/channels/425
p2515
sg1424
I182
sbsI183
g1412
(g1413
g1414
Ntp2516
Rp2517
(dp2518
g1418
Vhttp://avatars.yandex.net/get-tv-shows/1333713582281M8534/orig
p2519
sg1420
V\u041f\u0435\u0440\u0432\u044b\u0439 \u043e\u0431\u0440\u0430\u0437\u043e\u0432\u0430\u0442\u0435\u043b\u044c\u043d\u044b\u0439
p2520
sg1422
Vhttp://tv.yandex.ua/187/channels/774
p2521
sg1424
I183
sbsI184
g1412
(g1413
g1414
Ntp2522
Rp2523
(dp2524
g1418
Vhttp://avatars.yandex.net/get-tv-shows/1333715189104M67729/orig
p2525
sg1420
VRu.TV
p2526
sg1422
Vhttp://tv.yandex.ua/187/channels/258
p2527
sg1424
I184
sbsI185
g1412
(g1413
g1414
Ntp2528
Rp2529
(dp2530
g1418
Vhttp://avatars.yandex.net/get-tv-channel-logos/1357917709899M67755/orig
p2531
sg1420
VA-ONE
p2532
sg1422
Vhttp://tv.yandex.ua/187/channels/680
p2533
sg1424
I185
sbsI186
g1412
(g1413
g1414
Ntp2534
Rp2535
(dp2536
g1418
Vhttp://avatars.yandex.net/get-tv-shows/1333715841246M94104/orig
p2537
sg1420
V\u041e\u0445\u043e\u0442\u043d\u0438\u043a \u0438 \u0420\u044b\u0431\u043e\u043b\u043e\u0432
p2538
sg1422
Vhttp://tv.yandex.ua/187/channels/132
p2539
sg1424
I186
sbsI187
g1412
(g1413
g1414
Ntp2540
Rp2541
(dp2542
g1418
Vhttp://avatars.yandex.net/get-tv-shows/1333708247583M29832/orig
p2543
sg1420
V\u041d\u0430\u0443\u043a\u0430 2.0
p2544
sg1422
Vhttp://tv.yandex.ua/187/channels/723
p2545
sg1424
I187
sbsI188
g1412
(g1413
g1414
Ntp2546
Rp2547
(dp2548
g1418
Vhttp://avatars.yandex.net/get-tv-shows/1333716732109M13710/orig
p2549
sg1420
V\u041e\u0442\u043a\u0440\u044b\u0442\u044b\u0439 \u041c\u0438\u0440
p2550
sg1422
Vhttp://tv.yandex.ua/187/channels/39
p2551
sg1424
I188
sbsI189
g1412
(g1413
g1414
Ntp2552
Rp2553
(dp2554
g1418
Vhttp://avatars.yandex.net/get-tv-shows/1333715766749M89647/orig
p2555
sg1420
VZoo\u043f\u0430\u0440\u043a
p2556
sg1422
Vhttp://tv.yandex.ua/187/channels/367
p2557
sg1424
I189
sbsI190
g1412
(g1413
g1414
Ntp2558
Rp2559
(dp2560
g1418
Vhttp://avatars.yandex.net/get-tv-shows/1333712862430M29121/orig
p2561
sg1420
V\u0414\u0440\u0430\u0439\u0432
p2562
sg1422
Vhttp://tv.yandex.ua/187/channels/505
p2563
sg1424
I190
sbsI191
g1412
(g1413
g1414
Ntp2564
Rp2565
(dp2566
g1418
Vhttp://avatars.yandex.net/get-tv-shows/1333715678054M1312/orig
p2567
sg1420
V\u0417\u0434\u043e\u0440\u043e\u0432\u043e\u0435 \u0422\u0412
p2568
sg1422
Vhttp://tv.yandex.ua/187/channels/595
p2569
sg1424
I191
sbsI192
g1412
(g1413
g1414
Ntp2570
Rp2571
(dp2572
g1418
Vhttp://avatars.yandex.net/get-tv-shows/1333708154865M86208/orig
p2573
sg1420
V\u0420\u0435\u0442\u0440\u043e \u0422\u0412
p2574
sg1422
Vhttp://tv.yandex.ua/187/channels/6
p2575
sg1424
I192
sbsI193
g1412
(g1413
g1414
Ntp2576
Rp2577
(dp2578
g1418
Vhttp://avatars.yandex.net/get-tv-shows/1333716745405M72465/orig
p2579
sg1420
VRusong TV
p2580
sg1422
Vhttp://tv.yandex.ua/187/channels/591
p2581
sg1424
I193
sbsI194
g1412
(g1413
g1414
Ntp2582
Rp2583
(dp2584
g1418
Vhttp://avatars.yandex.net/get-tv-shows/1333713984447M70308/orig
p2585
sg1420
VEurosport
p2586
sg1422
Vhttp://tv.yandex.ua/187/channels/737
p2587
sg1424
I194
sbsI195
g1412
(g1413
g1414
Ntp2588
Rp2589
(dp2590
g1418
Vhttp://avatars.yandex.net/get-tv-shows/1333716803563M50186/orig
p2591
sg1420
V\u041a\u0425\u041b
p2592
sg1422
Vhttp://tv.yandex.ua/187/channels/481
p2593
sg1424
I195
sbsI196
g1412
(g1413
g1414
Ntp2594
Rp2595
(dp2596
g1418
Vhttp://avatars.yandex.net/get-tv-channel-logos/1356596026566M65418/orig
p2597
sg1420
V\u041c\u0418\u0420
p2598
sg1422
Vhttp://tv.yandex.ua/187/channels/726
p2599
sg1424
I196
sbsI197
g1412
(g1413
g1414
Ntp2600
Rp2601
(dp2602
g1418
Vhttp://avatars.yandex.net/get-tv-shows/1333713160319M54984/orig
p2603
sg1420
V\u0416\u0418\u0412\u0418!
p2604
sg1422
Vhttp://tv.yandex.ua/187/channels/113
p2605
sg1424
I197
sbsI198
g1412
(g1413
g1414
Ntp2606
Rp2607
(dp2608
g1418
Vhttp://avatars.yandex.net/get-tv-shows/1333715748744M67529/orig
p2609
sg1420
VDIVA Universal
p2610
sg1422
Vhttp://tv.yandex.ua/187/channels/713
p2611
sg1424
I198
sbsI199
g1412
(g1413
g1414
Ntp2612
Rp2613
(dp2614
g1418
Vhttp://avatars.yandex.net/get-tv-shows/1333716977495M19933/orig
p2615
sg1420
VDiscovery HD Showcase
p2616
sg1422
Vhttp://tv.yandex.ua/187/channels/111
p2617
sg1424
I199
sbsI200
g1412
(g1413
g1414
Ntp2618
Rp2619
(dp2620
g1418
Vhttp://avatars.yandex.net/get-tv-shows/1333715852220M49281/orig
p2621
sg1420
V\u0422\u0443\u0440\u0418\u043d\u0444\u043e
p2622
sg1422
Vhttp://tv.yandex.ua/187/channels/731
p2623
sg1424
I200
sbsI201
g1412
(g1413
g1414
Ntp2624
Rp2625
(dp2626
g1418
Vhttp://avatars.yandex.net/get-tv-shows/1333708892947M65043/orig
p2627
sg1420
V\u0428\u0430\u043d\u0441\u043e\u043d-TB
p2628
sg1422
Vhttp://tv.yandex.ua/187/channels/662
p2629
sg1424
I201
sbsI202
g1412
(g1413
g1414
Ntp2630
Rp2631
(dp2632
g1418
Vhttp://avatars.yandex.net/get-tv-shows/1333713983645M99328/orig
p2633
sg1420
V\u0417\u043d\u0430\u043d\u0438\u0435
p2634
sg1422
Vhttp://tv.yandex.ua/187/channels/201
p2635
sg1424
I202
sbsI203
g1412
(g1413
g1414
Ntp2636
Rp2637
(dp2638
g1418
Vhttp://avatars.yandex.net/get-tv-shows/1333715603725M3088/orig
p2639
sg1420
VEuropa Plus TV
p2640
sg1422
Vhttp://tv.yandex.ua/187/channels/681
p2641
sg1424
I203
sbsI204
g1412
(g1413
g1414
Ntp2642
Rp2643
(dp2644
g1418
Vhttp://avatars.yandex.net/get-tv-shows/1333715545258M24133/orig
p2645
sg1420
VOutdoor Channel
p2646
sg1422
Vhttp://tv.yandex.ua/187/channels/322
p2647
sg1424
I204
sbsI205
g1412
(g1413
g1414
Ntp2648
Rp2649
(dp2650
g1418
Vhttp://avatars.yandex.net/get-tv-shows/1333713680513M60480/orig
p2651
sg1420
V\u041d\u0422\u0412-\u041f\u041b\u042e\u0421 \u0421\u043f\u043e\u0440\u0442 \u041f\u043b\u044e\u0441
p2652
sg1422
Vhttp://tv.yandex.ua/187/channels/377
p2653
sg1424
I205
sbsI206
g1412
(g1413
g1414
Ntp2654
Rp2655
(dp2656
g1418
Vhttp://avatars.yandex.net/get-tv-shows/1333713538946M7262/orig
p2657
sg1420
VVH1 European
p2658
sg1422
Vhttp://tv.yandex.ua/187/channels/491
p2659
sg1424
I206
sbsI207
g1412
(g1413
g1414
Ntp2660
Rp2661
(dp2662
g1418
Vhttp://avatars.yandex.net/get-tv-channel-logos/1349444212217M99907/orig
p2663
sg1420
V\u041d\u0422\u0412-\u041f\u041b\u042e\u0421 \u041d\u0430\u0448 \u0444\u0443\u0442\u0431\u043e\u043b
p2664
sg1422
Vhttp://tv.yandex.ua/187/channels/499
p2665
sg1424
I207
sbsI208
g1412
(g1413
g1414
Ntp2666
Rp2667
(dp2668
g1418
Vhttp://avatars.yandex.net/get-tv-shows/1333715434657M29292/orig
p2669
sg1420
V\u041d\u0422\u0412-\u041f\u041b\u042e\u0421 \u0421\u043f\u043e\u0440\u0442
p2670
sg1422
Vhttp://tv.yandex.ua/187/channels/134
p2671
sg1424
I208
sbsI209
g1412
(g1413
g1414
Ntp2672
Rp2673
(dp2674
g1418
Vhttp://avatars.yandex.net/get-tv-shows/1333715630513M36394/orig
p2675
sg1420
V\u041d\u0422\u0412-\u041f\u041b\u042e\u0421 \u0424\u0443\u0442\u0431\u043e\u043b
p2676
sg1422
Vhttp://tv.yandex.ua/187/channels/664
p2677
sg1424
I209
sbsI210
g1412
(g1413
g1414
Ntp2678
Rp2679
(dp2680
g1418
Vhttp://avatars.yandex.net/get-tv-shows/1333716734381M94839/orig
p2681
sg1420
V\u041d\u0422\u0412-\u041f\u041b\u042e\u0421 \u0421\u043f\u043e\u0440\u0442 \u041e\u043d\u043b\u0430\u0439\u043d
p2682
sg1422
Vhttp://tv.yandex.ua/187/channels/183
p2683
sg1424
I210
sbsI211
g1412
(g1413
g1414
Ntp2684
Rp2685
(dp2686
g1418
Vhttp://avatars.yandex.net/get-tv-shows/1333713578162M89138/orig
p2687
sg1420
V\u041d\u0422\u0412-\u041f\u041b\u042e\u0421 \u0411\u0430\u0441\u043a\u0435\u0442\u0431\u043e\u043b
p2688
sg1422
Vhttp://tv.yandex.ua/187/channels/697
p2689
sg1424
I211
sbsI212
g1412
(g1413
g1414
Ntp2690
Rp2691
(dp2692
g1418
Vhttp://avatars.yandex.net/get-tv-shows/1333708043568M30613/orig
p2693
sg1420
V\u041d\u0422\u0412-\u041f\u041b\u042e\u0421 \u0422\u0435\u043d\u043d\u0438\u0441
p2694
sg1422
Vhttp://tv.yandex.ua/187/channels/358
p2695
sg1424
I212
sbsI213
g1412
(g1413
g1414
Ntp2696
Rp2697
(dp2698
g1418
Vhttp://avatars.yandex.net/get-tv-shows/1333713040296M59201/orig
p2699
sg1420
VWorld Music Channel
p2700
sg1422
Vhttp://tv.yandex.ua/187/channels/91
p2701
sg1424
I213
sbsI214
g1412
(g1413
g1414
Ntp2702
Rp2703
(dp2704
g1418
Vhttp://avatars.yandex.net/get-tv-shows/1333708764683M58437/orig
p2705
sg1420
V\u041d\u0422\u0412-\u041f\u041b\u042e\u0421 \u0424\u0443\u0442\u0431\u043e\u043b 2
p2706
sg1422
Vhttp://tv.yandex.ua/187/channels/563
p2707
sg1424
I214
sbsI215
g1412
(g1413
g1414
Ntp2708
Rp2709
(dp2710
g1418
Vhttp://avatars.yandex.net/get-tv-channel-logos/1347977439851M34882/orig
p2711
sg1420
VSONY \u0422\u0412
p2712
sg1422
Vhttp://tv.yandex.ua/187/channels/311
p2713
sg1424
I215
sbsI216
g1412
(g1413
g1414
Ntp2714
Rp2715
(dp2716
g1418
Vhttp://avatars.yandex.net/get-tv-channel-logos/1346751438482M48687/orig
p2717
sg1420
V8 \u041a\u0430\u043d\u0430\u043b
p2718
sg1422
Vhttp://tv.yandex.ua/187/channels/217
p2719
sg1424
I216
sbsI217
g1412
(g1413
g1414
Ntp2720
Rp2721
(dp2722
g1418
Vhttp://avatars.yandex.net/get-tv-shows/1333708793754M69706/orig
p2723
sg1420
V\u0418\u043d\u0442\u0435\u0440\u0435\u0441\u043d\u043e\u0435 \u0422\u0412
p2724
sg1422
Vhttp://tv.yandex.ua/187/channels/24
p2725
sg1424
I217
sbsI218
g1412
(g1413
g1414
Ntp2726
Rp2727
(dp2728
g1418
Vhttp://avatars.yandex.net/get-tv-shows/1333708053915M20046/orig
p2729
sg1420
V\u041c\u043d\u043e\u0433\u043e \u0422\u0412
p2730
sg1422
Vhttp://tv.yandex.ua/187/channels/799
p2731
sg1424
I218
sbsI219
g1412
(g1413
g1414
Ntp2732
Rp2733
(dp2734
g1418
Vhttp://avatars.yandex.net/get-tv-channel-logos/1336217768352M70407/orig
p2735
sg1420
V\u041a\u043e\u043c\u0435\u0434\u0438\u044f \u0422\u0412
p2736
sg1422
Vhttp://tv.yandex.ua/187/channels/821
p2737
sg1424
I219
sbsI220
g1412
(g1413
g1414
Ntp2738
Rp2739
(dp2740
g1418
Vhttp://avatars.yandex.net/get-tv-channel-logos/1344328736344M68981/orig
p2741
sg1420
V\u041a\u0443\u0445\u043d\u044f \u0422\u0412
p2742
sg1422
Vhttp://tv.yandex.ua/187/channels/614
p2743
sg1424
I220
sbsI221
g1412
(g1413
g1414
Ntp2744
Rp2745
(dp2746
g1418
Vhttp://avatars.yandex.net/get-tv-channel-logos/1357806445014M68284/orig
p2747
sg1420
V\u0410\u0432\u0442\u043e \u041f\u043b\u044e\u0441
p2748
sg1422
Vhttp://tv.yandex.ua/187/channels/153
p2749
sg1424
I221
sbsI222
g1412
(g1413
g1414
Ntp2750
Rp2751
(dp2752
g1418
Vhttp://avatars.yandex.net/get-tv-shows/1333709239764M13305/orig
p2753
sg1420
VHD Life
p2754
sg1422
Vhttp://tv.yandex.ua/187/channels/415
p2755
sg1424
I222
sbsI223
g1412
(g1413
g1414
Ntp2756
Rp2757
(dp2758
g1418
Vhttp://avatars.yandex.net/get-tv-shows/1333713175752M17275/orig
p2759
sg1420
g802
sg1422
Vhttp://tv.yandex.ua/187/channels/250
p2760
sg1424
I223
sbsI224
g1412
(g1413
g1414
Ntp2761
Rp2762
(dp2763
g1418
Vhttp://avatars.yandex.net/get-tv-shows/1333715379935M43316/orig
p2764
sg1420
V\u041a\u0438\u043d\u043e\u043b\u044e\u043a\u0441
p2765
sg1422
Vhttp://tv.yandex.ua/187/channels/8
p2766
sg1424
I224
sbsI225
g1412
(g1413
g1414
Ntp2767
Rp2768
(dp2769
g1418
Vhttp://avatars.yandex.net/get-tv-shows/1333713929498M22985/orig
p2770
sg1420
V\u0420\u0443\u0441\u0441\u043a\u0438\u0439 \u0440\u043e\u043c\u0430\u043d
p2771
sg1422
Vhttp://tv.yandex.ua/187/channels/401
p2772
sg1424
I225
sbsI226
g1412
(g1413
g1414
Ntp2773
Rp2774
(dp2775
g1418
Vhttp://avatars.yandex.net/get-tv-shows/1333715246259M47961/orig
p2776
sg1420
V\u0421\u043f\u043e\u0440\u0442 \u0421\u043e\u044e\u0437
p2777
sg1422
Vhttp://tv.yandex.ua/187/channels/306
p2778
sg1424
I226
sbsI227
g1412
(g1413
g1414
Ntp2779
Rp2780
(dp2781
g1418
Vhttp://avatars.yandex.net/get-tv-shows/1333712655586M1831/orig
p2782
sg1420
VPRO Business
p2783
sg1422
Vhttp://tv.yandex.ua/187/channels/214
p2784
sg1424
I227
sbsI228
g1412
(g1413
g1414
Ntp2785
Rp2786
(dp2787
g1418
Vhttp://avatars.yandex.net/get-tv-channel-logos/1358325521945M33990/orig
p2788
sg1420
V\u0411\u0435\u043b\u0430\u0440\u0443\u0441\u044c-24
p2789
sg1422
Vhttp://tv.yandex.ua/187/channels/851
p2790
sg1424
I228
sbsI229
g1412
(g1413
g1414
Ntp2791
Rp2792
(dp2793
g1418
Vhttp://avatars.yandex.net/get-tv-shows/1333715678250M70241/orig
p2794
sg1420
VMotors TV
p2795
sg1422
Vhttp://tv.yandex.ua/187/channels/531
p2796
sg1424
I229
sbsI230
g1412
(g1413
g1414
Ntp2797
Rp2798
(dp2799
g1418
Vhttp://avatars.yandex.net/get-tv-shows/1333713401739M87841/orig
p2800
sg1420
VTrace Urban
p2801
sg1422
Vhttp://tv.yandex.ua/187/channels/473
p2802
sg1424
I230
sbsI231
g1412
(g1413
g1414
Ntp2803
Rp2804
(dp2805
g1418
Vhttp://avatars.yandex.net/get-tv-shows/1333715692247M50804/orig
p2806
sg1420
V\u042e\u043c\u043e\u0440 BOX
p2807
sg1422
Vhttp://tv.yandex.ua/187/channels/412
p2808
sg1424
I231
sbsI232
g1412
(g1413
g1414
Ntp2809
Rp2810
(dp2811
g1418
Vhttp://avatars.yandex.net/get-tv-shows/1333713694458M58917/orig
p2812
sg1420
VMTV Music
p2813
sg1422
Vhttp://tv.yandex.ua/187/channels/430
p2814
sg1424
I232
sbsI233
g1412
(g1413
g1414
Ntp2815
Rp2816
(dp2817
g1418
Vhttp://avatars.yandex.net/get-tv-channel-logos/1356612022097M50743/orig
p2818
sg1420
V\u042d\u0433\u043e\u0438\u0441\u0442 \u0422\u0412
p2819
sg1422
Vhttp://tv.yandex.ua/187/channels/431
p2820
sg1424
I233
sbsI234
g1412
(g1413
g1414
Ntp2821
Rp2822
(dp2823
g1418
Vhttp://avatars.yandex.net/get-tv-shows/1333713010310M30552/orig
p2824
sg1420
V\u0410\u0413\u0420\u041e-\u0422\u0412
p2825
sg1422
Vhttp://tv.yandex.ua/187/channels/11
p2826
sg1424
I234
sbsI235
g1412
(g1413
g1414
Ntp2827
Rp2828
(dp2829
g1418
Vhttp://avatars.yandex.net/get-tv-shows/1334158126325M33910/orig
p2830
sg1420
V\u0420\u0430\u0437 \u0422\u0412
p2831
sg1422
Vhttp://tv.yandex.ua/187/channels/363
p2832
sg1424
I235
sbsI236
g1412
(g1413
g1414
Ntp2833
Rp2834
(dp2835
g1418
Vhttp://avatars.yandex.net/get-tv-shows/1333715291495M67100/orig
p2836
sg1420
V\u041f\u0440\u043e\u0441\u0432\u0435\u0449\u0435\u043d\u0438\u0435
p2837
sg1422
Vhttp://tv.yandex.ua/187/channels/685
p2838
sg1424
I236
sbsI237
g1412
(g1413
g1414
Ntp2839
Rp2840
(dp2841
g1418
Vhttp://avatars.yandex.net/get-tv-shows/1333713378901M21893/orig
p2842
sg1420
VPro \u0432\u0441\u0435
p2843
sg1422
Vhttp://tv.yandex.ua/187/channels/458
p2844
sg1424
I237
sbsI238
g1412
(g1413
g1414
Ntp2845
Rp2846
(dp2847
g1418
Vhttp://avatars.yandex.net/get-tv-shows/1333713578373M76326/orig
p2848
sg1420
VBRIDGE TV
p2849
sg1422
Vhttp://tv.yandex.ua/187/channels/151
p2850
sg1424
I238
sbsI239
g1412
(g1413
g1414
Ntp2851
Rp2852
(dp2853
g1418
Vhttp://avatars.yandex.net/get-tv-shows/1333716766094M95286/orig
p2854
sg1420
V\u0422\u0420\u041e
p2855
sg1422
Vhttp://tv.yandex.ua/187/channels/730
p2856
sg1424
I239
sbsI240
g1412
(g1413
g1414
Ntp2857
Rp2858
(dp2859
g1418
Vhttp://avatars.yandex.net/get-tv-shows/1333707965006M57212/orig
p2860
sg1420
V\u0417\u0430\u043a\u043e\u043d-\u0422\u0412
p2861
sg1422
Vhttp://tv.yandex.ua/187/channels/178
p2862
sg1424
I240
sbsI241
g1412
(g1413
g1414
Ntp2863
Rp2864
(dp2865
g1418
Vhttp://avatars.yandex.net/get-tv-shows/1333715232874M54663/orig
p2866
sg1420
V\u041d\u0430\u043d\u043e \u0422\u0412
p2867
sg1422
Vhttp://tv.yandex.ua/187/channels/35
p2868
sg1424
I241
sbsI242
g1412
(g1413
g1414
Ntp2869
Rp2870
(dp2871
g1418
Vhttp://avatars.yandex.net/get-tv-shows/1333708540363M22180/orig
p2872
sg1420
VMTV Live HD
p2873
sg1422
Vhttp://tv.yandex.ua/187/channels/382
p2874
sg1424
I242
sbsI243
g1412
(g1413
g1414
Ntp2875
Rp2876
(dp2877
g1418
Vhttp://avatars.yandex.net/get-tv-shows/1333708977916M89754/orig
p2878
sg1420
V\u0422\u0411\u041d
p2879
sg1422
Vhttp://tv.yandex.ua/187/channels/576
p2880
sg1424
I243
sbsI244
g1412
(g1413
g1414
Ntp2881
Rp2882
(dp2883
g1418
Vhttp://avatars.yandex.net/get-tv-shows/1333715189760M70159/orig
p2884
sg1420
V\u0421\u043e\u044e\u0437
p2885
sg1422
Vhttp://tv.yandex.ua/187/channels/349
p2886
sg1424
I244
sbsI245
g1412
(g1413
g1414
Ntp2887
Rp2888
(dp2889
g1418
Vhttp://avatars.yandex.net/get-tv-shows/1333709420684M86785/orig
p2890
sg1420
VMTV European
p2891
sg1422
Vhttp://tv.yandex.ua/187/channels/270
p2892
sg1424
I245
sbsI246
g1412
(g1413
g1414
Ntp2893
Rp2894
(dp2895
g1418
Vhttp://avatars.yandex.net/get-tv-shows/1333718307034M58256/orig
p2896
sg1420
V\u0414\u0435\u0432\u044f\u0442\u044b\u0439 (\u041e\u0440\u0431\u0438\u0442\u0430)
p2897
sg1422
Vhttp://tv.yandex.ua/187/channels/237
p2898
sg1424
I246
sbsI247
g1412
(g1413
g1414
Ntp2899
Rp2900
(dp2901
g1418
Vhttp://avatars.yandex.net/get-tv-shows/1333716969968M17969/orig
p2902
sg1420
V\u041a\u041f \u0422\u0412
p2903
sg1422
Vhttp://tv.yandex.ua/187/channels/852
p2904
sg1424
I247
sbsI248
g1412
(g1413
g1414
Ntp2905
Rp2906
(dp2907
g1418
Vhttp://avatars.yandex.net/get-tv-shows/1333715618499M86752/orig
p2908
sg1420
VSTV
p2909
sg1422
Vhttp://tv.yandex.ua/187/channels/165
p2910
sg1424
I248
sbsI249
g1412
(g1413
g1414
Ntp2911
Rp2912
(dp2913
g1418
Vhttp://avatars.yandex.net/get-tv-shows/1333715800906M7024/orig
p2914
sg1420
V\u041b\u044f-\u041c\u0438\u043d\u043e\u0440
p2915
sg1422
Vhttp://tv.yandex.ua/187/channels/257
p2916
sg1424
I249
sbsI250
g1412
(g1413
g1414
Ntp2917
Rp2918
(dp2919
g1418
Vhttp://avatars.yandex.net/get-tv-shows/1333713483747M17455/orig
p2920
sg1420
V\u0422\u0435\u043b\u0435\u043a\u0430\u043d\u0430\u043b 21+
p2921
sg1422
Vhttp://tv.yandex.ua/187/channels/492
p2922
sg1424
I250
sbsI251
g1412
(g1413
g1414
Ntp2923
Rp2924
(dp2925
g1418
Vhttp://avatars.yandex.net/get-tv-shows/1333708295391M71704/orig
p2926
sg1420
V\u0410\u0421\u0422\u0420\u041e \u0422\u0412
p2927
sg1422
Vhttp://tv.yandex.ua/187/channels/249
p2928
sg1424
I251
sbsI252
g1412
(g1413
g1414
Ntp2929
Rp2930
(dp2931
g1418
Vhttp://avatars.yandex.net/get-tv-shows/1333713846214M68965/orig
p2932
sg1420
VFine Living Network
p2933
sg1422
Vhttp://tv.yandex.ua/187/channels/393
p2934
sg1424
I252
sbsI253
g1412
(g1413
g1414
Ntp2935
Rp2936
(dp2937
g1418
Vhttp://avatars.yandex.net/get-tv-shows/1333715595667M50557/orig
p2938
sg1420
VRTVI (\u0420\u043e\u0441\u0441\u0438\u044f)
p2939
sg1422
Vhttp://tv.yandex.ua/2/channels/76
p2940
sg1424
I253
sbsI254
g1412
(g1413
g1414
Ntp2941
Rp2942
(dp2943
g1418
Vhttp://avatars.yandex.net/get-tv-shows/1333713580540M89714/orig
p2944
sg1420
V\u041f\u0435\u0440\u0432\u044b\u0439 (\u0420\u043e\u0441\u0441\u0438\u044f)
p2945
sg1422
Vhttp://tv.yandex.ua/2/channels/146
p2946
sg1424
I254
sbsI255
g1412
(g1413
g1414
Ntp2947
Rp2948
(dp2949
g1418
Vhttp://avatars.yandex.net/get-tv-channel-logos/1357908652792M87979/orig
p2950
sg1420
V\u0418\u041d\u0412\u0410 \u041c\u0415\u0414\u0418\u0410 \u0422\u0412
p2951
sg1422
Vhttp://tv.yandex.ua/2/channels/916
p2952
sg1424
I255
sbsI256
g1412
(g1413
g1414
Ntp2953
Rp2954
(dp2955
g1418
Vhttp://avatars.yandex.net/get-tv-channel-logos/1357919415462M55430/orig
p2956
sg1420
VNick Jr
p2957
sg1422
Vhttp://tv.yandex.ua/2/channels/917
p2958
sg1424
I256
sbsI257
g1412
(g1413
g1414
Ntp2959
Rp2960
(dp2961
g1418
Vhttp://avatars.yandex.net/get-tv-channel-logos/1357913833499M24505/orig
p2962
sg1420
VAMEDIA
p2963
sg1422
Vhttp://tv.yandex.ua/2/channels/918
p2964
sg1424
I257
sbsI258
g1412
(g1413
g1414
Ntp2965
Rp2966
(dp2967
g1418
Vhttp://avatars.yandex.net/get-tv-channel-logos/1357918253235M64900/orig
p2968
sg1420
VFashion One
p2969
sg1422
Vhttp://tv.yandex.ua/2/channels/919
p2970
sg1424
I258
sbsI259
g1412
(g1413
g1414
Ntp2971
Rp2972
(dp2973
g1418
Vhttp://avatars.yandex.net/get-tv-channel-logos/1357919285434M73777/orig
p2974
sg1420
VNHK WORLD TV
p2975
sg1422
Vhttp://tv.yandex.ua/2/channels/921
p2976
sg1424
I259
sbsI260
g1412
(g1413
g1414
Ntp2977
Rp2978
(dp2979
g1418
Vhttp://avatars.yandex.net/get-tv-channel-logos/1356772326416M40210/orig
p2980
sg1420
V\u041f\u0435\u0440\u0432\u044b\u0439 \u0418\u043d\u0442\u0435\u0440\u043d\u0435\u0442 \u041a\u0430\u043d\u0430\u043b
p2981
sg1422
Vhttp://tv.yandex.ua/2/channels/922
p2982
sg1424
I260
sbsI261
g1412
(g1413
g1414
Ntp2983
Rp2984
(dp2985
g1418
Vhttp://avatars.yandex.net/get-tv-channel-logos/1357918360691M18459/orig
p2986
sg1420
VGalaxy TV
p2987
sg1422
Vhttp://tv.yandex.ua/2/channels/924
p2988
sg1424
I261
sbsI262
g1412
(g1413
g1414
Ntp2989
Rp2990
(dp2991
g1418
Nsg1420
V\u0422\u0435\u0430\u0442\u0440
p2992
sg1422
Vhttp://tv.yandex.ua/2/channels/925
p2993
sg1424
I262
sbsI263
g1412
(g1413
g1414
Ntp2994
Rp2995
(dp2996
g1418
Vhttp://avatars.yandex.net/get-tv-channel-logos/1357920601762M75520/orig
p2997
sg1420
V\u041e\u0421\u0422
p2998
sg1422
Vhttp://tv.yandex.ua/2/channels/926
p2999
sg1424
I263
sbsI264
g1412
(g1413
g1414
Ntp3000
Rp3001
(dp3002
g1418
Vhttp://avatars.yandex.net/get-tv-channel-logos/1357918486310M81107/orig
p3003
sg1420
ViConcerts
p3004
sg1422
Vhttp://tv.yandex.ua/2/channels/927
p3005
sg1424
I264
sbsI265
g1412
(g1413
g1414
Ntp3006
Rp3007
(dp3008
g1418
Vhttp://avatars.yandex.net/get-tv-channel-logos/1357918127889M80429/orig
p3009
sg1420
VDiscovery \u0412\u043e\u0441\u0442\u043e\u0447\u043d\u0430\u044f \u0415\u0432\u0440\u043e\u043f\u0430
p3010
sg1422
Vhttp://tv.yandex.ua/2/channels/928
p3011
sg1424
I265
sbsI266
g1412
(g1413
g1414
Ntp3012
Rp3013
(dp3014
g1418
Vhttp://avatars.yandex.net/get-tv-channel-logos/1357917814887M75013/orig
p3015
sg1420
VBoomerang
p3016
sg1422
Vhttp://tv.yandex.ua/2/channels/929
p3017
sg1424
I266
sbsI267
g1412
(g1413
g1414
Ntp3018
Rp3019
(dp3020
g1418
Nsg1420
V\u0421\u0438\u043d\u0435\u0440\u0433\u0438\u044f \u0422\u0412
p3021
sg1422
Vhttp://tv.yandex.ua/2/channels/932
p3022
sg1424
I267
sbsI268
g1412
(g1413
g1414
Ntp3023
Rp3024
(dp3025
g1418
Vhttp://avatars.yandex.net/get-tv-channel-logos/1357921498530M48934/orig
p3026
sg1420
V\u0422\u041d\u0412-\u043f\u043b\u0430\u043d\u0435\u0442\u0430
p3027
sg1422
Vhttp://tv.yandex.ua/2/channels/933
p3028
sg1424
I268
sbsI269
g1412
(g1413
g1414
Ntp3029
Rp3030
(dp3031
g1418
Vhttp://avatars.yandex.net/get-tv-channel-logos/1356772679907M96463/orig
p3032
sg1420
VMGM HD (\u0420\u043e\u0441\u0441\u0438\u044f)
p3033
sg1422
Vhttp://tv.yandex.ua/2/channels/934
p3034
sg1424
I269
sbsI270
g1412
(g1413
g1414
Ntp3035
Rp3036
(dp3037
g1418
Vhttp://avatars.yandex.net/get-tv-channel-logos/1357913701365M55366/orig
p3038
sg1420
VSony Turbo
p3039
sg1422
Vhttp://tv.yandex.ua/2/channels/935
p3040
sg1424
I270
sbsI271
g1412
(g1413
g1414
Ntp3041
Rp3042
(dp3043
g1418
Vhttp://avatars.yandex.net/get-tv-shows/1333716066631M98688/orig
p3044
sg1420
V\u0420\u043e\u0441\u0441\u0438\u044f 1
p3045
sg1422
Vhttp://tv.yandex.ua/2/channels/317
p3046
sg1424
I271
sbsI272
g1412
(g1413
g1414
Ntp3047
Rp3048
(dp3049
g1418
Vhttp://avatars.yandex.net/get-tv-shows/1333712887585M67383/orig
p3050
sg1420
V\u0422\u0412 \u0426\u0435\u043d\u0442\u0440 - \u041e\u0422\u0412
p3051
sg1422
Vhttp://tv.yandex.ua/2/channels/287
p3052
sg1424
I272
sbsI273
g1412
(g1413
g1414
Ntp3053
Rp3054
(dp3055
g1418
Vhttp://avatars.yandex.net/get-tv-channel-logos/1335163832298M56121/orig
p3056
sg1420
V\u041d\u0422\u0412-\u041f\u0435\u0442\u0435\u0440\u0431\u0443\u0440\u0433
p3057
sg1422
Vhttp://tv.yandex.ua/2/channels/137
p3058
sg1424
I273
sbsI274
g1412
(g1413
g1414
Ntp3059
Rp3060
(dp3061
g1418
Vhttp://avatars.yandex.net/get-tv-shows/1333715287454M38977/orig
p3062
sg1420
V\u041a\u0443\u043b\u044c\u0442\u0443\u0440\u0430
p3063
sg1422
Vhttp://tv.yandex.ua/2/channels/371
p3064
sg1424
I274
sbsI275
g1412
(g1413
g1414
Ntp3065
Rp3066
(dp3067
g1418
Vhttp://avatars.yandex.net/get-tv-shows/1333715970102M90164/orig
p3068
sg1420
V\u0420\u043e\u0441\u0441\u0438\u044f 2
p3069
sg1422
Vhttp://tv.yandex.ua/2/channels/515
p3070
sg1424
I275
sbsI276
g1412
(g1413
g1414
Ntp3071
Rp3072
(dp3073
g1418
Vhttp://avatars.yandex.net/get-tv-shows/1333716877668M81858/orig
p3074
sg1420
V\u0422\u041d\u0422
p3075
sg1422
Vhttp://tv.yandex.ua/2/channels/749
p3076
sg1424
I276
sbsI277
g1412
(g1413
g1414
Ntp3077
Rp3078
(dp3079
g1418
Vhttp://avatars.yandex.net/get-tv-shows/1333708022681M12762/orig
p3080
sg1420
V\u041d\u0435\u0432\u0441\u043a\u0438\u0439 \u043a\u0430\u043d\u0430\u043b - \u0414\u043e\u043c\u0430\u0448\u043d\u0438\u0439
p3081
sg1422
Vhttp://tv.yandex.ua/2/channels/222
p3082
sg1424
I277
sbsI278
g1412
(g1413
g1414
Ntp3083
Rp3084
(dp3085
g1418
Vhttp://avatars.yandex.net/get-tv-shows/1333712627444M1787/orig
p3086
sg1420
V\u0420\u0415\u041d \u0422\u0412 (\u0420\u043e\u0441\u0441\u0438\u044f)
p3087
sg1422
Vhttp://tv.yandex.ua/2/channels/549
p3088
sg1424
I278
sbsI279
g1412
(g1413
g1414
Ntp3089
Rp3090
(dp3091
g1418
Vhttp://avatars.yandex.net/get-tv-channel-logos/1348142097301M59393/orig
p3092
sg1420
V\u0421\u0422\u0421-\u041f\u0435\u0442\u0435\u0440\u0431\u0443\u0440\u0433
p3093
sg1422
Vhttp://tv.yandex.ua/2/channels/654
p3094
sg1424
I279
sbsI280
g1412
(g1413
g1414
Ntp3095
Rp3096
(dp3097
g1418
Vhttp://avatars.yandex.net/get-tv-shows/1333715841928M45795/orig
p3098
sg1420
V5 \u043a\u0430\u043d\u0430\u043b (\u0420\u043e\u0441\u0441\u0438\u044f)
p3099
sg1422
Vhttp://tv.yandex.ua/2/channels/504
p3100
sg1424
I280
sbsI281
g1412
(g1413
g1414
Ntp3101
Rp3102
(dp3103
g1418
Vhttp://avatars.yandex.net/get-tv-channel-logos/1335452077321M11620/orig
p3104
sg1420
V\u0417\u0432\u0435\u0437\u0434\u0430
p3105
sg1422
Vhttp://tv.yandex.ua/2/channels/405
p3106
sg1424
I281
sbsI282
g1412
(g1413
g1414
Ntp3107
Rp3108
(dp3109
g1418
Vhttp://avatars.yandex.net/get-tv-shows/1333715624031M64884/orig
p3110
sg1420
V\u041f\u0415\u0420\u0415\u0426
p3111
sg1422
Vhttp://tv.yandex.ua/2/channels/511
p3112
sg1424
I282
sbsI283
g1412
(g1413
g1414
Ntp3113
Rp3114
(dp3115
g1418
Vhttp://avatars.yandex.net/get-tv-channel-logos/1347983572357M54298/orig
p3116
sg1420
V\u0422\u04123
p3117
sg1422
Vhttp://tv.yandex.ua/2/channels/279
p3118
sg1424
I283
sbsI284
g1412
(g1413
g1414
Ntp3119
Rp3120
(dp3121
g1418
Vhttp://avatars.yandex.net/get-tv-shows/1333715530204M4877/orig
p3122
sg1420
V\u0421\u0422\u041e
p3123
sg1422
Vhttp://tv.yandex.ua/2/channels/812
p3124
sg1424
I284
sbsI285
g1412
(g1413
g1414
Ntp3125
Rp3126
(dp3127
g1418
Vhttp://avatars.yandex.net/get-tv-channel-logos/1342424632063M32867/orig
p3128
sg1420
V\u0422\u0432\u043e\u0439 TV \u041f\u0435\u0442\u0435\u0440\u0431\u0443\u0440\u0433
p3129
sg1422
Vhttp://tv.yandex.ua/2/channels/38
p3130
sg1424
I285
sbsI286
g1412
(g1413
g1414
Ntp3131
Rp3132
(dp3133
g1418
Vhttp://avatars.yandex.net/get-tv-channel-logos/1347460169999M38830/orig
p3134
sg1420
V\u0421\u0430\u043d\u043a\u0442-\u041f\u0435\u0442\u0435\u0440\u0431\u0443\u0440\u0433
p3135
sg1422
Vhttp://tv.yandex.ua/2/channels/690
p3136
sg1424
I286
sbsI287
g1412
(g1413
g1414
Ntp3137
Rp3138
(dp3139
g1418
Vhttp://avatars.yandex.net/get-tv-shows/1333715233642M2369/orig
p3140
sg1420
V\u0420\u043e\u0441\u0441\u0438\u044f 24 (\u0420\u043e\u0441\u0441\u0438\u044f)
p3141
sg1422
Vhttp://tv.yandex.ua/2/channels/291
p3142
sg1424
I287
sbsI288
g1412
(g1413
g1414
Ntp3143
Rp3144
(dp3145
g1418
Vhttp://avatars.yandex.net/get-tv-shows/1333716066753M79169/orig
p3146
sg1420
V\u041a\u0430\u0440\u0443\u0441\u0435\u043b\u044c
p3147
sg1422
Vhttp://tv.yandex.ua/2/channels/740
p3148
sg1424
I288
sbsI289
g1412
(g1413
g1414
Ntp3149
Rp3150
(dp3151
g1418
Vhttp://avatars.yandex.net/get-tv-shows/1333712702411M41452/orig
p3152
sg1420
V2x2
p3153
sg1422
Vhttp://tv.yandex.ua/2/channels/323
p3154
sg1424
I289
sbsI290
g1412
(g1413
g1414
Ntp3155
Rp3156
(dp3157
g1418
Vhttp://avatars.yandex.net/get-tv-channel-logos/1340776908160M60325/orig
p3158
sg1420
VMTV
p3159
sg1422
Vhttp://tv.yandex.ua/2/channels/557
p3160
sg1424
I290
sbsI291
g1412
(g1413
g1414
Ntp3161
Rp3162
(dp3163
g1418
Vhttp://avatars.yandex.net/get-tv-channel-logos/1348230415979M21720/orig
p3164
sg1420
V\u042e
p3165
sg1422
Vhttp://tv.yandex.ua/2/channels/898
p3166
sg1424
I291
sbsI292
g1412
(g1413
g1414
Ntp3167
Rp3168
(dp3169
g1418
Vhttp://avatars.yandex.net/get-tv-channel-logos/1335334386799M30858/orig
p3170
sg1420
V\u041a\u0430\u043d\u0430\u043b Disney
p3171
sg1422
Vhttp://tv.yandex.ua/2/channels/150
p3172
sg1424
I292
sbsI293
g1412
(g1413
g1414
Ntp3173
Rp3174
(dp3175
g1418
Vhttp://avatars.yandex.net/get-tv-shows/1333715305318M14526/orig
p3176
sg1420
V24 \u0422\u0435\u0445\u043d\u043e (\u0420\u043e\u0441\u0441\u0438\u044f)
p3177
sg1422
Vhttp://tv.yandex.ua/2/channels/710
p3178
sg1424
I293
sbsI294
g1412
(g1413
g1414
Ntp3179
Rp3180
(dp3181
g1418
Vhttp://avatars.yandex.net/get-tv-shows/1333716796927M20496/orig
p3182
sg1420
VAB Moteurs (\u0420\u043e\u0441\u0441\u0438\u044f)
p3183
sg1422
Vhttp://tv.yandex.ua/2/channels/579
p3184
sg1424
I294
sbsI295
g1412
(g1413
g1414
Ntp3185
Rp3186
(dp3187
g1418
Vhttp://avatars.yandex.net/get-tv-shows/1333708911984M73554/orig
p3188
sg1420
VAmazing Life (\u0420\u043e\u0441\u0441\u0438\u044f)
p3189
sg1422
Vhttp://tv.yandex.ua/2/channels/658
p3190
sg1424
I295
sbsI296
g1412
(g1413
g1414
Ntp3191
Rp3192
(dp3193
g1418
Vhttp://avatars.yandex.net/get-tv-shows/1333713824656M29108/orig
p3194
sg1420
VAjara TV (\u0420\u043e\u0441\u0441\u0438\u044f)
p3195
sg1422
Vhttp://tv.yandex.ua/2/channels/756
p3196
sg1424
I296
sbsI297
g1412
(g1413
g1414
Ntp3197
Rp3198
(dp3199
g1418
Vhttp://avatars.yandex.net/get-tv-shows/1333713418822M90839/orig
p3200
sg1420
VAnimal Planet (\u0420\u043e\u0441\u0441\u0438\u044f)
p3201
sg1422
Vhttp://tv.yandex.ua/2/channels/365
p3202
sg1424
I297
sbsI298
g1412
(g1413
g1414
Ntp3203
Rp3204
(dp3205
g1418
Vhttp://avatars.yandex.net/get-tv-channel-logos/1347977468008M80159/orig
p3206
sg1420
VAXN Sci-Fi (\u0420\u043e\u0441\u0441\u0438\u044f)
p3207
sg1422
Vhttp://tv.yandex.ua/2/channels/516
p3208
sg1424
I298
sbsI299
g1412
(g1413
g1414
Ntp3209
Rp3210
(dp3211
g1418
Vhttp://avatars.yandex.net/get-tv-shows/1333713774748M13525/orig
p3212
sg1420
VBloomberg (\u0420\u043e\u0441\u0441\u0438\u044f)
p3213
sg1422
Vhttp://tv.yandex.ua/2/channels/463
p3214
sg1424
I299
sbsI300
g1412
(g1413
g1414
Ntp3215
Rp3216
(dp3217
g1418
Vhttp://avatars.yandex.net/get-tv-shows/1333713460684M81763/orig
p3218
sg1420
VCartoon Network (\u0420\u043e\u0441\u0441\u0438\u044f)
p3219
sg1422
Vhttp://tv.yandex.ua/2/channels/601
p3220
sg1424
I300
sbsI301
g1412
(g1413
g1414
Ntp3221
Rp3222
(dp3223
g1418
Vhttp://avatars.yandex.net/get-tv-shows/1333715265608M77219/orig
p3224
sg1420
VBBC World (\u0420\u043e\u0441\u0441\u0438\u044f)
p3225
sg1422
Vhttp://tv.yandex.ua/2/channels/828
p3226
sg1424
I301
sbsI302
g1412
(g1413
g1414
Ntp3227
Rp3228
(dp3229
g1418
Vhttp://avatars.yandex.net/get-tv-shows/1333713868645M58659/orig
p3230
sg1420
VCNN (\u0420\u043e\u0441\u0441\u0438\u044f)
p3231
sg1422
Vhttp://tv.yandex.ua/2/channels/495
p3232
sg1424
I302
sbsI303
g1412
(g1413
g1414
Ntp3233
Rp3234
(dp3235
g1418
Vhttp://avatars.yandex.net/get-tv-shows/1333716035229M94207/orig
p3236
sg1420
VDiscovery Channel (\u0420\u043e\u0441\u0441\u0438\u044f)
p3237
sg1422
Vhttp://tv.yandex.ua/2/channels/325
p3238
sg1424
I303
sbsI304
g1412
(g1413
g1414
Ntp3239
Rp3240
(dp3241
g1418
Vhttp://avatars.yandex.net/get-tv-channel-logos/1358335632205M86039/orig
p3242
sg1420
VDiscovery Science (\u0420\u043e\u0441\u0441\u0438\u044f)
p3243
sg1422
Vhttp://tv.yandex.ua/2/channels/409
p3244
sg1424
I304
sbsI305
g1412
(g1413
g1414
Ntp3245
Rp3246
(dp3247
g1418
Vhttp://avatars.yandex.net/get-tv-shows/1333712606553M24172/orig
p3248
sg1420
VDeutsche Welle (\u0420\u043e\u0441\u0441\u0438\u044f)
p3249
sg1422
Vhttp://tv.yandex.ua/2/channels/355
p3250
sg1424
I305
sbsI306
g1412
(g1413
g1414
Ntp3251
Rp3252
(dp3253
g1418
Vhttp://avatars.yandex.net/get-tv-channel-logos/1358335592919M76257/orig
p3254
sg1420
VDiscovery World (\u0420\u043e\u0441\u0441\u0438\u044f)
p3255
sg1422
Vhttp://tv.yandex.ua/2/channels/437
p3256
sg1424
I306
sbsI307
g1412
(g1413
g1414
Ntp3257
Rp3258
(dp3259
g1418
Vhttp://avatars.yandex.net/get-tv-shows/1333713695937M46754/orig
p3260
sg1420
VESPN classic (\u0420\u043e\u0441\u0441\u0438\u044f)
p3261
sg1422
Vhttp://tv.yandex.ua/2/channels/60
p3262
sg1424
I307
sbsI308
g1412
(g1413
g1414
Ntp3263
Rp3264
(dp3265
g1418
Vhttp://avatars.yandex.net/get-tv-shows/1333715747653M72464/orig
p3266
sg1420
VEuroNews (\u0420\u043e\u0441\u0441\u0438\u044f)
p3267
sg1422
Vhttp://tv.yandex.ua/2/channels/23
p3268
sg1424
I308
sbsI309
g1412
(g1413
g1414
Ntp3269
Rp3270
(dp3271
g1418
Vhttp://avatars.yandex.net/get-tv-shows/1333713989705M95921/orig
p3272
sg1420
VEurosport 2 (\u0420\u043e\u0441\u0441\u0438\u044f)
p3273
sg1422
Vhttp://tv.yandex.ua/2/channels/850
p3274
sg1424
I309
sbsI310
g1412
(g1413
g1414
Ntp3275
Rp3276
(dp3277
g1418
Vhttp://avatars.yandex.net/get-tv-shows/1333716877043M9588/orig
p3278
sg1420
VExtreme Sports (\u0420\u043e\u0441\u0441\u0438\u044f)
p3279
sg1422
Vhttp://tv.yandex.ua/2/channels/288
p3280
sg1424
I310
sbsI311
g1412
(g1413
g1414
Ntp3281
Rp3282
(dp3283
g1418
Vhttp://avatars.yandex.net/get-tv-shows/1333713810610M50051/orig
p3284
sg1420
VFashion TV (\u0420\u043e\u0441\u0441\u0438\u044f)
p3285
sg1422
Vhttp://tv.yandex.ua/2/channels/661
p3286
sg1424
I311
sbsI312
g1412
(g1413
g1414
Ntp3287
Rp3288
(dp3289
g1418
Vhttp://avatars.yandex.net/get-tv-shows/1333713925399M49999/orig
p3290
sg1420
VHD \u0421\u043f\u043e\u0440\u0442 (\u0420\u043e\u0441\u0441\u0438\u044f)
p3291
sg1422
Vhttp://tv.yandex.ua/2/channels/429
p3292
sg1424
I312
sbsI313
g1412
(g1413
g1414
Ntp3293
Rp3294
(dp3295
g1418
Vhttp://avatars.yandex.net/get-tv-shows/1333713840422M72865/orig
p3296
sg1420
VMezzo (\u0420\u043e\u0441\u0441\u0438\u044f)
p3297
sg1422
Vhttp://tv.yandex.ua/2/channels/575
p3298
sg1424
I313
sbsI314
g1412
(g1413
g1414
Ntp3299
Rp3300
(dp3301
g1418
Vhttp://avatars.yandex.net/get-tv-shows/1333715529423M53477/orig
p3302
sg1420
VNational Geographic (\u0420\u043e\u0441\u0441\u0438\u044f)
p3303
sg1422
Vhttp://tv.yandex.ua/2/channels/102
p3304
sg1424
I314
sbsI315
g1412
(g1413
g1414
Ntp3305
Rp3306
(dp3307
g1418
Vhttp://avatars.yandex.net/get-tv-shows/1333715355758M56368/orig
p3308
sg1420
VLuxe HD (\u0420\u043e\u0441\u0441\u0438\u044f)
p3309
sg1422
Vhttp://tv.yandex.ua/2/channels/312
p3310
sg1424
I315
sbsI316
g1412
(g1413
g1414
Ntp3311
Rp3312
(dp3313
g1418
Vhttp://avatars.yandex.net/get-tv-shows/1333713621438M28015/orig
p3314
sg1420
VNickelodeon (\u0420\u043e\u0441\u0441\u0438\u044f)
p3315
sg1422
Vhttp://tv.yandex.ua/2/channels/567
p3316
sg1424
I316
sbsI317
g1412
(g1413
g1414
Ntp3317
Rp3318
(dp3319
g1418
Vhttp://avatars.yandex.net/get-tv-shows/1333713085591M64755/orig
p3320
sg1420
VOcean TV (\u0420\u043e\u0441\u0441\u0438\u044f)
p3321
sg1422
Vhttp://tv.yandex.ua/2/channels/55
p3322
sg1424
I317
sbsI318
g1412
(g1413
g1414
Ntp3323
Rp3324
(dp3325
g1418
Vhttp://avatars.yandex.net/get-tv-shows/1333715680495M54747/orig
p3326
sg1420
VSyFy (\u0420\u043e\u0441\u0441\u0438\u044f)
p3327
sg1422
Vhttp://tv.yandex.ua/2/channels/75
p3328
sg1424
I318
sbsI319
g1412
(g1413
g1414
Ntp3329
Rp3330
(dp3331
g1418
Vhttp://avatars.yandex.net/get-tv-shows/1333715322381M67288/orig
p3332
sg1420
VTV1000 (\u0420\u043e\u0441\u0441\u0438\u044f)
p3333
sg1422
Vhttp://tv.yandex.ua/2/channels/127
p3334
sg1424
I319
sbsI320
g1412
(g1413
g1414
Ntp3335
Rp3336
(dp3337
g1418
Vhttp://avatars.yandex.net/get-tv-shows/1333716722923M49423/orig
p3338
sg1420
VTV1000 \u0420\u0443\u0441\u0441\u043a\u043e\u0435 \u043a\u0438\u043d\u043e (\u0420\u043e\u0441\u0441\u0438\u044f)
p3339
sg1422
Vhttp://tv.yandex.ua/2/channels/267
p3340
sg1424
I320
sbsI321
g1412
(g1413
g1414
Ntp3341
Rp3342
(dp3343
g1418
Vhttp://avatars.yandex.net/get-tv-shows/1333713975231M23496/orig
p3344
sg1420
VTV XXI (\u0420\u043e\u0441\u0441\u0438\u044f)
p3345
sg1422
Vhttp://tv.yandex.ua/2/channels/309
p3346
sg1424
I321
sbsI322
g1412
(g1413
g1414
Ntp3347
Rp3348
(dp3349
g1418
Vhttp://avatars.yandex.net/get-tv-shows/1333713708028M30550/orig
p3350
sg1420
VTV5 (\u0420\u043e\u0441\u0441\u0438\u044f)
p3351
sg1422
Vhttp://tv.yandex.ua/2/channels/589
p3352
sg1424
I322
sbsI323
g1412
(g1413
g1414
Ntp3353
Rp3354
(dp3355
g1418
Vhttp://avatars.yandex.net/get-tv-shows/1333713528423M49234/orig
p3356
sg1420
VUniversal Channel (\u0420\u043e\u0441\u0441\u0438\u044f)
p3357
sg1422
Vhttp://tv.yandex.ua/2/channels/213
p3358
sg1424
I323
sbsI324
g1412
(g1413
g1414
Ntp3359
Rp3360
(dp3361
g1418
Vhttp://avatars.yandex.net/get-tv-shows/1333715635729M66606/orig
p3362
sg1420
VViasat Explorer (\u0420\u043e\u0441\u0441\u0438\u044f)
p3363
sg1422
Vhttp://tv.yandex.ua/2/channels/521
p3364
sg1424
I324
sbsI325
g1412
(g1413
g1414
Ntp3365
Rp3366
(dp3367
g1418
Vhttp://avatars.yandex.net/get-tv-shows/1333715410270M23339/orig
p3368
sg1420
VViasat History (\u0420\u043e\u0441\u0441\u0438\u044f)
p3369
sg1422
Vhttp://tv.yandex.ua/2/channels/277
p3370
sg1424
I325
sbsI326
g1412
(g1413
g1414
Ntp3371
Rp3372
(dp3373
g1418
Vhttp://avatars.yandex.net/get-tv-shows/1333707549264M49253/orig
p3374
sg1420
VWorld Fashion Channel (\u0420\u043e\u0441\u0441\u0438\u044f)
p3375
sg1422
Vhttp://tv.yandex.ua/2/channels/346
p3376
sg1424
I326
sbsI327
g1412
(g1413
g1414
Ntp3377
Rp3378
(dp3379
g1418
Vhttp://avatars.yandex.net/get-tv-shows/1333716071391M27068/orig
p3380
sg1420
V\u0411\u043e\u0435\u0446 (\u0420\u043e\u0441\u0441\u0438\u044f)
p3381
sg1422
Vhttp://tv.yandex.ua/2/channels/454
p3382
sg1424
I327
sbsI328
g1412
(g1413
g1414
Ntp3383
Rp3384
(dp3385
g1418
Vhttp://avatars.yandex.net/get-tv-shows/1333713688755M57280/orig
p3386
sg1420
V\u0412\u0440\u0435\u043c\u044f (\u0420\u043e\u0441\u0441\u0438\u044f)
p3387
sg1422
Vhttp://tv.yandex.ua/2/channels/669
p3388
sg1424
I328
sbsI329
g1412
(g1413
g1414
Ntp3389
Rp3390
(dp3391
g1418
Vhttp://avatars.yandex.net/get-tv-channel-logos/1348587564748M70641/orig
p3392
sg1420
V\u0414\u0435\u0442\u0441\u043a\u0438\u0439 (\u0420\u043e\u0441\u0441\u0438\u044f)
p3393
sg1422
Vhttp://tv.yandex.ua/2/channels/66
p3394
sg1424
I329
sbsI330
g1412
(g1413
g1414
Ntp3395
Rp3396
(dp3397
g1418
Vhttp://avatars.yandex.net/get-tv-channel-logos/1356771171081M25756/orig
p3398
sg1420
V\u0414\u0435\u0442\u0441\u043a\u0438\u0439 \u043c\u0438\u0440 (\u0420\u043e\u0441\u0441\u0438\u044f)
p3399
sg1422
Vhttp://tv.yandex.ua/2/channels/747
p3400
sg1424
I330
sbsI331
g1412
(g1413
g1414
Ntp3401
Rp3402
(dp3403
g1418
Vhttp://avatars.yandex.net/get-tv-shows/1333708636011M82578/orig
p3404
sg1420
V\u0414\u043e\u043c \u043a\u0438\u043d\u043e (\u0420\u043e\u0441\u0441\u0438\u044f)
p3405
sg1422
Vhttp://tv.yandex.ua/2/channels/834
p3406
sg1424
I331
sbsI332
g1412
(g1413
g1414
Ntp3407
Rp3408
(dp3409
g1418
Vhttp://avatars.yandex.net/get-tv-shows/1333707554614M47050/orig
p3410
sg1420
V\u0417\u043e\u043e \u0422\u0412 (\u0420\u043e\u0441\u0441\u0438\u044f)
p3411
sg1422
Vhttp://tv.yandex.ua/2/channels/273
p3412
sg1424
I332
sbsI333
g1412
(g1413
g1414
Ntp3413
Rp3414
(dp3415
g1418
Vhttp://avatars.yandex.net/get-tv-shows/1333715691315M43621/orig
p3416
sg1420
V\u0418\u043b\u043b\u044e\u0437\u0438\u043e\u043d + (\u0420\u043e\u0441\u0441\u0438\u044f)
p3417
sg1422
Vhttp://tv.yandex.ua/2/channels/123
p3418
sg1424
I333
sbsI334
g1412
(g1413
g1414
Ntp3419
Rp3420
(dp3421
g1418
Vhttp://avatars.yandex.net/get-tv-shows/1333707995986M34877/orig
p3422
sg1420
V\u0418\u043d\u0434\u0438\u044f \u0422\u0412 (\u0420\u043e\u0441\u0441\u0438\u044f)
p3423
sg1422
Vhttp://tv.yandex.ua/2/channels/798
p3424
sg1424
I334
sbsI335
g1412
(g1413
g1414
Ntp3425
Rp3426
(dp3427
g1418
Vhttp://avatars.yandex.net/get-tv-shows/1333708316300M57639/orig
p3428
sg1420
V\u041a\u0438\u043d\u043e\u043a\u043b\u0443\u0431 (\u0420\u043e\u0441\u0441\u0438\u044f)
p3429
sg1422
Vhttp://tv.yandex.ua/2/channels/462
p3430
sg1424
I335
sbsI336
g1412
(g1413
g1414
Ntp3431
Rp3432
(dp3433
g1418
Vhttp://avatars.yandex.net/get-tv-shows/1333716891806M18999/orig
p3434
sg1420
V\u041a\u0438\u043d\u043e\u043f\u043e\u043a\u0430\u0437 (\u0420\u043e\u0441\u0441\u0438\u044f)
p3435
sg1422
Vhttp://tv.yandex.ua/2/channels/22
p3436
sg1424
I336
sbsI337
g1412
(g1413
g1414
Ntp3437
Rp3438
(dp3439
g1418
Vhttp://avatars.yandex.net/get-tv-shows/1333715225057M89214/orig
p3440
sg1420
V\u041a\u0438\u043d\u043e\u0441\u043e\u044e\u0437 (\u0420\u043e\u0441\u0441\u0438\u044f)
p3441
sg1422
Vhttp://tv.yandex.ua/2/channels/71
p3442
sg1424
I337
sbsI338
g1412
(g1413
g1414
Ntp3443
Rp3444
(dp3445
g1418
Vhttp://avatars.yandex.net/get-tv-shows/1333713093430M11517/orig
p3446
sg1420
V\u041a\u0438\u043d\u043e\u0445\u0438\u0442 (\u0420\u043e\u0441\u0441\u0438\u044f)
p3447
sg1422
Vhttp://tv.yandex.ua/2/channels/542
p3448
sg1424
I338
sbsI339
g1412
(g1413
g1414
Ntp3449
Rp3450
(dp3451
g1418
Vhttp://avatars.yandex.net/get-tv-channel-logos/1352298708156M61329/orig
p3452
sg1420
V\u041c\u0430\u0442\u044c \u0438 \u0434\u0438\u0442\u044f (\u0420\u043e\u0441\u0441\u0438\u044f)
p3453
sg1422
Vhttp://tv.yandex.ua/2/channels/618
p3454
sg1424
I339
sbsI340
g1412
(g1413
g1414
Ntp3455
Rp3456
(dp3457
g1418
Vhttp://avatars.yandex.net/get-tv-shows/1333713764780M72648/orig
p3458
sg1420
V\u041c\u043e\u044f \u041f\u043b\u0430\u043d\u0435\u0442\u0430 (\u0420\u043e\u0441\u0441\u0438\u044f)
p3459
sg1422
Vhttp://tv.yandex.ua/2/channels/675
p3460
sg1424
I340
sbsI341
g1412
(g1413
g1414
Ntp3461
Rp3462
(dp3463
g1418
Vhttp://avatars.yandex.net/get-tv-channel-logos/1352298732686M97290/orig
p3464
sg1420
V\u041d\u0430\u0441\u0442\u043e\u044f\u0449\u0435\u0435 \u0421\u0442\u0440\u0430\u0448\u043d\u043e\u0435 \u0422\u0435\u043b\u0435\u0432\u0438\u0434\u0435\u043d\u0438\u0435 (\u0420\u043e\u0441\u0441\u0438\u044f)
p3465
sg1422
Vhttp://tv.yandex.ua/2/channels/518
p3466
sg1424
I341
sbsI342
g1412
(g1413
g1414
Ntp3467
Rp3468
(dp3469
g1418
Vhttp://avatars.yandex.net/get-tv-shows/1333715883475M39981/orig
p3470
sg1420
V\u041d\u0430\u0448\u0435 \u043a\u0438\u043d\u043e (\u0420\u043e\u0441\u0441\u0438\u044f)
p3471
sg1422
Vhttp://tv.yandex.ua/2/channels/12
p3472
sg1424
I342
sbsI343
g1412
(g1413
g1414
Ntp3473
Rp3474
(dp3475
g1418
Vhttp://avatars.yandex.net/get-tv-shows/1333715281884M92118/orig
p3476
sg1420
V\u041d\u0430\u0448\u0435 \u041d\u043e\u0432\u043e\u0435 \u041a\u0438\u043d\u043e (\u0420\u043e\u0441\u0441\u0438\u044f)
p3477
sg1422
Vhttp://tv.yandex.ua/2/channels/485
p3478
sg1424
I343
sbsI344
g1412
(g1413
g1414
Ntp3479
Rp3480
(dp3481
g1418
Vhttp://avatars.yandex.net/get-tv-shows/1333709127662M17128/orig
p3482
sg1420
V\u041d\u043e\u0441\u0442\u0430\u043b\u044c\u0433\u0438\u044f (\u0420\u043e\u0441\u0441\u0438\u044f)
p3483
sg1422
Vhttp://tv.yandex.ua/2/channels/783
p3484
sg1424
I344
sbsI345
g1412
(g1413
g1414
Ntp3485
Rp3486
(dp3487
g1418
Vhttp://avatars.yandex.net/get-tv-shows/1333715457097M72151/orig
p3488
sg1420
V\u041e\u0445\u043e\u0442\u0430 \u0438 \u0440\u044b\u0431\u0430\u043b\u043a\u0430 (\u0420\u043e\u0441\u0441\u0438\u044f)
p3489
sg1422
Vhttp://tv.yandex.ua/2/channels/617
p3490
sg1424
I345
sbsI346
g1412
(g1413
g1414
Ntp3491
Rp3492
(dp3493
g1418
Vhttp://avatars.yandex.net/get-tv-shows/1333707582031M183/orig
p3494
sg1420
V\u041f\u0440\u0435\u043c\u044c\u0435\u0440\u0430 (\u0420\u043e\u0441\u0441\u0438\u044f)
p3495
sg1422
Vhttp://tv.yandex.ua/2/channels/566
p3496
sg1424
I346
sbsI347
g1412
(g1413
g1414
Ntp3497
Rp3498
(dp3499
g1418
Vhttp://avatars.yandex.net/get-tv-shows/1333712861918M74194/orig
p3500
sg1420
V\u0420\u0430\u0434\u043e\u0441\u0442\u044c \u041c\u043e\u044f (\u0420\u043e\u0441\u0441\u0438\u044f)
p3501
sg1422
Vhttp://tv.yandex.ua/2/channels/638
p3502
sg1424
I347
sbsI348
g1412
(g1413
g1414
Ntp3503
Rp3504
(dp3505
g1418
Vhttp://avatars.yandex.net/get-tv-shows/1333715993038M13981/orig
p3506
sg1420
V\u041c\u0443\u0437\u044b\u043a\u0430 \u041f\u0435\u0440\u0432\u043e\u0433\u043e (\u0420\u043e\u0441\u0441\u0438\u044f)
p3507
sg1422
Vhttp://tv.yandex.ua/2/channels/715
p3508
sg1424
I348
sbsI349
g1412
(g1413
g1414
Ntp3509
Rp3510
(dp3511
g1418
Vhttp://avatars.yandex.net/get-tv-shows/1333716071911M4423/orig
p3512
sg1420
V\u0420\u0411\u041a (\u0420\u043e\u0441\u0441\u0438\u044f)
p3513
sg1422
Vhttp://tv.yandex.ua/2/channels/743
p3514
sg1424
I349
sbsI350
g1412
(g1413
g1414
Ntp3515
Rp3516
(dp3517
g1418
Vhttp://avatars.yandex.net/get-tv-channel-logos/1348587808200M68387/orig
p3518
sg1420
V\u0420\u0443\u0441\u0441\u043a\u0438\u0439 \u0418\u043b\u043b\u044e\u0437\u0438\u043e\u043d (\u0420\u043e\u0441\u0441\u0438\u044f)
p3519
sg1422
Vhttp://tv.yandex.ua/2/channels/53
p3520
sg1424
I350
sbsI351
g1412
(g1413
g1414
Ntp3521
Rp3522
(dp3523
g1418
Vhttp://avatars.yandex.net/get-tv-shows/1333709116007M94471/orig
p3524
sg1420
V\u0420\u0443\u0441\u0441\u043a\u0438\u0439 \u042d\u043a\u0441\u0442\u0440\u0438\u043c (\u0420\u043e\u0441\u0441\u0438\u044f)
p3525
sg1422
Vhttp://tv.yandex.ua/2/channels/406
p3526
sg1424
I351
sbsI352
g1412
(g1413
g1414
Ntp3527
Rp3528
(dp3529
g1418
Vhttp://avatars.yandex.net/get-tv-channel-logos/1347458235853M37527/orig
p3530
sg1420
V\u0421\u0430\u0440\u0430\u0444\u0430\u043d (\u0420\u043e\u0441\u0441\u0438\u044f)
p3531
sg1422
Vhttp://tv.yandex.ua/2/channels/663
p3532
sg1424
I352
sbsI353
g1412
(g1413
g1414
Ntp3533
Rp3534
(dp3535
g1418
Vhttp://avatars.yandex.net/get-tv-shows/1333713216376M58195/orig
p3536
sg1420
V\u0421\u043f\u0430\u0441 \u0422\u0412 (\u0420\u043e\u0441\u0441\u0438\u044f)
p3537
sg1422
Vhttp://tv.yandex.ua/2/channels/447
p3538
sg1424
I353
sbsI354
g1412
(g1413
g1414
Ntp3539
Rp3540
(dp3541
g1418
Vhttp://avatars.yandex.net/get-tv-shows/1333715467716M44576/orig
p3542
sg1420
V\u0421\u043f\u043e\u0440\u0442 1 (\u0420\u043e\u0441\u0441\u0438\u044f)
p3543
sg1422
Vhttp://tv.yandex.ua/2/channels/181
p3544
sg1424
I354
sbsI355
g1412
(g1413
g1414
Ntp3545
Rp3546
(dp3547
g1418
Vhttp://avatars.yandex.net/get-tv-shows/1333708104672M58814/orig
p3548
sg1420
V\u041e2\u0422\u0412 (\u0420\u043e\u0441\u0441\u0438\u044f)
p3549
sg1422
Vhttp://tv.yandex.ua/2/channels/777
p3550
sg1424
I355
sbsI356
g1412
(g1413
g1414
Ntp3551
Rp3552
(dp3553
g1418
Vhttp://avatars.yandex.net/get-tv-shows/1333715984312M65283/orig
p3554
sg1420
V\u0422\u0435\u043b\u0435\u043a\u0430\u0444\u0435 (\u0420\u043e\u0441\u0441\u0438\u044f)
p3555
sg1422
Vhttp://tv.yandex.ua/2/channels/173
p3556
sg1424
I356
sbsI357
g1412
(g1413
g1414
Ntp3557
Rp3558
(dp3559
g1418
Vhttp://avatars.yandex.net/get-tv-shows/1333712862861M8549/orig
p3560
sg1420
V\u0422\u0435\u043b\u0435\u043a\u043b\u0443\u0431 (\u0420\u043e\u0441\u0441\u0438\u044f)
p3561
sg1422
Vhttp://tv.yandex.ua/2/channels/163
p3562
sg1424
I357
sbsI358
g1412
(g1413
g1414
Ntp3563
Rp3564
(dp3565
g1418
Vhttp://avatars.yandex.net/get-tv-shows/1333715659064M35098/orig
p3566
sg1420
V\u0422\u0435\u043b\u0435\u043f\u0443\u0442\u0435\u0448\u0435\u0441\u0442\u0432\u0438\u044f (\u0420\u043e\u0441\u0441\u0438\u044f)
p3567
sg1422
Vhttp://tv.yandex.ua/2/channels/794
p3568
sg1424
I358
sbsI359
g1412
(g1413
g1414
Ntp3569
Rp3570
(dp3571
g1418
Vhttp://avatars.yandex.net/get-tv-shows/1333717714948M87568/orig
p3572
sg1420
V\u0422\u0438\u043d \u0422\u0412 (\u0420\u043e\u0441\u0441\u0438\u044f)
p3573
sg1422
Vhttp://tv.yandex.ua/2/channels/716
p3574
sg1424
I359
sbsI360
g1412
(g1413
g1414
Ntp3575
Rp3576
(dp3577
g1418
Vhttp://avatars.yandex.net/get-tv-shows/1333715632130M79158/orig
p3578
sg1420
V\u0422\u041d\u0412 (\u0420\u043e\u0441\u0441\u0438\u044f)
p3579
sg1422
Vhttp://tv.yandex.ua/2/channels/180
p3580
sg1424
I360
sbsI361
g1412
(g1413
g1414
Ntp3581
Rp3582
(dp3583
g1418
Vhttp://avatars.yandex.net/get-tv-shows/1333713418795M13518/orig
p3584
sg1420
V\u0423\u0441\u0430\u0434\u044c\u0431\u0430 (\u0420\u043e\u0441\u0441\u0438\u044f)
p3585
sg1422
Vhttp://tv.yandex.ua/2/channels/779
p3586
sg1424
I361
sbsI362
g1412
(g1413
g1414
Ntp3587
Rp3588
(dp3589
g1418
Vhttp://avatars.yandex.net/get-tv-shows/1333713835801M19218/orig
p3590
sg1420
V\u0424\u0435\u043d\u0438\u043a\u0441+ \u041a\u0438\u043d\u043e (\u0420\u043e\u0441\u0441\u0438\u044f)
p3591
sg1422
Vhttp://tv.yandex.ua/2/channels/686
p3592
sg1424
I362
sbsI363
g1412
(g1413
g1414
Ntp3593
Rp3594
(dp3595
g1418
Vhttp://avatars.yandex.net/get-tv-shows/1333712629582M95129/orig
p3596
sg1420
V\u042d\u043a\u0441\u043f\u0435\u0440\u0442-\u0422\u0412 (\u0420\u043e\u0441\u0441\u0438\u044f)
p3597
sg1422
Vhttp://tv.yandex.ua/2/channels/781
p3598
sg1424
I363
sbsI364
g1412
(g1413
g1414
Ntp3599
Rp3600
(dp3601
g1418
Vhttp://avatars.yandex.net/get-tv-shows/1333709354444M76906/orig
p3602
sg1420
V24 \u0414\u041e\u041a (\u0420\u043e\u0441\u0441\u0438\u044f)
p3603
sg1422
Vhttp://tv.yandex.ua/2/channels/16
p3604
sg1424
I364
sbsI365
g1412
(g1413
g1414
Ntp3605
Rp3606
(dp3607
g1418
Vhttp://avatars.yandex.net/get-tv-shows/1333712806377M47354/orig
p3608
sg1420
V\u0421\u0442\u0440\u0430\u043d\u0430 (\u0420\u043e\u0441\u0441\u0438\u044f)
p3609
sg1422
Vhttp://tv.yandex.ua/2/channels/284
p3610
sg1424
I365
sbsI366
g1412
(g1413
g1414
Ntp3611
Rp3612
(dp3613
g1418
Vhttp://avatars.yandex.net/get-tv-shows/1333716896322M65134/orig
p3614
sg1420
VBBC (\u0420\u043e\u0441\u0441\u0438\u044f)
p3615
sg1422
Vhttp://tv.yandex.ua/2/channels/502
p3616
sg1424
I366
sbsI367
g1412
(g1413
g1414
Ntp3617
Rp3618
(dp3619
g1418
Vhttp://avatars.yandex.net/get-tv-shows/1333716106733M58501/orig
p3620
sg1420
VDa Vinci (\u0420\u043e\u0441\u0441\u0438\u044f)
p3621
sg1422
Vhttp://tv.yandex.ua/2/channels/410
p3622
sg1424
I367
sbsI368
g1412
(g1413
g1414
Ntp3623
Rp3624
(dp3625
g1418
Vhttp://avatars.yandex.net/get-tv-channel-logos/1349091347332M99473/orig
p3626
sg1420
VFOX (\u0420\u043e\u0441\u0441\u0438\u044f)
p3627
sg1422
Vhttp://tv.yandex.ua/2/channels/659
p3628
sg1424
I368
sbsI369
g1412
(g1413
g1414
Ntp3629
Rp3630
(dp3631
g1418
Vhttp://avatars.yandex.net/get-tv-shows/1333715973315M28208/orig
p3632
sg1420
VFox Life (\u0420\u043e\u0441\u0441\u0438\u044f)
p3633
sg1422
Vhttp://tv.yandex.ua/2/channels/615
p3634
sg1424
I369
sbsI370
g1412
(g1413
g1414
Ntp3635
Rp3636
(dp3637
g1418
Vhttp://avatars.yandex.net/get-tv-shows/1333715589076M84567/orig
p3638
sg1420
VGulli (\u0420\u043e\u0441\u0441\u0438\u044f)
p3639
sg1422
Vhttp://tv.yandex.ua/2/channels/810
p3640
sg1424
I370
sbsI371
g1412
(g1413
g1414
Ntp3641
Rp3642
(dp3643
g1418
Vhttp://avatars.yandex.net/get-tv-shows/1333707848439M17779/orig
p3644
sg1420
V\u0414\u043e\u043c\u0430\u0448\u043d\u0438\u0435 \u0436\u0438\u0432\u043e\u0442\u043d\u044b\u0435 (\u0420\u043e\u0441\u0441\u0438\u044f)
p3645
sg1422
Vhttp://tv.yandex.ua/2/channels/520
p3646
sg1424
I371
sbsI372
g1412
(g1413
g1414
Ntp3647
Rp3648
(dp3649
g1418
Vhttp://avatars.yandex.net/get-tv-channel-logos/1348587696219M11284/orig
p3650
sg1420
V\u0415\u0432\u0440\u043e\u043a\u0438\u043d\u043e (\u0420\u043e\u0441\u0441\u0438\u044f)
p3651
sg1422
Vhttp://tv.yandex.ua/2/channels/352
p3652
sg1424
I372
sbsI373
g1412
(g1413
g1414
Ntp3653
Rp3654
(dp3655
g1418
Vhttp://avatars.yandex.net/get-tv-shows/1333715354479M98366/orig
p3656
sg1420
VInvestigation Discovery (\u0420\u043e\u0441\u0441\u0438\u044f)
p3657
sg1422
Vhttp://tv.yandex.ua/2/channels/19
p3658
sg1424
I373
sbsI374
g1412
(g1413
g1414
Ntp3659
Rp3660
(dp3661
g1418
Vhttp://avatars.yandex.net/get-tv-shows/1333715462882M95375/orig
p3662
sg1420
VJimJam (\u0420\u043e\u0441\u0441\u0438\u044f)
p3663
sg1422
Vhttp://tv.yandex.ua/2/channels/494
p3664
sg1424
I374
sbsI375
g1412
(g1413
g1414
Ntp3665
Rp3666
(dp3667
g1418
Vhttp://avatars.yandex.net/get-tv-shows/1333716823193M39207/orig
p3668
sg1420
VKidsCo (\u0420\u043e\u0441\u0441\u0438\u044f)
p3669
sg1422
Vhttp://tv.yandex.ua/2/channels/598
p3670
sg1424
I375
sbsI376
g1412
(g1413
g1414
Ntp3671
Rp3672
(dp3673
g1418
Vhttp://avatars.yandex.net/get-tv-shows/1333708147128M24922/orig
p3674
sg1420
V\u041a\u0438\u043d\u043e\u043c\u0430\u043d\u0438\u044f (\u0420\u043e\u0441\u0441\u0438\u044f)
p3675
sg1422
Vhttp://tv.yandex.ua/2/channels/646
p3676
sg1424
I376
sbsI377
g1412
(g1413
g1414
Ntp3677
Rp3678
(dp3679
g1418
Vhttp://avatars.yandex.net/get-tv-shows/1333715618467M47634/orig
p3680
sg1420
V\u041a\u043e\u043c\u0435\u0434\u0438 \u0422\u0412 (\u0420\u043e\u0441\u0441\u0438\u044f)
p3681
sg1422
Vhttp://tv.yandex.ua/2/channels/51
p3682
sg1424
I377
sbsI378
g1412
(g1413
g1414
Ntp3683
Rp3684
(dp3685
g1418
Vhttp://avatars.yandex.net/get-tv-shows/1333716724098M99858/orig
p3686
sg1420
V\u041a\u0438\u043d\u043e\u043f\u043e\u043a\u0430\u0437 HD-1 (\u0420\u043e\u0441\u0441\u0438\u044f)
p3687
sg1422
Vhttp://tv.yandex.ua/2/channels/138
p3688
sg1424
I378
sbsI379
g1412
(g1413
g1414
Ntp3689
Rp3690
(dp3691
g1418
Vhttp://avatars.yandex.net/get-tv-shows/1333715451260M61766/orig
p3692
sg1420
VC Music TV (\u0420\u043e\u0441\u0441\u0438\u044f)
p3693
sg1422
Vhttp://tv.yandex.ua/2/channels/319
p3694
sg1424
I379
sbsI380
g1412
(g1413
g1414
Ntp3695
Rp3696
(dp3697
g1418
Vhttp://avatars.yandex.net/get-tv-shows/1333715600209M27625/orig
p3698
sg1420
V\u041a\u0438\u043d\u043e\u043f\u043e\u043a\u0430\u0437 HD-2 (\u0420\u043e\u0441\u0441\u0438\u044f)
p3699
sg1422
Vhttp://tv.yandex.ua/2/channels/741
p3700
sg1424
I380
sbsI381
g1412
(g1413
g1414
Ntp3701
Rp3702
(dp3703
g1418
Vhttp://avatars.yandex.net/get-tv-shows/1333713751068M18827/orig
p3704
sg1420
VCNBC (\u0420\u043e\u0441\u0441\u0438\u044f)
p3705
sg1422
Vhttp://tv.yandex.ua/2/channels/831
p3706
sg1424
I381
sbsI382
g1412
(g1413
g1414
Ntp3707
Rp3708
(dp3709
g1418
Vhttp://avatars.yandex.net/get-tv-shows/1333713174626M97345/orig
p3710
sg1420
VMan TV (\u0420\u043e\u0441\u0441\u0438\u044f)
p3711
sg1422
Vhttp://tv.yandex.ua/2/channels/15
p3712
sg1424
I382
sbsI383
g1412
(g1413
g1414
Ntp3713
Rp3714
(dp3715
g1418
Vhttp://avatars.yandex.net/get-tv-shows/1333713698572M2584/orig
p3716
sg1420
VMezzo Live HD (\u0420\u043e\u0441\u0441\u0438\u044f)
p3717
sg1422
Vhttp://tv.yandex.ua/2/channels/801
p3718
sg1424
I383
sbsI384
g1412
(g1413
g1414
Ntp3719
Rp3720
(dp3721
g1418
Vhttp://avatars.yandex.net/get-tv-shows/1333707984831M90146/orig
p3722
sg1420
V\u041c\u0438\u0440 \u0441\u0435\u0440\u0438\u0430\u043b\u0430 (\u0420\u043e\u0441\u0441\u0438\u044f)
p3723
sg1422
Vhttp://tv.yandex.ua/2/channels/145
p3724
sg1424
I384
sbsI385
g1412
(g1413
g1414
Ntp3725
Rp3726
(dp3727
g1418
Vhttp://avatars.yandex.net/get-tv-shows/1333712701189M79995/orig
p3728
sg1420
VEnglish Club TV (\u0420\u043e\u0441\u0441\u0438\u044f)
p3729
sg1422
Vhttp://tv.yandex.ua/2/channels/757
p3730
sg1424
I385
sbsI386
g1412
(g1413
g1414
Ntp3731
Rp3732
(dp3733
g1418
Vhttp://avatars.yandex.net/get-tv-shows/1333715305189M35114/orig
p3734
sg1420
V\u041c\u0443\u0436\u0441\u043a\u043e\u0439 (\u0420\u043e\u0441\u0441\u0438\u044f)
p3735
sg1422
Vhttp://tv.yandex.ua/2/channels/82
p3736
sg1424
I386
sbsI387
g1412
(g1413
g1414
Ntp3737
Rp3738
(dp3739
g1418
Vhttp://avatars.yandex.net/get-tv-shows/1333713644403M21507/orig
p3740
sg1420
VViasat Nature CEE (\u0420\u043e\u0441\u0441\u0438\u044f)
p3741
sg1422
Vhttp://tv.yandex.ua/2/channels/765
p3742
sg1424
I387
sbsI388
g1412
(g1413
g1414
Ntp3743
Rp3744
(dp3745
g1418
Vhttp://avatars.yandex.net/get-tv-shows/1333713433570M85481/orig
p3746
sg1420
VNat Geo WILD (\u0420\u043e\u0441\u0441\u0438\u044f)
p3747
sg1422
Vhttp://tv.yandex.ua/2/channels/223
p3748
sg1424
I388
sbsI389
g1412
(g1413
g1414
Ntp3749
Rp3750
(dp3751
g1418
Vhttp://avatars.yandex.net/get-tv-shows/1333707837348M40226/orig
p3752
sg1420
VFrance 24 (\u0420\u043e\u0441\u0441\u0438\u044f)
p3753
sg1422
Vhttp://tv.yandex.ua/2/channels/461
p3754
sg1424
I389
sbsI390
g1412
(g1413
g1414
Ntp3755
Rp3756
(dp3757
g1418
Vhttp://avatars.yandex.net/get-tv-shows/1333717651949M12497/orig
p3758
sg1420
V\u0424\u0443\u0442\u0431\u043e\u043b (\u0420\u043e\u0441\u0441\u0438\u044f)
p3759
sg1422
Vhttp://tv.yandex.ua/2/channels/328
p3760
sg1424
I390
sbsI391
g1412
(g1413
g1414
Ntp3761
Rp3762
(dp3763
g1418
Vhttp://avatars.yandex.net/get-tv-shows/1333707836435M19145/orig
p3764
sg1420
V\u041c\u0443\u043b\u044c\u0442\u0438\u043c\u0430\u043d\u0438\u044f (\u0420\u043e\u0441\u0441\u0438\u044f)
p3765
sg1422
Vhttp://tv.yandex.ua/2/channels/31
p3766
sg1424
I391
sbsI392
g1412
(g1413
g1414
Ntp3767
Rp3768
(dp3769
g1418
Vhttp://avatars.yandex.net/get-tv-shows/1333713389359M36074/orig
p3770
sg1420
VHD \u041c\u0435\u0434\u0438\u0430 (\u0420\u043e\u0441\u0441\u0438\u044f)
p3771
sg1422
Vhttp://tv.yandex.ua/2/channels/631
p3772
sg1424
I392
sbsI393
g1412
(g1413
g1414
Ntp3773
Rp3774
(dp3775
g1418
Vhttp://avatars.yandex.net/get-tv-shows/1333715673198M2663/orig
p3776
sg1420
V\u041f\u0435\u0440\u0432\u044b\u0439 \u043c\u0435\u0442\u0435\u043e (\u0420\u043e\u0441\u0441\u0438\u044f)
p3777
sg1422
Vhttp://tv.yandex.ua/2/channels/59
p3778
sg1424
I393
sbsI394
g1412
(g1413
g1414
Ntp3779
Rp3780
(dp3781
g1418
Vhttp://avatars.yandex.net/get-tv-shows/1333716057211M42929/orig
p3782
sg1420
V\u041a\u0418\u041d\u041e \u041f\u041b\u042e\u0421 (\u0420\u043e\u0441\u0441\u0438\u044f)
p3783
sg1422
Vhttp://tv.yandex.ua/2/channels/644
p3784
sg1424
I394
sbsI395
g1412
(g1413
g1414
Ntp3785
Rp3786
(dp3787
g1418
Vhttp://avatars.yandex.net/get-tv-shows/1333713846214M92620/orig
p3788
sg1420
V\u041f\u0430\u0440\u043a \u0440\u0430\u0437\u0432\u043b\u0435\u0447\u0435\u043d\u0438\u0439 (\u0420\u043e\u0441\u0441\u0438\u044f)
p3789
sg1422
Vhttp://tv.yandex.ua/2/channels/37
p3790
sg1424
I395
sbsI396
g1412
(g1413
g1414
Ntp3791
Rp3792
(dp3793
g1418
Vhttp://avatars.yandex.net/get-tv-shows/1333715232241M630/orig
p3794
sg1420
V\u041f\u0441\u0438\u0445\u043e\u043b\u043e\u0433\u0438\u044f 21 (\u0420\u043e\u0441\u0441\u0438\u044f)
p3795
sg1422
Vhttp://tv.yandex.ua/2/channels/434
p3796
sg1424
I396
sbsI397
g1412
(g1413
g1414
Ntp3797
Rp3798
(dp3799
g1418
Vhttp://avatars.yandex.net/get-tv-shows/1333713945719M63469/orig
p3800
sg1420
V\u0414\u043e\u0436\u0434\u044c (\u0420\u043e\u0441\u0441\u0438\u044f)
p3801
sg1422
Vhttp://tv.yandex.ua/2/channels/384
p3802
sg1424
I397
sbsI398
g1412
(g1413
g1414
Ntp3803
Rp3804
(dp3805
g1418
Vhttp://avatars.yandex.net/get-tv-shows/1333713816884M48668/orig
p3806
sg1420
VRussian Travel Guide (\u0420\u043e\u0441\u0441\u0438\u044f)
p3807
sg1422
Vhttp://tv.yandex.ua/2/channels/648
p3808
sg1424
I398
sbsI399
g1412
(g1413
g1414
Ntp3809
Rp3810
(dp3811
g1418
Vhttp://avatars.yandex.net/get-tv-shows/1333715412490M65597/orig
p3812
sg1420
VRussia Today (\u0420\u043e\u0441\u0441\u0438\u044f)
p3813
sg1422
Vhttp://tv.yandex.ua/2/channels/313
p3814
sg1424
I399
sbsI400
g1412
(g1413
g1414
Ntp3815
Rp3816
(dp3817
g1418
Vhttp://avatars.yandex.net/get-tv-shows/1333712713031M6232/orig
p3818
sg1420
VStyle TV (\u0420\u043e\u0441\u0441\u0438\u044f)
p3819
sg1422
Vhttp://tv.yandex.ua/2/channels/119
p3820
sg1424
I400
sbsI401
g1412
(g1413
g1414
Ntp3821
Rp3822
(dp3823
g1418
Vhttp://avatars.yandex.net/get-tv-shows/1333713176648M89316/orig
p3824
sg1420
VTV1000 Action (\u0420\u043e\u0441\u0441\u0438\u044f)
p3825
sg1422
Vhttp://tv.yandex.ua/2/channels/125
p3826
sg1424
I401
sbsI402
g1412
(g1413
g1414
Ntp3827
Rp3828
(dp3829
g1418
Vhttp://avatars.yandex.net/get-tv-shows/1333713457072M47395/orig
p3830
sg1420
V\u0423\u043b\u044b\u0431\u043a\u0430 \u0420\u0435\u0431\u0435\u043d\u043a\u0430 (\u0420\u043e\u0441\u0441\u0438\u044f)
p3831
sg1422
Vhttp://tv.yandex.ua/2/channels/789
p3832
sg1424
I402
sbsI403
g1412
(g1413
g1414
Ntp3833
Rp3834
(dp3835
g1418
Vhttp://avatars.yandex.net/get-tv-shows/1333715744438M85797/orig
p3836
sg1420
V\u0423\u0441\u043f\u0435\u0445 (\u0420\u043e\u0441\u0441\u0438\u044f)
p3837
sg1422
Vhttp://tv.yandex.ua/2/channels/547
p3838
sg1424
I403
sbsI404
g1412
(g1413
g1414
Ntp3839
Rp3840
(dp3841
g1418
Vhttp://avatars.yandex.net/get-tv-shows/1333712655464M52829/orig
p3842
sg1420
VVH1 Classic (\u0420\u043e\u0441\u0441\u0438\u044f)
p3843
sg1422
Vhttp://tv.yandex.ua/2/channels/156
p3844
sg1424
I404
sbsI405
g1412
(g1413
g1414
Ntp3845
Rp3846
(dp3847
g1418
Vhttp://avatars.yandex.net/get-tv-shows/1333713481818M96462/orig
p3848
sg1420
VLuxe.TV (\u0420\u043e\u0441\u0441\u0438\u044f)
p3849
sg1422
Vhttp://tv.yandex.ua/2/channels/442
p3850
sg1424
I405
sbsI406
g1412
(g1413
g1414
Ntp3851
Rp3852
(dp3853
g1418
Vhttp://avatars.yandex.net/get-tv-shows/1333712775005M93791/orig
p3854
sg1420
VViasat Sport (\u0420\u043e\u0441\u0441\u0438\u044f)
p3855
sg1422
Vhttp://tv.yandex.ua/2/channels/455
p3856
sg1424
I406
sbsI407
g1412
(g1413
g1414
Ntp3857
Rp3858
(dp3859
g1418
Vhttp://avatars.yandex.net/get-tv-shows/1333713681468M47452/orig
p3860
sg1420
V\u0412\u043e\u043f\u0440\u043e\u0441\u044b \u0438 \u043e\u0442\u0432\u0435\u0442\u044b (\u0420\u043e\u0441\u0441\u0438\u044f)
p3861
sg1422
Vhttp://tv.yandex.ua/2/channels/333
p3862
sg1424
I407
sbsI408
g1412
(g1413
g1414
Ntp3863
Rp3864
(dp3865
g1418
Vhttp://avatars.yandex.net/get-tv-shows/1333716969502M68148/orig
p3866
sg1420
VMCM POP (\u0420\u043e\u0441\u0441\u0438\u044f)
p3867
sg1422
Vhttp://tv.yandex.ua/2/channels/804
p3868
sg1424
I408
sbsI409
g1412
(g1413
g1414
Ntp3869
Rp3870
(dp3871
g1418
Vhttp://avatars.yandex.net/get-tv-shows/1333713682028M49283/orig
p3872
sg1420
VMCM TOP (\u0420\u043e\u0441\u0441\u0438\u044f)
p3873
sg1422
Vhttp://tv.yandex.ua/2/channels/533
p3874
sg1424
I409
sbsI410
g1412
(g1413
g1414
Ntp3875
Rp3876
(dp3877
g1418
Vhttp://avatars.yandex.net/get-tv-shows/1333716913379M87044/orig
p3878
sg1420
V\u0412\u0441\u0435\u0433\u0434\u0430 \u0441 \u0442\u043e\u0431\u043e\u0439 (\u0420\u043e\u0441\u0441\u0438\u044f)
p3879
sg1422
Vhttp://tv.yandex.ua/2/channels/604
p3880
sg1424
I410
sbsI411
g1412
(g1413
g1414
Ntp3881
Rp3882
(dp3883
g1418
Vhttp://avatars.yandex.net/get-tv-shows/1333708247585M68464/orig
p3884
sg1420
V\u041e\u0440\u0443\u0436\u0438\u0435 (\u0420\u043e\u0441\u0441\u0438\u044f)
p3885
sg1422
Vhttp://tv.yandex.ua/2/channels/376
p3886
sg1424
I411
sbsI412
g1412
(g1413
g1414
Ntp3887
Rp3888
(dp3889
g1418
Vhttp://avatars.yandex.net/get-tv-shows/1333715997298M69767/orig
p3890
sg1420
V\u041a\u0442\u043e \u0435\u0441\u0442\u044c \u043a\u0442\u043e (\u0420\u043e\u0441\u0441\u0438\u044f)
p3891
sg1422
Vhttp://tv.yandex.ua/2/channels/769
p3892
sg1424
I412
sbsI413
g1412
(g1413
g1414
Ntp3893
Rp3894
(dp3895
g1418
Vhttp://avatars.yandex.net/get-tv-shows/1333715457146M21776/orig
p3896
sg1420
VMusicBox RU (\u0420\u043e\u0441\u0441\u0438\u044f)
p3897
sg1422
Vhttp://tv.yandex.ua/2/channels/25
p3898
sg1424
I413
sbsI414
g1412
(g1413
g1414
Ntp3899
Rp3900
(dp3901
g1418
Vhttp://avatars.yandex.net/get-tv-shows/1333716819878M97368/orig
p3902
sg1420
V\u0417\u0430\u0433\u043e\u0440\u043e\u0434\u043d\u044b\u0439 (\u0420\u043e\u0441\u0441\u0438\u044f)
p3903
sg1422
Vhttp://tv.yandex.ua/2/channels/705
p3904
sg1424
I414
sbsI415
g1412
(g1413
g1414
Ntp3905
Rp3906
(dp3907
g1418
Vhttp://avatars.yandex.net/get-tv-shows/1333712702253M97202/orig
p3908
sg1420
V\u0417\u0430\u0433\u043e\u0440\u043e\u0434\u043d\u0430\u044f \u0436\u0438\u0437\u043d\u044c (\u0420\u043e\u0441\u0441\u0438\u044f)
p3909
sg1422
Vhttp://tv.yandex.ua/2/channels/21
p3910
sg1424
I415
sbsI416
g1412
(g1413
g1414
Ntp3911
Rp3912
(dp3913
g1418
Vhttp://avatars.yandex.net/get-tv-shows/1333713807307M19303/orig
p3914
sg1420
VMusicBox TV (\u0420\u043e\u0441\u0441\u0438\u044f)
p3915
sg1422
Vhttp://tv.yandex.ua/2/channels/642
p3916
sg1424
I416
sbsI417
g1412
(g1413
g1414
Ntp3917
Rp3918
(dp3919
g1418
Vhttp://avatars.yandex.net/get-tv-shows/1333715814729M63454/orig
p3920
sg1420
VZee-TV (\u0420\u043e\u0441\u0441\u0438\u044f)
p3921
sg1422
Vhttp://tv.yandex.ua/2/channels/626
p3922
sg1424
I417
sbsI418
g1412
(g1413
g1414
Ntp3923
Rp3924
(dp3925
g1418
Vhttp://avatars.yandex.net/get-tv-shows/1333708221386M8318/orig
p3926
sg1420
VmyZen.tv (\u0420\u043e\u0441\u0441\u0438\u044f)
p3927
sg1422
Vhttp://tv.yandex.ua/2/channels/141
p3928
sg1424
I418
sbsI419
g1412
(g1413
g1414
Ntp3929
Rp3930
(dp3931
g1418
Vhttp://avatars.yandex.net/get-tv-shows/1333716033811M15593/orig
p3932
sg1420
V\u0422\u043e\u043d\u0443\u0441-\u0422\u0412 (\u0420\u043e\u0441\u0441\u0438\u044f)
p3933
sg1422
Vhttp://tv.yandex.ua/2/channels/637
p3934
sg1424
I419
sbsI420
g1412
(g1413
g1414
Ntp3935
Rp3936
(dp3937
g1418
Vhttp://avatars.yandex.net/get-tv-shows/1333713729069M489/orig
p3938
sg1420
V\u0420\u0422\u0412 - \u041b\u044e\u0431\u0438\u043c\u043e\u0435 \u043a\u0438\u043d\u043e (\u0420\u043e\u0441\u0441\u0438\u044f)
p3939
sg1422
Vhttp://tv.yandex.ua/2/channels/477
p3940
sg1424
I420
sbsI421
g1412
(g1413
g1414
Ntp3941
Rp3942
(dp3943
g1418
Vhttp://avatars.yandex.net/get-tv-shows/1333715741881M37018/orig
p3944
sg1420
V\u0420\u0422\u0412 - \u041d\u0430\u0448\u0435 \u043a\u0438\u043d\u043e (\u0420\u043e\u0441\u0441\u0438\u044f)
p3945
sg1422
Vhttp://tv.yandex.ua/2/channels/176
p3946
sg1424
I421
sbsI422
g1412
(g1413
g1414
Ntp3947
Rp3948
(dp3949
g1418
Vhttp://avatars.yandex.net/get-tv-shows/1333708746764M31248/orig
p3950
sg1420
V\u041d\u0435\u0434\u0432\u0438\u0436\u0438\u043c\u043e\u0441\u0442\u044c (\u0420\u043e\u0441\u0441\u0438\u044f)
p3951
sg1422
Vhttp://tv.yandex.ua/2/channels/552
p3952
sg1424
I422
sbsI423
g1412
(g1413
g1414
Ntp3953
Rp3954
(dp3955
g1418
Vhttp://avatars.yandex.net/get-tv-shows/1333713976352M79712/orig
p3956
sg1420
VNewsOne (\u0420\u043e\u0441\u0441\u0438\u044f)
p3957
sg1422
Vhttp://tv.yandex.ua/2/channels/247
p3958
sg1424
I423
sbsI424
g1412
(g1413
g1414
Ntp3959
Rp3960
(dp3961
g1418
Vhttp://avatars.yandex.net/get-tv-shows/1333712756259M40685/orig
p3962
sg1420
V\u0421\u043e\u0432\u0435\u0440\u0448\u0435\u043d\u043d\u043e \u0441\u0435\u043a\u0440\u0435\u0442\u043d\u043e (\u0420\u043e\u0441\u0441\u0438\u044f)
p3963
sg1422
Vhttp://tv.yandex.ua/2/channels/275
p3964
sg1424
I424
sbsI425
g1412
(g1413
g1414
Ntp3965
Rp3966
(dp3967
g1418
Vhttp://avatars.yandex.net/get-tv-shows/1333716791539M48053/orig
p3968
sg1420
VTDK (\u0420\u043e\u0441\u0441\u0438\u044f)
p3969
sg1422
Vhttp://tv.yandex.ua/2/channels/776
p3970
sg1424
I425
sbsI426
g1412
(g1413
g1414
Ntp3971
Rp3972
(dp3973
g1418
Vhttp://avatars.yandex.net/get-tv-shows/1333708713306M38200/orig
p3974
sg1420
VTiJi (\u0420\u043e\u0441\u0441\u0438\u044f)
p3975
sg1422
Vhttp://tv.yandex.ua/2/channels/555
p3976
sg1424
I426
sbsI427
g1412
(g1413
g1414
Ntp3977
Rp3978
(dp3979
g1418
Vhttp://avatars.yandex.net/get-tv-shows/1333709246196M1207/orig
p3980
sg1420
VBaby TV (\u0420\u043e\u0441\u0441\u0438\u044f)
p3981
sg1422
Vhttp://tv.yandex.ua/2/channels/308
p3982
sg1424
I427
sbsI428
g1412
(g1413
g1414
Ntp3983
Rp3984
(dp3985
g1418
Vhttp://avatars.yandex.net/get-tv-shows/1333708797928M94347/orig
p3986
sg1420
VMTV Dance (\u0420\u043e\u0441\u0441\u0438\u044f)
p3987
sg1422
Vhttp://tv.yandex.ua/2/channels/332
p3988
sg1424
I428
sbsI429
g1412
(g1413
g1414
Ntp3989
Rp3990
(dp3991
g1418
Vhttp://avatars.yandex.net/get-tv-shows/1333716825980M37994/orig
p3992
sg1420
VMTV Hits (\u0420\u043e\u0441\u0441\u0438\u044f)
p3993
sg1422
Vhttp://tv.yandex.ua/2/channels/849
p3994
sg1424
I429
sbsI430
g1412
(g1413
g1414
Ntp3995
Rp3996
(dp3997
g1418
Vhttp://avatars.yandex.net/get-tv-shows/1333715841246M94104/orig
p3998
sg1420
V\u041e\u0445\u043e\u0442\u043d\u0438\u043a \u0438 \u0420\u044b\u0431\u043e\u043b\u043e\u0432 (\u0420\u043e\u0441\u0441\u0438\u044f)
p3999
sg1422
Vhttp://tv.yandex.ua/2/channels/132
p4000
sg1424
I430
sbsI431
g1412
(g1413
g1414
Ntp4001
Rp4002
(dp4003
g1418
Vhttp://avatars.yandex.net/get-tv-shows/1333713043514M62310/orig
p4004
sg1420
VMTV Rocks (\u0420\u043e\u0441\u0441\u0438\u044f)
p4005
sg1422
Vhttp://tv.yandex.ua/2/channels/388
p4006
sg1424
I431
sbsI432
g1412
(g1413
g1414
Ntp4007
Rp4008
(dp4009
g1418
Vhttp://avatars.yandex.net/get-tv-shows/1333716732109M13710/orig
p4010
sg1420
V\u041e\u0442\u043a\u0440\u044b\u0442\u044b\u0439 \u041c\u0438\u0440 (\u0420\u043e\u0441\u0441\u0438\u044f)
p4011
sg1422
Vhttp://tv.yandex.ua/2/channels/39
p4012
sg1424
I432
sbsI433
g1412
(g1413
g1414
Ntp4013
Rp4014
(dp4015
g1418
Vhttp://avatars.yandex.net/get-tv-shows/1333712715401M79935/orig
p4016
sg1420
VTLC (\u0420\u043e\u0441\u0441\u0438\u044f)
p4017
sg1422
Vhttp://tv.yandex.ua/2/channels/425
p4018
sg1424
I433
sbsI434
g1412
(g1413
g1414
Ntp4019
Rp4020
(dp4021
g1418
Vhttp://avatars.yandex.net/get-tv-shows/1333713582281M8534/orig
p4022
sg1420
V\u041f\u0435\u0440\u0432\u044b\u0439 \u043e\u0431\u0440\u0430\u0437\u043e\u0432\u0430\u0442\u0435\u043b\u044c\u043d\u044b\u0439 (\u0420\u043e\u0441\u0441\u0438\u044f)
p4023
sg1422
Vhttp://tv.yandex.ua/2/channels/774
p4024
sg1424
I434
sbsI435
g1412
(g1413
g1414
Ntp4025
Rp4026
(dp4027
g1418
Vhttp://avatars.yandex.net/get-tv-shows/1333715189104M67729/orig
p4028
sg1420
VRu.TV (\u0420\u043e\u0441\u0441\u0438\u044f)
p4029
sg1422
Vhttp://tv.yandex.ua/2/channels/258
p4030
sg1424
I435
sbsI436
g1412
(g1413
g1414
Ntp4031
Rp4032
(dp4033
g1418
Vhttp://avatars.yandex.net/get-tv-channel-logos/1357917709899M67755/orig
p4034
sg1420
VA-ONE (\u0420\u043e\u0441\u0441\u0438\u044f)
p4035
sg1422
Vhttp://tv.yandex.ua/2/channels/680
p4036
sg1424
I436
sbsI437
g1412
(g1413
g1414
Ntp4037
Rp4038
(dp4039
g1418
Vhttp://avatars.yandex.net/get-tv-shows/1333716745405M72465/orig
p4040
sg1420
VRusong TV (\u0420\u043e\u0441\u0441\u0438\u044f)
p4041
sg1422
Vhttp://tv.yandex.ua/2/channels/591
p4042
sg1424
I437
sbsI438
g1412
(g1413
g1414
Ntp4043
Rp4044
(dp4045
g1418
Vhttp://avatars.yandex.net/get-tv-shows/1333708247583M29832/orig
p4046
sg1420
V\u041d\u0430\u0443\u043a\u0430 2.0 (\u0420\u043e\u0441\u0441\u0438\u044f)
p4047
sg1422
Vhttp://tv.yandex.ua/2/channels/723
p4048
sg1424
I438
sbsI439
g1412
(g1413
g1414
Ntp4049
Rp4050
(dp4051
g1418
Vhttp://avatars.yandex.net/get-tv-shows/1333715766749M89647/orig
p4052
sg1420
VZoo\u043f\u0430\u0440\u043a (\u0420\u043e\u0441\u0441\u0438\u044f)
p4053
sg1422
Vhttp://tv.yandex.ua/2/channels/367
p4054
sg1424
I439
sbsI440
g1412
(g1413
g1414
Ntp4055
Rp4056
(dp4057
g1418
Vhttp://avatars.yandex.net/get-tv-shows/1333712862430M29121/orig
p4058
sg1420
V\u0414\u0440\u0430\u0439\u0432 (\u0420\u043e\u0441\u0441\u0438\u044f)
p4059
sg1422
Vhttp://tv.yandex.ua/2/channels/505
p4060
sg1424
I440
sbsI441
g1412
(g1413
g1414
Ntp4061
Rp4062
(dp4063
g1418
Vhttp://avatars.yandex.net/get-tv-shows/1333715678054M1312/orig
p4064
sg1420
V\u0417\u0434\u043e\u0440\u043e\u0432\u043e\u0435 \u0422\u0412 (\u0420\u043e\u0441\u0441\u0438\u044f)
p4065
sg1422
Vhttp://tv.yandex.ua/2/channels/595
p4066
sg1424
I441
sbsI442
g1412
(g1413
g1414
Ntp4067
Rp4068
(dp4069
g1418
Vhttp://avatars.yandex.net/get-tv-shows/1333715852220M49281/orig
p4070
sg1420
V\u0422\u0443\u0440\u0418\u043d\u0444\u043e (\u0420\u043e\u0441\u0441\u0438\u044f)
p4071
sg1422
Vhttp://tv.yandex.ua/2/channels/731
p4072
sg1424
I442
sbsI443
g1412
(g1413
g1414
Ntp4073
Rp4074
(dp4075
g1418
Vhttp://avatars.yandex.net/get-tv-shows/1333708154865M86208/orig
p4076
sg1420
V\u0420\u0435\u0442\u0440\u043e \u0422\u0412 (\u0420\u043e\u0441\u0441\u0438\u044f)
p4077
sg1422
Vhttp://tv.yandex.ua/2/channels/6
p4078
sg1424
I443
sbsI444
g1412
(g1413
g1414
Ntp4079
Rp4080
(dp4081
g1418
Vhttp://avatars.yandex.net/get-tv-shows/1333713984447M70308/orig
p4082
sg1420
VEurosport (\u0420\u043e\u0441\u0441\u0438\u044f)
p4083
sg1422
Vhttp://tv.yandex.ua/2/channels/737
p4084
sg1424
I444
sbsI445
g1412
(g1413
g1414
Ntp4085
Rp4086
(dp4087
g1418
Vhttp://avatars.yandex.net/get-tv-shows/1333716803563M50186/orig
p4088
sg1420
V\u041a\u0425\u041b (\u0420\u043e\u0441\u0441\u0438\u044f)
p4089
sg1422
Vhttp://tv.yandex.ua/2/channels/481
p4090
sg1424
I445
sbsI446
g1412
(g1413
g1414
Ntp4091
Rp4092
(dp4093
g1418
Vhttp://avatars.yandex.net/get-tv-channel-logos/1356596026566M65418/orig
p4094
sg1420
V\u041c\u0418\u0420 (\u0420\u043e\u0441\u0441\u0438\u044f)
p4095
sg1422
Vhttp://tv.yandex.ua/2/channels/726
p4096
sg1424
I446
sbsI447
g1412
(g1413
g1414
Ntp4097
Rp4098
(dp4099
g1418
Vhttp://avatars.yandex.net/get-tv-shows/1333713538946M7262/orig
p4100
sg1420
VVH1 European (\u0420\u043e\u0441\u0441\u0438\u044f)
p4101
sg1422
Vhttp://tv.yandex.ua/2/channels/491
p4102
sg1424
I447
sbsI448
g1412
(g1413
g1414
Ntp4103
Rp4104
(dp4105
g1418
Vhttp://avatars.yandex.net/get-tv-shows/1333713160319M54984/orig
p4106
sg1420
V\u0416\u0418\u0412\u0418! (\u0420\u043e\u0441\u0441\u0438\u044f)
p4107
sg1422
Vhttp://tv.yandex.ua/2/channels/113
p4108
sg1424
I448
sbsI449
g1412
(g1413
g1414
Ntp4109
Rp4110
(dp4111
g1418
Vhttp://avatars.yandex.net/get-tv-shows/1333715748744M67529/orig
p4112
sg1420
VDIVA Universal (\u0420\u043e\u0441\u0441\u0438\u044f)
p4113
sg1422
Vhttp://tv.yandex.ua/2/channels/713
p4114
sg1424
I449
sbsI450
g1412
(g1413
g1414
Ntp4115
Rp4116
(dp4117
g1418
Vhttp://avatars.yandex.net/get-tv-shows/1333716977495M19933/orig
p4118
sg1420
VDiscovery HD Showcase (\u0420\u043e\u0441\u0441\u0438\u044f)
p4119
sg1422
Vhttp://tv.yandex.ua/2/channels/111
p4120
sg1424
I450
sbsI451
g1412
(g1413
g1414
Ntp4121
Rp4122
(dp4123
g1418
Vhttp://avatars.yandex.net/get-tv-shows/1333708892947M65043/orig
p4124
sg1420
V\u0428\u0430\u043d\u0441\u043e\u043d-TB (\u0420\u043e\u0441\u0441\u0438\u044f)
p4125
sg1422
Vhttp://tv.yandex.ua/2/channels/662
p4126
sg1424
I451
sbsI452
g1412
(g1413
g1414
Ntp4127
Rp4128
(dp4129
g1418
Vhttp://avatars.yandex.net/get-tv-shows/1333713983645M99328/orig
p4130
sg1420
V\u0417\u043d\u0430\u043d\u0438\u0435 (\u0420\u043e\u0441\u0441\u0438\u044f)
p4131
sg1422
Vhttp://tv.yandex.ua/2/channels/201
p4132
sg1424
I452
sbsI453
g1412
(g1413
g1414
Ntp4133
Rp4134
(dp4135
g1418
Vhttp://avatars.yandex.net/get-tv-shows/1333715603725M3088/orig
p4136
sg1420
VEuropa Plus TV (\u0420\u043e\u0441\u0441\u0438\u044f)
p4137
sg1422
Vhttp://tv.yandex.ua/2/channels/681
p4138
sg1424
I453
sbsI454
g1412
(g1413
g1414
Ntp4139
Rp4140
(dp4141
g1418
Vhttp://avatars.yandex.net/get-tv-shows/1333713040296M59201/orig
p4142
sg1420
VWorld Music Channel (\u0420\u043e\u0441\u0441\u0438\u044f)
p4143
sg1422
Vhttp://tv.yandex.ua/2/channels/91
p4144
sg1424
I454
sbsI455
g1412
(g1413
g1414
Ntp4145
Rp4146
(dp4147
g1418
Vhttp://avatars.yandex.net/get-tv-shows/1333715545258M24133/orig
p4148
sg1420
VOutdoor Channel (\u0420\u043e\u0441\u0441\u0438\u044f)
p4149
sg1422
Vhttp://tv.yandex.ua/2/channels/322
p4150
sg1424
I455
sbsI456
g1412
(g1413
g1414
Ntp4151
Rp4152
(dp4153
g1418
Vhttp://avatars.yandex.net/get-tv-shows/1333713680513M60480/orig
p4154
sg1420
V\u041d\u0422\u0412-\u041f\u041b\u042e\u0421 \u0421\u043f\u043e\u0440\u0442 \u041f\u043b\u044e\u0441 (\u0420\u043e\u0441\u0441\u0438\u044f)
p4155
sg1422
Vhttp://tv.yandex.ua/2/channels/377
p4156
sg1424
I456
sbsI457
g1412
(g1413
g1414
Ntp4157
Rp4158
(dp4159
g1418
Vhttp://avatars.yandex.net/get-tv-channel-logos/1349444212217M99907/orig
p4160
sg1420
V\u041d\u0422\u0412-\u041f\u041b\u042e\u0421 \u041d\u0430\u0448 \u0444\u0443\u0442\u0431\u043e\u043b (\u0420\u043e\u0441\u0441\u0438\u044f)
p4161
sg1422
Vhttp://tv.yandex.ua/2/channels/499
p4162
sg1424
I457
sbsI458
g1412
(g1413
g1414
Ntp4163
Rp4164
(dp4165
g1418
Vhttp://avatars.yandex.net/get-tv-shows/1333715434657M29292/orig
p4166
sg1420
V\u041d\u0422\u0412-\u041f\u041b\u042e\u0421 \u0421\u043f\u043e\u0440\u0442 (\u0420\u043e\u0441\u0441\u0438\u044f)
p4167
sg1422
Vhttp://tv.yandex.ua/2/channels/134
p4168
sg1424
I458
sbsI459
g1412
(g1413
g1414
Ntp4169
Rp4170
(dp4171
g1418
Vhttp://avatars.yandex.net/get-tv-shows/1333715630513M36394/orig
p4172
sg1420
V\u041d\u0422\u0412-\u041f\u041b\u042e\u0421 \u0424\u0443\u0442\u0431\u043e\u043b (\u0420\u043e\u0441\u0441\u0438\u044f)
p4173
sg1422
Vhttp://tv.yandex.ua/2/channels/664
p4174
sg1424
I459
sbsI460
g1412
(g1413
g1414
Ntp4175
Rp4176
(dp4177
g1418
Vhttp://avatars.yandex.net/get-tv-shows/1333716734381M94839/orig
p4178
sg1420
V\u041d\u0422\u0412-\u041f\u041b\u042e\u0421 \u0421\u043f\u043e\u0440\u0442 \u041e\u043d\u043b\u0430\u0439\u043d (\u0420\u043e\u0441\u0441\u0438\u044f)
p4179
sg1422
Vhttp://tv.yandex.ua/2/channels/183
p4180
sg1424
I460
sbsI461
g1412
(g1413
g1414
Ntp4181
Rp4182
(dp4183
g1418
Vhttp://avatars.yandex.net/get-tv-shows/1333713578162M89138/orig
p4184
sg1420
V\u041d\u0422\u0412-\u041f\u041b\u042e\u0421 \u0411\u0430\u0441\u043a\u0435\u0442\u0431\u043e\u043b (\u0420\u043e\u0441\u0441\u0438\u044f)
p4185
sg1422
Vhttp://tv.yandex.ua/2/channels/697
p4186
sg1424
I461
sbsI462
g1412
(g1413
g1414
Ntp4187
Rp4188
(dp4189
g1418
Vhttp://avatars.yandex.net/get-tv-shows/1333708043568M30613/orig
p4190
sg1420
V\u041d\u0422\u0412-\u041f\u041b\u042e\u0421 \u0422\u0435\u043d\u043d\u0438\u0441 (\u0420\u043e\u0441\u0441\u0438\u044f)
p4191
sg1422
Vhttp://tv.yandex.ua/2/channels/358
p4192
sg1424
I462
sbsI463
g1412
(g1413
g1414
Ntp4193
Rp4194
(dp4195
g1418
Vhttp://avatars.yandex.net/get-tv-shows/1333708764683M58437/orig
p4196
sg1420
V\u041d\u0422\u0412-\u041f\u041b\u042e\u0421 \u0424\u0443\u0442\u0431\u043e\u043b 2 (\u0420\u043e\u0441\u0441\u0438\u044f)
p4197
sg1422
Vhttp://tv.yandex.ua/2/channels/563
p4198
sg1424
I463
sbsI464
g1412
(g1413
g1414
Ntp4199
Rp4200
(dp4201
g1418
Vhttp://avatars.yandex.net/get-tv-channel-logos/1347977439851M34882/orig
p4202
sg1420
VSONY \u0422\u0412 (\u0420\u043e\u0441\u0441\u0438\u044f)
p4203
sg1422
Vhttp://tv.yandex.ua/2/channels/311
p4204
sg1424
I464
sbsI465
g1412
(g1413
g1414
Ntp4205
Rp4206
(dp4207
g1418
Vhttp://avatars.yandex.net/get-tv-channel-logos/1346751438482M48687/orig
p4208
sg1420
V8 \u041a\u0430\u043d\u0430\u043b (\u0420\u043e\u0441\u0441\u0438\u044f)
p4209
sg1422
Vhttp://tv.yandex.ua/2/channels/217
p4210
sg1424
I465
sbsI466
g1412
(g1413
g1414
Ntp4211
Rp4212
(dp4213
g1418
Vhttp://avatars.yandex.net/get-tv-shows/1333708793754M69706/orig
p4214
sg1420
V\u0418\u043d\u0442\u0435\u0440\u0435\u0441\u043d\u043e\u0435 \u0422\u0412 (\u0420\u043e\u0441\u0441\u0438\u044f)
p4215
sg1422
Vhttp://tv.yandex.ua/2/channels/24
p4216
sg1424
I466
sbsI467
g1412
(g1413
g1414
Ntp4217
Rp4218
(dp4219
g1418
Vhttp://avatars.yandex.net/get-tv-shows/1333708053915M20046/orig
p4220
sg1420
V\u041c\u043d\u043e\u0433\u043e \u0422\u0412 (\u0420\u043e\u0441\u0441\u0438\u044f)
p4221
sg1422
Vhttp://tv.yandex.ua/2/channels/799
p4222
sg1424
I467
sbsI468
g1412
(g1413
g1414
Ntp4223
Rp4224
(dp4225
g1418
Vhttp://avatars.yandex.net/get-tv-channel-logos/1336217768352M70407/orig
p4226
sg1420
V\u041a\u043e\u043c\u0435\u0434\u0438\u044f \u0422\u0412 (\u0420\u043e\u0441\u0441\u0438\u044f)
p4227
sg1422
Vhttp://tv.yandex.ua/2/channels/821
p4228
sg1424
I468
sbsI469
g1412
(g1413
g1414
Ntp4229
Rp4230
(dp4231
g1418
Vhttp://avatars.yandex.net/get-tv-channel-logos/1344328736344M68981/orig
p4232
sg1420
V\u041a\u0443\u0445\u043d\u044f \u0422\u0412 (\u0420\u043e\u0441\u0441\u0438\u044f)
p4233
sg1422
Vhttp://tv.yandex.ua/2/channels/614
p4234
sg1424
I469
sbsI470
g1412
(g1413
g1414
Ntp4235
Rp4236
(dp4237
g1418
Vhttp://avatars.yandex.net/get-tv-channel-logos/1357806445014M68284/orig
p4238
sg1420
V\u0410\u0432\u0442\u043e \u041f\u043b\u044e\u0441 (\u0420\u043e\u0441\u0441\u0438\u044f)
p4239
sg1422
Vhttp://tv.yandex.ua/2/channels/153
p4240
sg1424
I470
sbsI471
g1412
(g1413
g1414
Ntp4241
Rp4242
(dp4243
g1418
Vhttp://avatars.yandex.net/get-tv-shows/1333709239764M13305/orig
p4244
sg1420
VHD Life (\u0420\u043e\u0441\u0441\u0438\u044f)
p4245
sg1422
Vhttp://tv.yandex.ua/2/channels/415
p4246
sg1424
I471
sbsI472
g1412
(g1413
g1414
Ntp4247
Rp4248
(dp4249
g1418
Vhttp://avatars.yandex.net/get-tv-shows/1333713175752M17275/orig
p4250
sg1420
V365 (\u0420\u043e\u0441\u0441\u0438\u044f)
p4251
sg1422
Vhttp://tv.yandex.ua/2/channels/250
p4252
sg1424
I472
sbsI473
g1412
(g1413
g1414
Ntp4253
Rp4254
(dp4255
g1418
Vhttp://avatars.yandex.net/get-tv-shows/1333715379935M43316/orig
p4256
sg1420
V\u041a\u0438\u043d\u043e\u043b\u044e\u043a\u0441 (\u0420\u043e\u0441\u0441\u0438\u044f)
p4257
sg1422
Vhttp://tv.yandex.ua/2/channels/8
p4258
sg1424
I473
sbsI474
g1412
(g1413
g1414
Ntp4259
Rp4260
(dp4261
g1418
Vhttp://avatars.yandex.net/get-tv-shows/1333713929498M22985/orig
p4262
sg1420
V\u0420\u0443\u0441\u0441\u043a\u0438\u0439 \u0440\u043e\u043c\u0430\u043d (\u0420\u043e\u0441\u0441\u0438\u044f)
p4263
sg1422
Vhttp://tv.yandex.ua/2/channels/401
p4264
sg1424
I474
sbsI475
g1412
(g1413
g1414
Ntp4265
Rp4266
(dp4267
g1418
Vhttp://avatars.yandex.net/get-tv-shows/1333715246259M47961/orig
p4268
sg1420
V\u0421\u043f\u043e\u0440\u0442 \u0421\u043e\u044e\u0437 (\u0420\u043e\u0441\u0441\u0438\u044f)
p4269
sg1422
Vhttp://tv.yandex.ua/2/channels/306
p4270
sg1424
I475
sbsI476
g1412
(g1413
g1414
Ntp4271
Rp4272
(dp4273
g1418
Vhttp://avatars.yandex.net/get-tv-shows/1333712655586M1831/orig
p4274
sg1420
VPRO Business (\u0420\u043e\u0441\u0441\u0438\u044f)
p4275
sg1422
Vhttp://tv.yandex.ua/2/channels/214
p4276
sg1424
I476
sbsI477
g1412
(g1413
g1414
Ntp4277
Rp4278
(dp4279
g1418
Vhttp://avatars.yandex.net/get-tv-shows/1333715678250M70241/orig
p4280
sg1420
VMotors TV (\u0420\u043e\u0441\u0441\u0438\u044f)
p4281
sg1422
Vhttp://tv.yandex.ua/2/channels/531
p4282
sg1424
I477
sbsI478
g1412
(g1413
g1414
Ntp4283
Rp4284
(dp4285
g1418
Vhttp://avatars.yandex.net/get-tv-channel-logos/1358325521945M33990/orig
p4286
sg1420
V\u0411\u0435\u043b\u0430\u0440\u0443\u0441\u044c-24 (\u0420\u043e\u0441\u0441\u0438\u044f)
p4287
sg1422
Vhttp://tv.yandex.ua/2/channels/851
p4288
sg1424
I478
sbsI479
g1412
(g1413
g1414
Ntp4289
Rp4290
(dp4291
g1418
Vhttp://avatars.yandex.net/get-tv-shows/1333713401739M87841/orig
p4292
sg1420
VTrace Urban (\u0420\u043e\u0441\u0441\u0438\u044f)
p4293
sg1422
Vhttp://tv.yandex.ua/2/channels/473
p4294
sg1424
I479
sbsI480
g1412
(g1413
g1414
Ntp4295
Rp4296
(dp4297
g1418
Vhttp://avatars.yandex.net/get-tv-channel-logos/1348227921654M54810/orig
p4298
sg1420
V\u041c\u0423\u0417 \u0422\u0412 (\u0420\u043e\u0441\u0441\u0438\u044f)
p4299
sg1422
Vhttp://tv.yandex.ua/2/channels/897
p4300
sg1424
I480
sbsI481
g1412
(g1413
g1414
Ntp4301
Rp4302
(dp4303
g1418
Vhttp://avatars.yandex.net/get-tv-shows/1333715692247M50804/orig
p4304
sg1420
V\u042e\u043c\u043e\u0440 BOX (\u0420\u043e\u0441\u0441\u0438\u044f)
p4305
sg1422
Vhttp://tv.yandex.ua/2/channels/412
p4306
sg1424
I481
sbsI482
g1412
(g1413
g1414
Ntp4307
Rp4308
(dp4309
g1418
Vhttp://avatars.yandex.net/get-tv-shows/1334158126325M33910/orig
p4310
sg1420
V\u0420\u0430\u0437 \u0422\u0412 (\u0420\u043e\u0441\u0441\u0438\u044f)
p4311
sg1422
Vhttp://tv.yandex.ua/2/channels/363
p4312
sg1424
I482
sbsI483
g1412
(g1413
g1414
Ntp4313
Rp4314
(dp4315
g1418
Vhttp://avatars.yandex.net/get-tv-shows/1333713378901M21893/orig
p4316
sg1420
VPro \u0432\u0441\u0435 (\u0420\u043e\u0441\u0441\u0438\u044f)
p4317
sg1422
Vhttp://tv.yandex.ua/2/channels/458
p4318
sg1424
I483
sbsI484
g1412
(g1413
g1414
Ntp4319
Rp4320
(dp4321
g1418
Vhttp://avatars.yandex.net/get-tv-shows/1333713578373M76326/orig
p4322
sg1420
VBRIDGE TV (\u0420\u043e\u0441\u0441\u0438\u044f)
p4323
sg1422
Vhttp://tv.yandex.ua/2/channels/151
p4324
sg1424
I484
sbsI485
g1412
(g1413
g1414
Ntp4325
Rp4326
(dp4327
g1418
Vhttp://avatars.yandex.net/get-tv-shows/1333716766094M95286/orig
p4328
sg1420
V\u0422\u0420\u041e (\u0420\u043e\u0441\u0441\u0438\u044f)
p4329
sg1422
Vhttp://tv.yandex.ua/2/channels/730
p4330
sg1424
I485
sbsI486
g1412
(g1413
g1414
Ntp4331
Rp4332
(dp4333
g1418
Vhttp://avatars.yandex.net/get-tv-shows/1333707965006M57212/orig
p4334
sg1420
V\u0417\u0430\u043a\u043e\u043d-\u0422\u0412 (\u0420\u043e\u0441\u0441\u0438\u044f)
p4335
sg1422
Vhttp://tv.yandex.ua/2/channels/178
p4336
sg1424
I486
sbsI487
g1412
(g1413
g1414
Ntp4337
Rp4338
(dp4339
g1418
Vhttp://avatars.yandex.net/get-tv-shows/1333708977916M89754/orig
p4340
sg1420
V\u0422\u0411\u041d (\u0420\u043e\u0441\u0441\u0438\u044f)
p4341
sg1422
Vhttp://tv.yandex.ua/2/channels/576
p4342
sg1424
I487
sbsI488
g1412
(g1413
g1414
Ntp4343
Rp4344
(dp4345
g1418
Vhttp://avatars.yandex.net/get-tv-shows/1333715189760M70159/orig
p4346
sg1420
V\u0421\u043e\u044e\u0437 (\u0420\u043e\u0441\u0441\u0438\u044f)
p4347
sg1422
Vhttp://tv.yandex.ua/2/channels/349
p4348
sg1424
I488
sbsI489
g1412
(g1413
g1414
Ntp4349
Rp4350
(dp4351
g1418
Vhttp://avatars.yandex.net/get-tv-shows/1333715618499M86752/orig
p4352
sg1420
VSTV (\u0420\u043e\u0441\u0441\u0438\u044f)
p4353
sg1422
Vhttp://tv.yandex.ua/2/channels/165
p4354
sg1424
I489
sbsI490
g1412
(g1413
g1414
Ntp4355
Rp4356
(dp4357
g1418
Vhttp://avatars.yandex.net/get-tv-shows/1333715800906M7024/orig
p4358
sg1420
V\u041b\u044f-\u041c\u0438\u043d\u043e\u0440 (\u0420\u043e\u0441\u0441\u0438\u044f)
p4359
sg1422
Vhttp://tv.yandex.ua/2/channels/257
p4360
sg1424
I490
sbsI491
g1412
(g1413
g1414
Ntp4361
Rp4362
(dp4363
g1418
Vhttp://avatars.yandex.net/get-tv-shows/1333716969968M17969/orig
p4364
sg1420
V\u041a\u041f \u0422\u0412 (\u0420\u043e\u0441\u0441\u0438\u044f)
p4365
sg1422
Vhttp://tv.yandex.ua/2/channels/852
p4366
sg1424
I491
sbsI492
g1412
(g1413
g1414
Ntp4367
Rp4368
(dp4369
g1418
Vhttp://avatars.yandex.net/get-tv-channel-logos/1357919989620M30635/orig
p4370
sg1420
V\u0414\u0435\u0442\u0441\u043a\u0438\u0439 \u043c\u0438\u0440 + \u0422\u0435\u043b\u0435\u043a\u043b\u0443\u0431
p4371
sg1422
Vhttp://tv.yandex.ua/2/channels/923
p4372
sg1424
I492
sbsI493
g1412
(g1413
g1414
Ntp4373
Rp4374
(dp4375
g1418
Vhttp://avatars.yandex.net/get-tv-channel-logos/1357919547786M75281/orig
p4376
sg1420
VParamount Comedy
p4377
sg1422
Vhttp://tv.yandex.ua/2/channels/920
p4378
sg1424
I493
sbsI494
g1412
(g1413
g1414
Ntp4379
Rp4380
(dp4381
g1418
Vhttp://avatars.yandex.net/get-tv-channel-logos/1356772440257M50638/orig
p4382
sg1420
V\u0415\u0414\u0410
p4383
sg1422
Vhttp://tv.yandex.ua/2/channels/931
p4384
sg1424
I494
sbsI495
g1412
(g1413
g1414
Ntp4385
Rp4386
(dp4387
g1418
Vhttp://avatars.yandex.net/get-tv-channel-logos/1356772574955M48259/orig
p4388
sg1420
V\u0415\u0414\u0410 HD (\u0420\u043e\u0441\u0441\u0438\u044f)
p4389
sg1422
Vhttp://tv.yandex.ua/2/channels/930
p4390
sg1424
I495
sbsI496
g1412
(g1413
g1414
Ntp4391
Rp4392
(dp4393
g1418
Vhttp://avatars.yandex.net/get-tv-channel-logos/1354613590167M12325/orig
p4394
sg1420
VCBS Drama
p4395
sg1422
Vhttp://tv.yandex.ua/2/channels/911
p4396
sg1424
I496
sbsI497
g1412
(g1413
g1414
Ntp4397
Rp4398
(dp4399
g1418
Vhttp://avatars.yandex.net/get-tv-channel-logos/1354613569498M70821/orig
p4400
sg1420
VCBS Reality
p4401
sg1422
Vhttp://tv.yandex.ua/2/channels/912
p4402
sg1424
I497
sbsI498
g1412
(g1413
g1414
Ntp4403
Rp4404
(dp4405
g1418
Vhttp://avatars.yandex.net/get-tv-shows/1333718306703M45438/orig
p4406
sg1420
VBBC Entertainment
p4407
sg1422
Vhttp://tv.yandex.ua/2/channels/278
p4408
sg1424
I498
sbsI499
g1412
(g1413
g1414
Ntp4409
Rp4410
(dp4411
g1418
Vhttp://avatars.yandex.net/get-tv-shows/1333715233719M49792/orig
p4412
sg1420
VBizTV
p4413
sg1422
Vhttp://tv.yandex.ua/2/channels/797
p4414
sg1424
I499
sbsI500
g1412
(g1413
g1414
Ntp4415
Rp4416
(dp4417
g1418
Vhttp://avatars.yandex.net/get-tv-shows/1333713846214M68965/orig
p4418
sg1420
VFine Living Network (\u0420\u043e\u0441\u0441\u0438\u044f)
p4419
sg1422
Vhttp://tv.yandex.ua/2/channels/393
p4420
sg1424
I500
sbsI501
g1412
(g1413
g1414
Ntp4421
Rp4422
(dp4423
g1418
Vhttp://avatars.yandex.net/get-tv-shows/1333713783253M34729/orig
p4424
sg1420
V\u0427\u041f.Info (\u0420\u043e\u0441\u0441\u0438\u044f)
p4425
sg1422
Vhttp://tv.yandex.ua/2/channels/315
p4426
sg1424
I501
sbsI502
g1412
(g1413
g1414
Ntp4427
Rp4428
(dp4429
g1418
Vhttp://avatars.yandex.net/get-tv-shows/1333713694458M58917/orig
p4430
sg1420
VMTV Music (\u0420\u043e\u0441\u0441\u0438\u044f)
p4431
sg1422
Vhttp://tv.yandex.ua/2/channels/430
p4432
sg1424
I502
sbsI503
g1412
(g1413
g1414
Ntp4433
Rp4434
(dp4435
g1418
Vhttp://avatars.yandex.net/get-tv-channel-logos/1356612022097M50743/orig
p4436
sg1420
V\u042d\u0433\u043e\u0438\u0441\u0442 \u0422\u0412 (\u0420\u043e\u0441\u0441\u0438\u044f)
p4437
sg1422
Vhttp://tv.yandex.ua/2/channels/431
p4438
sg1424
I503
sbsI504
g1412
(g1413
g1414
Ntp4439
Rp4440
(dp4441
g1418
Vhttp://avatars.yandex.net/get-tv-shows/1333713010310M30552/orig
p4442
sg1420
V\u0410\u0413\u0420\u041e-\u0422\u0412 (\u0420\u043e\u0441\u0441\u0438\u044f)
p4443
sg1422
Vhttp://tv.yandex.ua/2/channels/11
p4444
sg1424
I504
sbsI505
g1412
(g1413
g1414
Ntp4445
Rp4446
(dp4447
g1418
Vhttp://avatars.yandex.net/get-tv-shows/1333715291495M67100/orig
p4448
sg1420
V\u041f\u0440\u043e\u0441\u0432\u0435\u0449\u0435\u043d\u0438\u0435 (\u0420\u043e\u0441\u0441\u0438\u044f)
p4449
sg1422
Vhttp://tv.yandex.ua/2/channels/685
p4450
sg1424
I505
sbsI506
g1412
(g1413
g1414
Ntp4451
Rp4452
(dp4453
g1418
Vhttp://avatars.yandex.net/get-tv-shows/1333713725548M83943/orig
p4454
sg1420
V\u0420\u0416\u0414
p4455
sg1422
Vhttp://tv.yandex.ua/2/channels/509
p4456
sg1424
I506
sbsI507
g1412
(g1413
g1414
Ntp4457
Rp4458
(dp4459
g1418
Vhttp://avatars.yandex.net/get-tv-shows/1333715232874M54663/orig
p4460
sg1420
V\u041d\u0430\u043d\u043e \u0422\u0412 (\u0420\u043e\u0441\u0441\u0438\u044f)
p4461
sg1422
Vhttp://tv.yandex.ua/2/channels/35
p4462
sg1424
I507
sbsI508
g1412
(g1413
g1414
Ntp4463
Rp4464
(dp4465
g1418
Vhttp://avatars.yandex.net/get-tv-shows/1333708540363M22180/orig
p4466
sg1420
VMTV Live HD (\u0420\u043e\u0441\u0441\u0438\u044f)
p4467
sg1422
Vhttp://tv.yandex.ua/2/channels/382
p4468
sg1424
I508
sbsI509
g1412
(g1413
g1414
Ntp4469
Rp4470
(dp4471
g1418
Vhttp://avatars.yandex.net/get-tv-shows/1333709420684M86785/orig
p4472
sg1420
VMTV European (\u0420\u043e\u0441\u0441\u0438\u044f)
p4473
sg1422
Vhttp://tv.yandex.ua/2/channels/270
p4474
sg1424
I509
sbsI510
g1412
(g1413
g1414
Ntp4475
Rp4476
(dp4477
g1418
Vhttp://avatars.yandex.net/get-tv-shows/1333718307034M58256/orig
p4478
sg1420
V\u0414\u0435\u0432\u044f\u0442\u044b\u0439 (\u041e\u0440\u0431\u0438\u0442\u0430) (\u0420\u043e\u0441\u0441\u0438\u044f)
p4479
sg1422
Vhttp://tv.yandex.ua/2/channels/237
p4480
sg1424
I510
sbsI511
g1412
(g1413
g1414
Ntp4481
Rp4482
(dp4483
g1418
Vhttp://avatars.yandex.net/get-tv-shows/1333713483747M17455/orig
p4484
sg1420
V\u0422\u0435\u043b\u0435\u043a\u0430\u043d\u0430\u043b 21+ (\u0420\u043e\u0441\u0441\u0438\u044f)
p4485
sg1422
Vhttp://tv.yandex.ua/2/channels/492
p4486
sg1424
I511
sbsI512
g1412
(g1413
g1414
Ntp4487
Rp4488
(dp4489
g1418
Vhttp://avatars.yandex.net/get-tv-shows/1333708295391M71704/orig
p4490
sg1420
V\u0410\u0421\u0422\u0420\u041e \u0422\u0412 (\u0420\u043e\u0441\u0441\u0438\u044f)
p4491
sg1422
Vhttp://tv.yandex.ua/2/channels/249
p4492
sg1424
I512
sbsI513
g1412
(g1413
g1414
Ntp4493
Rp4494
(dp4495
g1418
Vhttp://avatars.yandex.net/get-tv-channel-logos/1357908652792M87979/orig
p4496
sg1420
V\u0418\u041d\u0412\u0410 \u041c\u0415\u0414\u0418\u0410 \u0422\u0412 (\u0420\u043e\u0441\u0441\u0438\u044f)
p4497
sg1422
Vhttp://tv.yandex.ua/213/channels/916
p4498
sg1424
I513
sbsI514
g1412
(g1413
g1414
Ntp4499
Rp4500
(dp4501
g1418
Vhttp://avatars.yandex.net/get-tv-channel-logos/1357919415462M55430/orig
p4502
sg1420
VNick Jr (\u0420\u043e\u0441\u0441\u0438\u044f)
p4503
sg1422
Vhttp://tv.yandex.ua/213/channels/917
p4504
sg1424
I514
sbsI515
g1412
(g1413
g1414
Ntp4505
Rp4506
(dp4507
g1418
Vhttp://avatars.yandex.net/get-tv-channel-logos/1357913833499M24505/orig
p4508
sg1420
VAMEDIA (\u0420\u043e\u0441\u0441\u0438\u044f)
p4509
sg1422
Vhttp://tv.yandex.ua/213/channels/918
p4510
sg1424
I515
sbsI516
g1412
(g1413
g1414
Ntp4511
Rp4512
(dp4513
g1418
Vhttp://avatars.yandex.net/get-tv-channel-logos/1357918253235M64900/orig
p4514
sg1420
VFashion One (\u0420\u043e\u0441\u0441\u0438\u044f)
p4515
sg1422
Vhttp://tv.yandex.ua/213/channels/919
p4516
sg1424
I516
sbsI517
g1412
(g1413
g1414
Ntp4517
Rp4518
(dp4519
g1418
Vhttp://avatars.yandex.net/get-tv-channel-logos/1357919285434M73777/orig
p4520
sg1420
VNHK WORLD TV (\u0420\u043e\u0441\u0441\u0438\u044f)
p4521
sg1422
Vhttp://tv.yandex.ua/213/channels/921
p4522
sg1424
I517
sbsI518
g1412
(g1413
g1414
Ntp4523
Rp4524
(dp4525
g1418
Vhttp://avatars.yandex.net/get-tv-channel-logos/1356772326416M40210/orig
p4526
sg1420
V\u041f\u0435\u0440\u0432\u044b\u0439 \u0418\u043d\u0442\u0435\u0440\u043d\u0435\u0442 \u041a\u0430\u043d\u0430\u043b (\u0420\u043e\u0441\u0441\u0438\u044f)
p4527
sg1422
Vhttp://tv.yandex.ua/213/channels/922
p4528
sg1424
I518
sbsI519
g1412
(g1413
g1414
Ntp4529
Rp4530
(dp4531
g1418
Vhttp://avatars.yandex.net/get-tv-channel-logos/1357918360691M18459/orig
p4532
sg1420
VGalaxy TV (\u0420\u043e\u0441\u0441\u0438\u044f)
p4533
sg1422
Vhttp://tv.yandex.ua/213/channels/924
p4534
sg1424
I519
sbsI520
g1412
(g1413
g1414
Ntp4535
Rp4536
(dp4537
g1418
Nsg1420
V\u0422\u0435\u0430\u0442\u0440 (\u0420\u043e\u0441\u0441\u0438\u044f)
p4538
sg1422
Vhttp://tv.yandex.ua/213/channels/925
p4539
sg1424
I520
sbsI521
g1412
(g1413
g1414
Ntp4540
Rp4541
(dp4542
g1418
Vhttp://avatars.yandex.net/get-tv-channel-logos/1357920601762M75520/orig
p4543
sg1420
V\u041e\u0421\u0422 (\u0420\u043e\u0441\u0441\u0438\u044f)
p4544
sg1422
Vhttp://tv.yandex.ua/213/channels/926
p4545
sg1424
I521
sbsI522
g1412
(g1413
g1414
Ntp4546
Rp4547
(dp4548
g1418
Vhttp://avatars.yandex.net/get-tv-channel-logos/1357918486310M81107/orig
p4549
sg1420
ViConcerts (\u0420\u043e\u0441\u0441\u0438\u044f)
p4550
sg1422
Vhttp://tv.yandex.ua/213/channels/927
p4551
sg1424
I522
sbsI523
g1412
(g1413
g1414
Ntp4552
Rp4553
(dp4554
g1418
Vhttp://avatars.yandex.net/get-tv-channel-logos/1357918127889M80429/orig
p4555
sg1420
VDiscovery \u0412\u043e\u0441\u0442\u043e\u0447\u043d\u0430\u044f \u0415\u0432\u0440\u043e\u043f\u0430 (\u0420\u043e\u0441\u0441\u0438\u044f)
p4556
sg1422
Vhttp://tv.yandex.ua/213/channels/928
p4557
sg1424
I523
sbsI524
g1412
(g1413
g1414
Ntp4558
Rp4559
(dp4560
g1418
Vhttp://avatars.yandex.net/get-tv-channel-logos/1357917814887M75013/orig
p4561
sg1420
VBoomerang (\u0420\u043e\u0441\u0441\u0438\u044f)
p4562
sg1422
Vhttp://tv.yandex.ua/213/channels/929
p4563
sg1424
I524
sbsI525
g1412
(g1413
g1414
Ntp4564
Rp4565
(dp4566
g1418
Nsg1420
V\u0421\u0438\u043d\u0435\u0440\u0433\u0438\u044f \u0422\u0412 (\u0420\u043e\u0441\u0441\u0438\u044f)
p4567
sg1422
Vhttp://tv.yandex.ua/213/channels/932
p4568
sg1424
I525
sbsI526
g1412
(g1413
g1414
Ntp4569
Rp4570
(dp4571
g1418
Vhttp://avatars.yandex.net/get-tv-channel-logos/1357921498530M48934/orig
p4572
sg1420
V\u0422\u041d\u0412-\u043f\u043b\u0430\u043d\u0435\u0442\u0430 (\u0420\u043e\u0441\u0441\u0438\u044f)
p4573
sg1422
Vhttp://tv.yandex.ua/213/channels/933
p4574
sg1424
I526
sbsI527
g1412
(g1413
g1414
Ntp4575
Rp4576
(dp4577
g1418
Vhttp://avatars.yandex.net/get-tv-channel-logos/1357913701365M55366/orig
p4578
sg1420
VSony Turbo (\u0420\u043e\u0441\u0441\u0438\u044f)
p4579
sg1422
Vhttp://tv.yandex.ua/213/channels/935
p4580
sg1424
I527
sbsI528
g1412
(g1413
g1414
Ntp4581
Rp4582
(dp4583
g1418
Vhttp://avatars.yandex.net/get-tv-shows/1333716946175M67344/orig
p4584
sg1420
V\u0420\u043e\u0441\u0441\u0438\u044f 1 (\u0420\u043e\u0441\u0441\u0438\u044f)
p4585
sg1422
Vhttp://tv.yandex.ua/213/channels/711
p4586
sg1424
I528
sbsI529
g1412
(g1413
g1414
Ntp4587
Rp4588
(dp4589
g1418
Vhttp://avatars.yandex.net/get-tv-shows/1333713810531M5163/orig
p4590
sg1420
V\u0422\u0412 \u0426\u0435\u043d\u0442\u0440
p4591
sg1422
Vhttp://tv.yandex.ua/213/channels/649
p4592
sg1424
I529
sbsI530
g1412
(g1413
g1414
Ntp4593
Rp4594
(dp4595
g1418
Vhttp://avatars.yandex.net/get-tv-channel-logos/1335163736667M48278/orig
p4596
sg1420
V\u041d\u0422\u0412
p4597
sg1422
Vhttp://tv.yandex.ua/213/channels/162
p4598
sg1424
I530
sbsI531
g1412
(g1413
g1414
Ntp4599
Rp4600
(dp4601
g1418
Vhttp://avatars.yandex.net/get-tv-shows/1333715634924M39412/orig
p4602
sg1420
V\u041a\u0443\u043b\u044c\u0442\u0443\u0440\u0430 (\u0420\u043e\u0441\u0441\u0438\u044f)
p4603
sg1422
Vhttp://tv.yandex.ua/213/channels/187
p4604
sg1424
I531
sbsI532
g1412
(g1413
g1414
Ntp4605
Rp4606
(dp4607
g1418
Vhttp://avatars.yandex.net/get-tv-shows/1333715970102M90164/orig
p4608
sg1420
V\u0420\u043e\u0441\u0441\u0438\u044f 2 (\u0420\u043e\u0441\u0441\u0438\u044f)
p4609
sg1422
Vhttp://tv.yandex.ua/213/channels/515
p4610
sg1424
I532
sbsI533
g1412
(g1413
g1414
Ntp4611
Rp4612
(dp4613
g1418
Vhttp://avatars.yandex.net/get-tv-shows/1333715711561M94479/orig
p4614
sg1420
V\u0422\u041d\u0422 (\u0420\u043e\u0441\u0441\u0438\u044f)
p4615
sg1422
Vhttp://tv.yandex.ua/213/channels/353
p4616
sg1424
I533
sbsI534
g1412
(g1413
g1414
Ntp4617
Rp4618
(dp4619
g1418
Vhttp://avatars.yandex.net/get-tv-shows/1333709306970M89489/orig
p4620
sg1420
V\u0414\u043e\u043c\u0430\u0448\u043d\u0438\u0439
p4621
sg1422
Vhttp://tv.yandex.ua/213/channels/304
p4622
sg1424
I534
sbsI535
g1412
(g1413
g1414
Ntp4623
Rp4624
(dp4625
g1418
Vhttp://avatars.yandex.net/get-tv-channel-logos/1348142097301M59393/orig
p4626
sg1420
V\u0421\u0422\u0421
p4627
sg1422
Vhttp://tv.yandex.ua/213/channels/79
p4628
sg1424
I535
sbsI536
g1412
(g1413
g1414
Ntp4629
Rp4630
(dp4631
g1418
Vhttp://avatars.yandex.net/get-tv-channel-logos/1335452077321M11620/orig
p4632
sg1420
V\u0417\u0432\u0435\u0437\u0434\u0430 (\u0420\u043e\u0441\u0441\u0438\u044f)
p4633
sg1422
Vhttp://tv.yandex.ua/213/channels/405
p4634
sg1424
I536
sbsI537
g1412
(g1413
g1414
Ntp4635
Rp4636
(dp4637
g1418
Vhttp://avatars.yandex.net/get-tv-shows/1333715624031M64884/orig
p4638
sg1420
V\u041f\u0415\u0420\u0415\u0426 (\u0420\u043e\u0441\u0441\u0438\u044f)
p4639
sg1422
Vhttp://tv.yandex.ua/213/channels/511
p4640
sg1424
I537
sbsI538
g1412
(g1413
g1414
Ntp4641
Rp4642
(dp4643
g1418
Vhttp://avatars.yandex.net/get-tv-channel-logos/1347983721579M89539/orig
p4644
sg1420
V\u0422\u04123 (\u0420\u043e\u0441\u0441\u0438\u044f)
p4645
sg1422
Vhttp://tv.yandex.ua/213/channels/698
p4646
sg1424
I538
sbsI539
g1412
(g1413
g1414
Ntp4647
Rp4648
(dp4649
g1418
Vhttp://avatars.yandex.net/get-tv-shows/1333713476494M63548/orig
p4650
sg1420
V\u0412\u041a\u0422
p4651
sg1422
Vhttp://tv.yandex.ua/213/channels/421
p4652
sg1424
I539
sbsI540
g1412
(g1413
g1414
Ntp4653
Rp4654
(dp4655
g1418
Vhttp://avatars.yandex.net/get-tv-channel-logos/1347458342228M17996/orig
p4656
sg1420
V\u041c\u043e\u0441\u043a\u0432\u0430. \u0414\u043e\u0432\u0435\u0440\u0438\u0435
p4657
sg1422
Vhttp://tv.yandex.ua/213/channels/655
p4658
sg1424
I540
sbsI541
g1412
(g1413
g1414
Ntp4659
Rp4660
(dp4661
g1418
Vhttp://avatars.yandex.net/get-tv-shows/1333713216702M32803/orig
p4662
sg1420
V\u0421\u0435\u043c\u044c\u044f
p4663
sg1422
Vhttp://tv.yandex.ua/213/channels/335
p4664
sg1424
I541
sbsI542
g1412
(g1413
g1414
Ntp4665
Rp4666
(dp4667
g1418
Vhttp://avatars.yandex.net/get-tv-shows/1333708776782M67800/orig
p4668
sg1420
V\u041f\u043e\u0434\u043c\u043e\u0441\u043a\u043e\u0432\u044c\u0435
p4669
sg1422
Vhttp://tv.yandex.ua/213/channels/161
p4670
sg1424
I542
sbsI543
g1412
(g1413
g1414
Ntp4671
Rp4672
(dp4673
g1418
Vhttp://avatars.yandex.net/get-tv-shows/1333716066753M79169/orig
p4674
sg1420
V\u041a\u0430\u0440\u0443\u0441\u0435\u043b\u044c (\u0420\u043e\u0441\u0441\u0438\u044f)
p4675
sg1422
Vhttp://tv.yandex.ua/213/channels/740
p4676
sg1424
I543
sbsI544
g1412
(g1413
g1414
Ntp4677
Rp4678
(dp4679
g1418
Vhttp://avatars.yandex.net/get-tv-shows/1333712702411M41452/orig
p4680
sg1420
V2x2 (\u0420\u043e\u0441\u0441\u0438\u044f)
p4681
sg1422
Vhttp://tv.yandex.ua/213/channels/323
p4682
sg1424
I544
sbsI545
g1412
(g1413
g1414
Ntp4683
Rp4684
(dp4685
g1418
Vhttp://avatars.yandex.net/get-tv-channel-logos/1340776908160M60325/orig
p4686
sg1420
VMTV (\u0420\u043e\u0441\u0441\u0438\u044f)
p4687
sg1422
Vhttp://tv.yandex.ua/213/channels/557
p4688
sg1424
I545
sbsI546
g1412
(g1413
g1414
Ntp4689
Rp4690
(dp4691
g1418
Vhttp://avatars.yandex.net/get-tv-shows/1333713644247M50965/orig
p4692
sg1420
V\u041c\u043e\u0441\u043a\u0432\u0430-24
p4693
sg1422
Vhttp://tv.yandex.ua/213/channels/334
p4694
sg1424
I546
sbsI547
g1412
(g1413
g1414
Ntp4695
Rp4696
(dp4697
g1418
Vhttp://avatars.yandex.net/get-tv-channel-logos/1348230415979M21720/orig
p4698
sg1420
V\u042e (\u0420\u043e\u0441\u0441\u0438\u044f)
p4699
sg1422
Vhttp://tv.yandex.ua/213/channels/898
p4700
sg1424
I547
sbsI548
g1412
(g1413
g1414
Ntp4701
Rp4702
(dp4703
g1418
Vhttp://avatars.yandex.net/get-tv-channel-logos/1335334386799M30858/orig
p4704
sg1420
V\u041a\u0430\u043d\u0430\u043b Disney (\u0420\u043e\u0441\u0441\u0438\u044f)
p4705
sg1422
Vhttp://tv.yandex.ua/213/channels/150
p4706
sg1424
I548
sbsI549
g1412
(g1413
g1414
Ntp4707
Rp4708
(dp4709
g1418
Vhttp://avatars.yandex.net/get-tv-shows/1333715718019M10577/orig
p4710
sg1420
V\u0428\u043a\u043e\u043b\u044c\u043d\u0438\u043a
p4711
sg1422
Vhttp://tv.yandex.ua/213/channels/61
p4712
sg1424
I549
sbsI550
g1412
(g1413
g1414
Ntp4713
Rp4714
(dp4715
g1418
Vhttp://avatars.yandex.net/get-tv-channel-logos/1357919989620M30635/orig
p4716
sg1420
V\u0414\u0435\u0442\u0441\u043a\u0438\u0439 \u043c\u0438\u0440 + \u0422\u0435\u043b\u0435\u043a\u043b\u0443\u0431 (\u0420\u043e\u0441\u0441\u0438\u044f)
p4717
sg1422
Vhttp://tv.yandex.ua/213/channels/923
p4718
sg1424
I550
sbsI551
g1412
(g1413
g1414
Ntp4719
Rp4720
(dp4721
g1418
Vhttp://avatars.yandex.net/get-tv-channel-logos/1357919547786M75281/orig
p4722
sg1420
VParamount Comedy (\u0420\u043e\u0441\u0441\u0438\u044f)
p4723
sg1422
Vhttp://tv.yandex.ua/213/channels/920
p4724
sg1424
I551
sbsI552
g1412
(g1413
g1414
Ntp4725
Rp4726
(dp4727
g1418
Vhttp://avatars.yandex.net/get-tv-channel-logos/1354613590167M12325/orig
p4728
sg1420
VCBS Drama (\u0420\u043e\u0441\u0441\u0438\u044f)
p4729
sg1422
Vhttp://tv.yandex.ua/213/channels/911
p4730
sg1424
I552
sbsI553
g1412
(g1413
g1414
Ntp4731
Rp4732
(dp4733
g1418
Vhttp://avatars.yandex.net/get-tv-channel-logos/1354613569498M70821/orig
p4734
sg1420
VCBS Reality (\u0420\u043e\u0441\u0441\u0438\u044f)
p4735
sg1422
Vhttp://tv.yandex.ua/213/channels/912
p4736
sg1424
I553
sbsI554
g1412
(g1413
g1414
Ntp4737
Rp4738
(dp4739
g1418
Vhttp://avatars.yandex.net/get-tv-shows/1333718306703M45438/orig
p4740
sg1420
VBBC Entertainment (\u0420\u043e\u0441\u0441\u0438\u044f)
p4741
sg1422
Vhttp://tv.yandex.ua/213/channels/278
p4742
sg1424
I554
sbsI555
g1412
(g1413
g1414
Ntp4743
Rp4744
(dp4745
g1418
Vhttp://avatars.yandex.net/get-tv-shows/1333715233719M49792/orig
p4746
sg1420
VBizTV (\u0420\u043e\u0441\u0441\u0438\u044f)
p4747
sg1422
Vhttp://tv.yandex.ua/213/channels/797
p4748
sg1424
I555
sbsI556
g1412
(g1413
g1414
Ntp4749
Rp4750
(dp4751
g1418
Vhttp://avatars.yandex.net/get-tv-shows/1333713725548M83943/orig
p4752
sg1420
V\u0420\u0416\u0414 (\u0420\u043e\u0441\u0441\u0438\u044f)
p4753
sg1422
Vhttp://tv.yandex.ua/213/channels/509
p4754
sg1424
I556
sbssa.